Contents of the .eh_frame section:

00000000 0000000000000014 00000000 CIE
  Version:               1
  Augmentation:          "zR"
  Code alignment factor: 1
  Data alignment factor: -8
  Return address column: 16
  Augmentation data:     1b

  DW_CFA_def_cfa: r7 (rsp) ofs 8
  DW_CFA_offset: r16 (rip) at cfa-8
  DW_CFA_undefined: r16 (rip)

00000018 0000000000000014 0000001c FDE cie=00000000 pc=0000000000402980..00000000004029aa
  DW_CFA_nop
  DW_CFA_nop
  DW_CFA_nop
  DW_CFA_nop
  DW_CFA_nop
  DW_CFA_nop
  DW_CFA_nop

00000030 0000000000000014 00000000 CIE
  Version:               1
  Augmentation:          "zR"
  Code alignment factor: 1
  Data alignment factor: -8
  Return address column: 16
  Augmentation data:     1b

  DW_CFA_def_cfa: r7 (rsp) ofs 8
  DW_CFA_offset: r16 (rip) at cfa-8
  DW_CFA_nop
  DW_CFA_nop

00000048 0000000000000024 0000001c FDE cie=00000030 pc=00000000004022d0..0000000000402980
  DW_CFA_def_cfa_offset: 16
  DW_CFA_advance_loc: 6 to 00000000004022d6
  DW_CFA_def_cfa_offset: 24
  DW_CFA_advance_loc: 10 to 00000000004022e0
  DW_CFA_def_cfa_expression (DW_OP_breg7 (rsp): 8; DW_OP_breg16 (rip): 0; DW_OP_lit15; DW_OP_and; DW_OP_lit11; DW_OP_ge; DW_OP_lit3; DW_OP_shl; DW_OP_plus)
  DW_CFA_nop
  DW_CFA_nop
  DW_CFA_nop
  DW_CFA_nop

00000070 0000000000000034 00000044 FDE cie=00000030 pc=0000000000402a70..0000000000402ab0
  DW_CFA_advance_loc: 1 to 0000000000402a71
  DW_CFA_def_cfa_offset: 16
  DW_CFA_advance_loc: 3 to 0000000000402a74
  DW_CFA_def_cfa: r6 (rbp) ofs 16
  DW_CFA_offset: r6 (rbp) at cfa-16
  DW_CFA_advance_loc: 10 to 0000000000402a7e
  DW_CFA_expression: r14 (r14) (DW_OP_lit8; DW_OP_minus; DW_OP_const4s: -128; DW_OP_and; DW_OP_const4s: -8; DW_OP_plus)
  DW_CFA_advance_loc: 41 to 0000000000402aa7
  DW_CFA_restore: r14 (r14)
  DW_CFA_advance_loc: 6 to 0000000000402aad
  DW_CFA_def_cfa: r7 (rsp) ofs 8
  DW_CFA_restore: r6 (rbp)
  DW_CFA_nop
  DW_CFA_nop
  DW_CFA_nop
  DW_CFA_nop
  DW_CFA_nop

000000a8 0000000000000014 00000000 CIE
  Version:               1
  Augmentation:          ""
  Code alignment factor: 1
  Data alignment factor: -8
  Return address column: 16

  DW_CFA_def_cfa: r7 (rsp) ofs 8
  DW_CFA_offset: r16 (rip) at cfa-8
  DW_CFA_nop
  DW_CFA_nop
  DW_CFA_nop
  DW_CFA_nop
  DW_CFA_nop
  DW_CFA_nop

000000c0 000000000000002c 0000001c FDE cie=000000a8 pc=0000000000402ab0..0000000000402d8e
  DW_CFA_advance_loc: 1 to 0000000000402ab1
  DW_CFA_def_cfa_offset: 16
  DW_CFA_advance_loc: 3 to 0000000000402ab4
  DW_CFA_def_cfa: r6 (rbp) ofs 16
  DW_CFA_offset: r6 (rbp) at cfa-16
  DW_CFA_advance_loc: 24 to 0000000000402acc
  DW_CFA_offset: r3 (rbx) at cfa-32
  DW_CFA_advance_loc2: 704 to 0000000000402d8c
  DW_CFA_restore: r3 (rbx)
  DW_CFA_advance_loc: 1 to 0000000000402d8d
  DW_CFA_restore: r6 (rbp)
  DW_CFA_nop
  DW_CFA_nop
  DW_CFA_nop
  DW_CFA_nop
  DW_CFA_nop
  DW_CFA_nop

000000f0 0000000000000024 0000004c FDE cie=000000a8 pc=0000000000402d8e..0000000000402ee5
  DW_CFA_advance_loc: 1 to 0000000000402d8f
  DW_CFA_def_cfa_offset: 16
  DW_CFA_advance_loc: 3 to 0000000000402d92
  DW_CFA_def_cfa: r6 (rbp) ofs 16
  DW_CFA_offset: r6 (rbp) at cfa-16
  DW_CFA_advance_loc2: 338 to 0000000000402ee4
  DW_CFA_restore: r6 (rbp)
  DW_CFA_nop
  DW_CFA_nop
  DW_CFA_nop

00000118 0000000000000024 00000074 FDE cie=000000a8 pc=0000000000402ee5..00000000004032ee
  DW_CFA_advance_loc: 1 to 0000000000402ee6
  DW_CFA_def_cfa_offset: 16
  DW_CFA_advance_loc: 3 to 0000000000402ee9
  DW_CFA_def_cfa: r6 (rbp) ofs 16
  DW_CFA_offset: r6 (rbp) at cfa-16
  DW_CFA_advance_loc2: 1028 to 00000000004032ed
  DW_CFA_restore: r6 (rbp)
  DW_CFA_nop
  DW_CFA_nop
  DW_CFA_nop

00000140 0000000000000024 0000009c FDE cie=000000a8 pc=00000000004032ee..00000000004033ce
  DW_CFA_advance_loc: 1 to 00000000004032ef
  DW_CFA_def_cfa_offset: 16
  DW_CFA_advance_loc: 3 to 00000000004032f2
  DW_CFA_def_cfa: r6 (rbp) ofs 16
  DW_CFA_offset: r6 (rbp) at cfa-16
  DW_CFA_advance_loc1: 219 to 00000000004033cd
  DW_CFA_restore: r6 (rbp)
  DW_CFA_nop
  DW_CFA_nop
  DW_CFA_nop
  DW_CFA_nop

00000168 000000000000002c 000000c4 FDE cie=000000a8 pc=00000000004033ce..00000000004034ea
  DW_CFA_advance_loc: 1 to 00000000004033cf
  DW_CFA_def_cfa_offset: 16
  DW_CFA_advance_loc: 3 to 00000000004033d2
  DW_CFA_def_cfa: r6 (rbp) ofs 16
  DW_CFA_offset: r6 (rbp) at cfa-16
  DW_CFA_advance_loc: 39 to 00000000004033f9
  DW_CFA_offset: r3 (rbx) at cfa-32
  DW_CFA_advance_loc1: 239 to 00000000004034e8
  DW_CFA_restore: r3 (rbx)
  DW_CFA_advance_loc: 1 to 00000000004034e9
  DW_CFA_restore: r6 (rbp)
  DW_CFA_nop
  DW_CFA_nop
  DW_CFA_nop
  DW_CFA_nop
  DW_CFA_nop
  DW_CFA_nop
  DW_CFA_nop

00000198 0000000000000024 000000f4 FDE cie=000000a8 pc=00000000004034ea..00000000004036d2
  DW_CFA_advance_loc: 1 to 00000000004034eb
  DW_CFA_def_cfa_offset: 16
  DW_CFA_advance_loc: 3 to 00000000004034ee
  DW_CFA_def_cfa: r6 (rbp) ofs 16
  DW_CFA_offset: r6 (rbp) at cfa-16
  DW_CFA_advance_loc2: 483 to 00000000004036d1
  DW_CFA_restore: r6 (rbp)
  DW_CFA_nop
  DW_CFA_nop
  DW_CFA_nop

000001c0 000000000000002c 0000011c FDE cie=000000a8 pc=00000000004036d2..0000000000403ab2
  DW_CFA_advance_loc: 1 to 00000000004036d3
  DW_CFA_def_cfa_offset: 16
  DW_CFA_advance_loc: 3 to 00000000004036d6
  DW_CFA_def_cfa: r6 (rbp) ofs 16
  DW_CFA_offset: r6 (rbp) at cfa-16
  DW_CFA_advance_loc1: 67 to 0000000000403719
  DW_CFA_offset: r3 (rbx) at cfa-32
  DW_CFA_advance_loc2: 919 to 0000000000403ab0
  DW_CFA_restore: r3 (rbx)
  DW_CFA_advance_loc: 1 to 0000000000403ab1
  DW_CFA_restore: r6 (rbp)
  DW_CFA_nop
  DW_CFA_nop
  DW_CFA_nop
  DW_CFA_nop
  DW_CFA_nop

000001f0 000000000000002c 0000014c FDE cie=000000a8 pc=0000000000403ab2..000000000040405d
  DW_CFA_advance_loc: 1 to 0000000000403ab3
  DW_CFA_def_cfa_offset: 16
  DW_CFA_advance_loc: 3 to 0000000000403ab6
  DW_CFA_def_cfa: r6 (rbp) ofs 16
  DW_CFA_offset: r6 (rbp) at cfa-16
  DW_CFA_advance_loc2: 1020 to 0000000000403eb2
  DW_CFA_offset: r3 (rbx) at cfa-32
  DW_CFA_advance_loc2: 425 to 000000000040405b
  DW_CFA_restore: r3 (rbx)
  DW_CFA_advance_loc: 1 to 000000000040405c
  DW_CFA_restore: r6 (rbp)
  DW_CFA_nop
  DW_CFA_nop
  DW_CFA_nop
  DW_CFA_nop

00000220 000000000000002c 0000017c FDE cie=000000a8 pc=000000000040405d..0000000000404717
  DW_CFA_advance_loc: 1 to 000000000040405e
  DW_CFA_def_cfa_offset: 16
  DW_CFA_advance_loc: 3 to 0000000000404061
  DW_CFA_def_cfa: r6 (rbp) ofs 16
  DW_CFA_offset: r6 (rbp) at cfa-16
  DW_CFA_advance_loc2: 1217 to 0000000000404522
  DW_CFA_offset: r3 (rbx) at cfa-32
  DW_CFA_advance_loc2: 499 to 0000000000404715
  DW_CFA_restore: r3 (rbx)
  DW_CFA_advance_loc: 1 to 0000000000404716
  DW_CFA_restore: r6 (rbp)
  DW_CFA_nop
  DW_CFA_nop
  DW_CFA_nop
  DW_CFA_nop

00000250 000000000000002c 000001ac FDE cie=000000a8 pc=0000000000404717..0000000000404798
  DW_CFA_advance_loc: 1 to 0000000000404718
  DW_CFA_def_cfa_offset: 16
  DW_CFA_advance_loc: 3 to 000000000040471b
  DW_CFA_def_cfa: r6 (rbp) ofs 16
  DW_CFA_offset: r6 (rbp) at cfa-16
  DW_CFA_advance_loc: 52 to 000000000040474f
  DW_CFA_offset: r3 (rbx) at cfa-32
  DW_CFA_advance_loc1: 71 to 0000000000404796
  DW_CFA_restore: r3 (rbx)
  DW_CFA_advance_loc: 1 to 0000000000404797
  DW_CFA_restore: r6 (rbp)
  DW_CFA_nop
  DW_CFA_nop
  DW_CFA_nop
  DW_CFA_nop
  DW_CFA_nop
  DW_CFA_nop
  DW_CFA_nop

00000280 000000000000002c 000001dc FDE cie=000000a8 pc=0000000000404798..000000000040497f
  DW_CFA_advance_loc: 1 to 0000000000404799
  DW_CFA_def_cfa_offset: 16
  DW_CFA_advance_loc: 3 to 000000000040479c
  DW_CFA_def_cfa: r6 (rbp) ofs 16
  DW_CFA_offset: r6 (rbp) at cfa-16
  DW_CFA_advance_loc2: 404 to 0000000000404930
  DW_CFA_offset: r3 (rbx) at cfa-24
  DW_CFA_advance_loc1: 77 to 000000000040497d
  DW_CFA_restore: r3 (rbx)
  DW_CFA_advance_loc: 1 to 000000000040497e
  DW_CFA_restore: r6 (rbp)
  DW_CFA_nop
  DW_CFA_nop
  DW_CFA_nop
  DW_CFA_nop
  DW_CFA_nop

000002b0 000000000000002c 0000020c FDE cie=000000a8 pc=0000000000404980..0000000000404fb4
  DW_CFA_advance_loc: 1 to 0000000000404981
  DW_CFA_def_cfa_offset: 16
  DW_CFA_advance_loc: 3 to 0000000000404984
  DW_CFA_def_cfa: r6 (rbp) ofs 16
  DW_CFA_offset: r6 (rbp) at cfa-16
  DW_CFA_advance_loc2: 584 to 0000000000404bcc
  DW_CFA_offset: r3 (rbx) at cfa-32
  DW_CFA_advance_loc2: 998 to 0000000000404fb2
  DW_CFA_restore: r3 (rbx)
  DW_CFA_advance_loc: 1 to 0000000000404fb3
  DW_CFA_restore: r6 (rbp)
  DW_CFA_nop
  DW_CFA_nop
  DW_CFA_nop
  DW_CFA_nop

000002e0 0000000000000024 0000023c FDE cie=000000a8 pc=0000000000404fb4..00000000004055d4
  DW_CFA_advance_loc: 1 to 0000000000404fb5
  DW_CFA_def_cfa_offset: 16
  DW_CFA_advance_loc: 3 to 0000000000404fb8
  DW_CFA_def_cfa: r6 (rbp) ofs 16
  DW_CFA_offset: r6 (rbp) at cfa-16
  DW_CFA_advance_loc2: 1563 to 00000000004055d3
  DW_CFA_restore: r6 (rbp)
  DW_CFA_nop
  DW_CFA_nop
  DW_CFA_nop

00000308 0000000000000024 00000264 FDE cie=000000a8 pc=00000000004055d4..0000000000405641
  DW_CFA_advance_loc: 1 to 00000000004055d5
  DW_CFA_def_cfa_offset: 16
  DW_CFA_advance_loc: 3 to 00000000004055d8
  DW_CFA_def_cfa: r6 (rbp) ofs 16
  DW_CFA_offset: r6 (rbp) at cfa-16
  DW_CFA_advance_loc: 50 to 000000000040560a
  DW_CFA_offset: r3 (rbx) at cfa-24
  DW_CFA_advance_loc: 53 to 000000000040563f
  DW_CFA_restore: r3 (rbx)
  DW_CFA_advance_loc: 1 to 0000000000405640
  DW_CFA_restore: r6 (rbp)

00000330 0000000000000024 0000028c FDE cie=000000a8 pc=0000000000405641..00000000004056ae
  DW_CFA_advance_loc: 1 to 0000000000405642
  DW_CFA_def_cfa_offset: 16
  DW_CFA_advance_loc: 3 to 0000000000405645
  DW_CFA_def_cfa: r6 (rbp) ofs 16
  DW_CFA_offset: r6 (rbp) at cfa-16
  DW_CFA_advance_loc: 50 to 0000000000405677
  DW_CFA_offset: r3 (rbx) at cfa-24
  DW_CFA_advance_loc: 53 to 00000000004056ac
  DW_CFA_restore: r3 (rbx)
  DW_CFA_advance_loc: 1 to 00000000004056ad
  DW_CFA_restore: r6 (rbp)

00000358 000000000000002c 000002b4 FDE cie=000000a8 pc=00000000004056ae..000000000040599f
  DW_CFA_advance_loc: 1 to 00000000004056af
  DW_CFA_def_cfa_offset: 16
  DW_CFA_advance_loc: 3 to 00000000004056b2
  DW_CFA_def_cfa: r6 (rbp) ofs 16
  DW_CFA_offset: r6 (rbp) at cfa-16
  DW_CFA_advance_loc1: 79 to 0000000000405701
  DW_CFA_offset: r3 (rbx) at cfa-24
  DW_CFA_advance_loc2: 668 to 000000000040599d
  DW_CFA_restore: r3 (rbx)
  DW_CFA_advance_loc: 1 to 000000000040599e
  DW_CFA_restore: r6 (rbp)
  DW_CFA_nop
  DW_CFA_nop
  DW_CFA_nop
  DW_CFA_nop
  DW_CFA_nop

00000388 000000000000002c 000002e4 FDE cie=000000a8 pc=000000000040599f..0000000000405faf
  DW_CFA_advance_loc: 1 to 00000000004059a0
  DW_CFA_def_cfa_offset: 16
  DW_CFA_advance_loc: 3 to 00000000004059a3
  DW_CFA_def_cfa: r6 (rbp) ofs 16
  DW_CFA_offset: r6 (rbp) at cfa-16
  DW_CFA_advance_loc1: 167 to 0000000000405a4a
  DW_CFA_offset: r3 (rbx) at cfa-24
  DW_CFA_advance_loc2: 1379 to 0000000000405fad
  DW_CFA_restore: r3 (rbx)
  DW_CFA_advance_loc: 1 to 0000000000405fae
  DW_CFA_restore: r6 (rbp)
  DW_CFA_nop
  DW_CFA_nop
  DW_CFA_nop
  DW_CFA_nop
  DW_CFA_nop

000003b8 000000000000002c 00000314 FDE cie=000000a8 pc=0000000000405faf..00000000004062a0
  DW_CFA_advance_loc: 1 to 0000000000405fb0
  DW_CFA_def_cfa_offset: 16
  DW_CFA_advance_loc: 3 to 0000000000405fb3
  DW_CFA_def_cfa: r6 (rbp) ofs 16
  DW_CFA_offset: r6 (rbp) at cfa-16
  DW_CFA_advance_loc1: 79 to 0000000000406002
  DW_CFA_offset: r3 (rbx) at cfa-24
  DW_CFA_advance_loc2: 668 to 000000000040629e
  DW_CFA_restore: r3 (rbx)
  DW_CFA_advance_loc: 1 to 000000000040629f
  DW_CFA_restore: r6 (rbp)
  DW_CFA_nop
  DW_CFA_nop
  DW_CFA_nop
  DW_CFA_nop
  DW_CFA_nop

000003e8 000000000000002c 00000344 FDE cie=000000a8 pc=00000000004062a0..00000000004069a5
  DW_CFA_advance_loc: 1 to 00000000004062a1
  DW_CFA_def_cfa_offset: 16
  DW_CFA_advance_loc: 3 to 00000000004062a4
  DW_CFA_def_cfa: r6 (rbp) ofs 16
  DW_CFA_offset: r6 (rbp) at cfa-16
  DW_CFA_advance_loc2: 264 to 00000000004063ac
  DW_CFA_offset: r3 (rbx) at cfa-32
  DW_CFA_advance_loc2: 1527 to 00000000004069a3
  DW_CFA_restore: r3 (rbx)
  DW_CFA_advance_loc: 1 to 00000000004069a4
  DW_CFA_restore: r6 (rbp)
  DW_CFA_nop
  DW_CFA_nop
  DW_CFA_nop
  DW_CFA_nop

00000418 0000000000000024 00000374 FDE cie=000000a8 pc=00000000004069a5..000000000040709f
  DW_CFA_advance_loc: 1 to 00000000004069a6
  DW_CFA_def_cfa_offset: 16
  DW_CFA_advance_loc: 3 to 00000000004069a9
  DW_CFA_def_cfa: r6 (rbp) ofs 16
  DW_CFA_offset: r6 (rbp) at cfa-16
  DW_CFA_advance_loc2: 1781 to 000000000040709e
  DW_CFA_restore: r6 (rbp)
  DW_CFA_nop
  DW_CFA_nop
  DW_CFA_nop

00000440 0000000000000024 0000039c FDE cie=000000a8 pc=000000000040709f..0000000000407791
  DW_CFA_advance_loc: 1 to 00000000004070a0
  DW_CFA_def_cfa_offset: 16
  DW_CFA_advance_loc: 3 to 00000000004070a3
  DW_CFA_def_cfa: r6 (rbp) ofs 16
  DW_CFA_offset: r6 (rbp) at cfa-16
  DW_CFA_advance_loc2: 1773 to 0000000000407790
  DW_CFA_restore: r6 (rbp)
  DW_CFA_nop
  DW_CFA_nop
  DW_CFA_nop

00000468 0000000000000024 000003c4 FDE cie=000000a8 pc=0000000000407791..0000000000407a35
  DW_CFA_advance_loc: 1 to 0000000000407792
  DW_CFA_def_cfa_offset: 16
  DW_CFA_advance_loc: 3 to 0000000000407795
  DW_CFA_def_cfa: r6 (rbp) ofs 16
  DW_CFA_offset: r6 (rbp) at cfa-16
  DW_CFA_advance_loc2: 671 to 0000000000407a34
  DW_CFA_restore: r6 (rbp)
  DW_CFA_nop
  DW_CFA_nop
  DW_CFA_nop

00000490 0000000000000024 000003ec FDE cie=000000a8 pc=0000000000407a35..0000000000407ece
  DW_CFA_advance_loc: 1 to 0000000000407a36
  DW_CFA_def_cfa_offset: 16
  DW_CFA_advance_loc: 3 to 0000000000407a39
  DW_CFA_def_cfa: r6 (rbp) ofs 16
  DW_CFA_offset: r6 (rbp) at cfa-16
  DW_CFA_advance_loc2: 1172 to 0000000000407ecd
  DW_CFA_restore: r6 (rbp)
  DW_CFA_nop
  DW_CFA_nop
  DW_CFA_nop

000004b8 000000000000002c 00000414 FDE cie=000000a8 pc=0000000000407ece..00000000004084bb
  DW_CFA_advance_loc: 1 to 0000000000407ecf
  DW_CFA_def_cfa_offset: 16
  DW_CFA_advance_loc: 3 to 0000000000407ed2
  DW_CFA_def_cfa: r6 (rbp) ofs 16
  DW_CFA_offset: r6 (rbp) at cfa-16
  DW_CFA_advance_loc1: 88 to 0000000000407f2a
  DW_CFA_offset: r3 (rbx) at cfa-24
  DW_CFA_advance_loc2: 1423 to 00000000004084b9
  DW_CFA_restore: r3 (rbx)
  DW_CFA_advance_loc: 1 to 00000000004084ba
  DW_CFA_restore: r6 (rbp)
  DW_CFA_nop
  DW_CFA_nop
  DW_CFA_nop
  DW_CFA_nop
  DW_CFA_nop

000004e8 0000000000000024 00000444 FDE cie=000000a8 pc=00000000004084bb..0000000000408939
  DW_CFA_advance_loc: 1 to 00000000004084bc
  DW_CFA_def_cfa_offset: 16
  DW_CFA_advance_loc: 3 to 00000000004084bf
  DW_CFA_def_cfa: r6 (rbp) ofs 16
  DW_CFA_offset: r6 (rbp) at cfa-16
  DW_CFA_advance_loc2: 1145 to 0000000000408938
  DW_CFA_restore: r6 (rbp)
  DW_CFA_nop
  DW_CFA_nop
  DW_CFA_nop

00000510 000000000000002c 0000046c FDE cie=000000a8 pc=0000000000408939..0000000000408c3d
  DW_CFA_advance_loc: 1 to 000000000040893a
  DW_CFA_def_cfa_offset: 16
  DW_CFA_advance_loc: 3 to 000000000040893d
  DW_CFA_def_cfa: r6 (rbp) ofs 16
  DW_CFA_offset: r6 (rbp) at cfa-16
  DW_CFA_advance_loc1: 86 to 0000000000408993
  DW_CFA_offset: r3 (rbx) at cfa-32
  DW_CFA_advance_loc2: 680 to 0000000000408c3b
  DW_CFA_restore: r3 (rbx)
  DW_CFA_advance_loc: 1 to 0000000000408c3c
  DW_CFA_restore: r6 (rbp)
  DW_CFA_nop
  DW_CFA_nop
  DW_CFA_nop
  DW_CFA_nop
  DW_CFA_nop

00000540 000000000000002c 0000049c FDE cie=000000a8 pc=0000000000408c3d..0000000000408e4d
  DW_CFA_advance_loc: 1 to 0000000000408c3e
  DW_CFA_def_cfa_offset: 16
  DW_CFA_advance_loc: 3 to 0000000000408c41
  DW_CFA_def_cfa: r6 (rbp) ofs 16
  DW_CFA_offset: r6 (rbp) at cfa-16
  DW_CFA_advance_loc1: 187 to 0000000000408cfc
  DW_CFA_offset: r3 (rbx) at cfa-24
  DW_CFA_advance_loc2: 335 to 0000000000408e4b
  DW_CFA_restore: r3 (rbx)
  DW_CFA_advance_loc: 1 to 0000000000408e4c
  DW_CFA_restore: r6 (rbp)
  DW_CFA_nop
  DW_CFA_nop
  DW_CFA_nop
  DW_CFA_nop
  DW_CFA_nop

00000570 000000000000002c 000004cc FDE cie=000000a8 pc=0000000000408e4d..0000000000409151
  DW_CFA_advance_loc: 1 to 0000000000408e4e
  DW_CFA_def_cfa_offset: 16
  DW_CFA_advance_loc: 3 to 0000000000408e51
  DW_CFA_def_cfa: r6 (rbp) ofs 16
  DW_CFA_offset: r6 (rbp) at cfa-16
  DW_CFA_advance_loc1: 86 to 0000000000408ea7
  DW_CFA_offset: r3 (rbx) at cfa-32
  DW_CFA_advance_loc2: 680 to 000000000040914f
  DW_CFA_restore: r3 (rbx)
  DW_CFA_advance_loc: 1 to 0000000000409150
  DW_CFA_restore: r6 (rbp)
  DW_CFA_nop
  DW_CFA_nop
  DW_CFA_nop
  DW_CFA_nop
  DW_CFA_nop

000005a0 000000000000002c 000004fc FDE cie=000000a8 pc=0000000000409151..000000000040948b
  DW_CFA_advance_loc: 1 to 0000000000409152
  DW_CFA_def_cfa_offset: 16
  DW_CFA_advance_loc: 3 to 0000000000409155
  DW_CFA_def_cfa: r6 (rbp) ofs 16
  DW_CFA_offset: r6 (rbp) at cfa-16
  DW_CFA_advance_loc1: 187 to 0000000000409210
  DW_CFA_offset: r3 (rbx) at cfa-32
  DW_CFA_advance_loc2: 633 to 0000000000409489
  DW_CFA_restore: r3 (rbx)
  DW_CFA_advance_loc: 1 to 000000000040948a
  DW_CFA_restore: r6 (rbp)
  DW_CFA_nop
  DW_CFA_nop
  DW_CFA_nop
  DW_CFA_nop
  DW_CFA_nop

000005d0 000000000000002c 0000052c FDE cie=000000a8 pc=000000000040948b..0000000000409b18
  DW_CFA_advance_loc: 1 to 000000000040948c
  DW_CFA_def_cfa_offset: 16
  DW_CFA_advance_loc: 3 to 000000000040948f
  DW_CFA_def_cfa: r6 (rbp) ofs 16
  DW_CFA_offset: r6 (rbp) at cfa-16
  DW_CFA_advance_loc2: 313 to 00000000004095c8
  DW_CFA_offset: r3 (rbx) at cfa-24
  DW_CFA_advance_loc2: 1358 to 0000000000409b16
  DW_CFA_restore: r3 (rbx)
  DW_CFA_advance_loc: 1 to 0000000000409b17
  DW_CFA_restore: r6 (rbp)
  DW_CFA_nop
  DW_CFA_nop
  DW_CFA_nop
  DW_CFA_nop

00000600 000000000000002c 0000055c FDE cie=000000a8 pc=0000000000409b18..000000000040a1e4
  DW_CFA_advance_loc: 1 to 0000000000409b19
  DW_CFA_def_cfa_offset: 16
  DW_CFA_advance_loc: 3 to 0000000000409b1c
  DW_CFA_def_cfa: r6 (rbp) ofs 16
  DW_CFA_offset: r6 (rbp) at cfa-16
  DW_CFA_advance_loc2: 384 to 0000000000409c9c
  DW_CFA_offset: r3 (rbx) at cfa-24
  DW_CFA_advance_loc2: 1350 to 000000000040a1e2
  DW_CFA_restore: r3 (rbx)
  DW_CFA_advance_loc: 1 to 000000000040a1e3
  DW_CFA_restore: r6 (rbp)
  DW_CFA_nop
  DW_CFA_nop
  DW_CFA_nop
  DW_CFA_nop

00000630 000000000000002c 0000058c FDE cie=000000a8 pc=000000000040a1e4..000000000040a872
  DW_CFA_advance_loc: 1 to 000000000040a1e5
  DW_CFA_def_cfa_offset: 16
  DW_CFA_advance_loc: 3 to 000000000040a1e8
  DW_CFA_def_cfa: r6 (rbp) ofs 16
  DW_CFA_offset: r6 (rbp) at cfa-16
  DW_CFA_advance_loc2: 314 to 000000000040a322
  DW_CFA_offset: r3 (rbx) at cfa-24
  DW_CFA_advance_loc2: 1358 to 000000000040a870
  DW_CFA_restore: r3 (rbx)
  DW_CFA_advance_loc: 1 to 000000000040a871
  DW_CFA_restore: r6 (rbp)
  DW_CFA_nop
  DW_CFA_nop
  DW_CFA_nop
  DW_CFA_nop

00000660 000000000000002c 000005bc FDE cie=000000a8 pc=000000000040a872..000000000040b257
  DW_CFA_advance_loc: 1 to 000000000040a873
  DW_CFA_def_cfa_offset: 16
  DW_CFA_advance_loc: 3 to 000000000040a876
  DW_CFA_def_cfa: r6 (rbp) ofs 16
  DW_CFA_offset: r6 (rbp) at cfa-16
  DW_CFA_advance_loc2: 459 to 000000000040aa41
  DW_CFA_offset: r3 (rbx) at cfa-32
  DW_CFA_advance_loc2: 2068 to 000000000040b255
  DW_CFA_restore: r3 (rbx)
  DW_CFA_advance_loc: 1 to 000000000040b256
  DW_CFA_restore: r6 (rbp)
  DW_CFA_nop
  DW_CFA_nop
  DW_CFA_nop
  DW_CFA_nop

00000690 000000000000002c 000005ec FDE cie=000000a8 pc=000000000040b257..000000000040b948
  DW_CFA_advance_loc: 1 to 000000000040b258
  DW_CFA_def_cfa_offset: 16
  DW_CFA_advance_loc: 3 to 000000000040b25b
  DW_CFA_def_cfa: r6 (rbp) ofs 16
  DW_CFA_offset: r6 (rbp) at cfa-16
  DW_CFA_advance_loc2: 331 to 000000000040b3a6
  DW_CFA_offset: r3 (rbx) at cfa-32
  DW_CFA_advance_loc2: 1440 to 000000000040b946
  DW_CFA_restore: r3 (rbx)
  DW_CFA_advance_loc: 1 to 000000000040b947
  DW_CFA_restore: r6 (rbp)
  DW_CFA_nop
  DW_CFA_nop
  DW_CFA_nop
  DW_CFA_nop

000006c0 0000000000000024 0000061c FDE cie=000000a8 pc=000000000040b948..000000000040badc
  DW_CFA_advance_loc: 1 to 000000000040b949
  DW_CFA_def_cfa_offset: 16
  DW_CFA_advance_loc: 3 to 000000000040b94c
  DW_CFA_def_cfa: r6 (rbp) ofs 16
  DW_CFA_offset: r6 (rbp) at cfa-16
  DW_CFA_advance_loc2: 399 to 000000000040badb
  DW_CFA_restore: r6 (rbp)
  DW_CFA_nop
  DW_CFA_nop
  DW_CFA_nop

000006e8 0000000000000024 00000644 FDE cie=000000a8 pc=000000000040badc..000000000040bc0f
  DW_CFA_advance_loc: 1 to 000000000040badd
  DW_CFA_def_cfa_offset: 16
  DW_CFA_advance_loc: 3 to 000000000040bae0
  DW_CFA_def_cfa: r6 (rbp) ofs 16
  DW_CFA_offset: r6 (rbp) at cfa-16
  DW_CFA_advance_loc2: 302 to 000000000040bc0e
  DW_CFA_restore: r6 (rbp)
  DW_CFA_nop
  DW_CFA_nop
  DW_CFA_nop

00000710 0000000000000024 0000066c FDE cie=000000a8 pc=000000000040bc0f..000000000040bd7c
  DW_CFA_advance_loc: 1 to 000000000040bc10
  DW_CFA_def_cfa_offset: 16
  DW_CFA_advance_loc: 3 to 000000000040bc13
  DW_CFA_def_cfa: r6 (rbp) ofs 16
  DW_CFA_offset: r6 (rbp) at cfa-16
  DW_CFA_advance_loc2: 360 to 000000000040bd7b
  DW_CFA_restore: r6 (rbp)
  DW_CFA_nop
  DW_CFA_nop
  DW_CFA_nop

00000738 0000000000000024 00000694 FDE cie=000000a8 pc=000000000040bd7c..000000000040bf47
  DW_CFA_advance_loc: 1 to 000000000040bd7d
  DW_CFA_def_cfa_offset: 16
  DW_CFA_advance_loc: 3 to 000000000040bd80
  DW_CFA_def_cfa: r6 (rbp) ofs 16
  DW_CFA_offset: r6 (rbp) at cfa-16
  DW_CFA_advance_loc2: 454 to 000000000040bf46
  DW_CFA_restore: r6 (rbp)
  DW_CFA_nop
  DW_CFA_nop
  DW_CFA_nop

00000760 0000000000000024 000006bc FDE cie=000000a8 pc=000000000040bf47..000000000040c4d5
  DW_CFA_advance_loc: 1 to 000000000040bf48
  DW_CFA_def_cfa_offset: 16
  DW_CFA_advance_loc: 3 to 000000000040bf4b
  DW_CFA_def_cfa: r6 (rbp) ofs 16
  DW_CFA_offset: r6 (rbp) at cfa-16
  DW_CFA_advance_loc2: 1417 to 000000000040c4d4
  DW_CFA_restore: r6 (rbp)
  DW_CFA_nop
  DW_CFA_nop
  DW_CFA_nop

00000788 000000000000002c 000006e4 FDE cie=000000a8 pc=000000000040c4d5..000000000040cdd8
  DW_CFA_advance_loc: 1 to 000000000040c4d6
  DW_CFA_def_cfa_offset: 16
  DW_CFA_advance_loc: 3 to 000000000040c4d9
  DW_CFA_def_cfa: r6 (rbp) ofs 16
  DW_CFA_offset: r6 (rbp) at cfa-16
  DW_CFA_advance_loc2: 555 to 000000000040c704
  DW_CFA_offset: r3 (rbx) at cfa-32
  DW_CFA_advance_loc2: 1746 to 000000000040cdd6
  DW_CFA_restore: r3 (rbx)
  DW_CFA_advance_loc: 1 to 000000000040cdd7
  DW_CFA_restore: r6 (rbp)
  DW_CFA_nop
  DW_CFA_nop
  DW_CFA_nop
  DW_CFA_nop

000007b8 000000000000002c 00000714 FDE cie=000000a8 pc=000000000040cdd8..000000000040d818
  DW_CFA_advance_loc: 1 to 000000000040cdd9
  DW_CFA_def_cfa_offset: 16
  DW_CFA_advance_loc: 3 to 000000000040cddc
  DW_CFA_def_cfa: r6 (rbp) ofs 16
  DW_CFA_offset: r6 (rbp) at cfa-16
  DW_CFA_advance_loc2: 555 to 000000000040d007
  DW_CFA_offset: r3 (rbx) at cfa-32
  DW_CFA_advance_loc2: 2063 to 000000000040d816
  DW_CFA_restore: r3 (rbx)
  DW_CFA_advance_loc: 1 to 000000000040d817
  DW_CFA_restore: r6 (rbp)
  DW_CFA_nop
  DW_CFA_nop
  DW_CFA_nop
  DW_CFA_nop

000007e8 000000000000002c 00000744 FDE cie=000000a8 pc=000000000040d818..000000000040dc01
  DW_CFA_advance_loc: 1 to 000000000040d819
  DW_CFA_def_cfa_offset: 16
  DW_CFA_advance_loc: 3 to 000000000040d81c
  DW_CFA_def_cfa: r6 (rbp) ofs 16
  DW_CFA_offset: r6 (rbp) at cfa-16
  DW_CFA_advance_loc2: 394 to 000000000040d9a6
  DW_CFA_offset: r3 (rbx) at cfa-32
  DW_CFA_advance_loc2: 601 to 000000000040dbff
  DW_CFA_restore: r3 (rbx)
  DW_CFA_advance_loc: 1 to 000000000040dc00
  DW_CFA_restore: r6 (rbp)
  DW_CFA_nop
  DW_CFA_nop
  DW_CFA_nop
  DW_CFA_nop

00000818 000000000000002c 00000774 FDE cie=000000a8 pc=000000000040dc01..000000000040dfea
  DW_CFA_advance_loc: 1 to 000000000040dc02
  DW_CFA_def_cfa_offset: 16
  DW_CFA_advance_loc: 3 to 000000000040dc05
  DW_CFA_def_cfa: r6 (rbp) ofs 16
  DW_CFA_offset: r6 (rbp) at cfa-16
  DW_CFA_advance_loc2: 394 to 000000000040dd8f
  DW_CFA_offset: r3 (rbx) at cfa-32
  DW_CFA_advance_loc2: 601 to 000000000040dfe8
  DW_CFA_restore: r3 (rbx)
  DW_CFA_advance_loc: 1 to 000000000040dfe9
  DW_CFA_restore: r6 (rbp)
  DW_CFA_nop
  DW_CFA_nop
  DW_CFA_nop
  DW_CFA_nop

00000848 000000000000002c 000007a4 FDE cie=000000a8 pc=000000000040dfea..000000000040e3fa
  DW_CFA_advance_loc: 1 to 000000000040dfeb
  DW_CFA_def_cfa_offset: 16
  DW_CFA_advance_loc: 3 to 000000000040dfee
  DW_CFA_def_cfa: r6 (rbp) ofs 16
  DW_CFA_offset: r6 (rbp) at cfa-16
  DW_CFA_advance_loc2: 403 to 000000000040e181
  DW_CFA_offset: r3 (rbx) at cfa-32
  DW_CFA_advance_loc2: 631 to 000000000040e3f8
  DW_CFA_restore: r3 (rbx)
  DW_CFA_advance_loc: 1 to 000000000040e3f9
  DW_CFA_restore: r6 (rbp)
  DW_CFA_nop
  DW_CFA_nop
  DW_CFA_nop
  DW_CFA_nop

00000878 000000000000002c 000007d4 FDE cie=000000a8 pc=000000000040e3fa..000000000040e80a
  DW_CFA_advance_loc: 1 to 000000000040e3fb
  DW_CFA_def_cfa_offset: 16
  DW_CFA_advance_loc: 3 to 000000000040e3fe
  DW_CFA_def_cfa: r6 (rbp) ofs 16
  DW_CFA_offset: r6 (rbp) at cfa-16
  DW_CFA_advance_loc2: 403 to 000000000040e591
  DW_CFA_offset: r3 (rbx) at cfa-32
  DW_CFA_advance_loc2: 631 to 000000000040e808
  DW_CFA_restore: r3 (rbx)
  DW_CFA_advance_loc: 1 to 000000000040e809
  DW_CFA_restore: r6 (rbp)
  DW_CFA_nop
  DW_CFA_nop
  DW_CFA_nop
  DW_CFA_nop

000008a8 0000000000000024 00000804 FDE cie=000000a8 pc=000000000040e80c..000000000040e874
  DW_CFA_advance_loc: 1 to 000000000040e80d
  DW_CFA_def_cfa_offset: 16
  DW_CFA_advance_loc: 3 to 000000000040e810
  DW_CFA_def_cfa: r6 (rbp) ofs 16
  DW_CFA_offset: r6 (rbp) at cfa-16
  DW_CFA_advance_loc1: 99 to 000000000040e873
  DW_CFA_restore: r6 (rbp)
  DW_CFA_nop
  DW_CFA_nop
  DW_CFA_nop
  DW_CFA_nop

000008d0 0000000000000024 0000082c FDE cie=000000a8 pc=000000000040e874..000000000040e8f9
  DW_CFA_advance_loc: 1 to 000000000040e875
  DW_CFA_def_cfa_offset: 16
  DW_CFA_advance_loc: 3 to 000000000040e878
  DW_CFA_def_cfa: r6 (rbp) ofs 16
  DW_CFA_offset: r6 (rbp) at cfa-16
  DW_CFA_advance_loc1: 128 to 000000000040e8f8
  DW_CFA_restore: r6 (rbp)
  DW_CFA_nop
  DW_CFA_nop
  DW_CFA_nop
  DW_CFA_nop

000008f8 0000000000000024 00000854 FDE cie=000000a8 pc=000000000040e8f9..000000000040e979
  DW_CFA_advance_loc: 1 to 000000000040e8fa
  DW_CFA_def_cfa_offset: 16
  DW_CFA_advance_loc: 3 to 000000000040e8fd
  DW_CFA_def_cfa: r6 (rbp) ofs 16
  DW_CFA_offset: r6 (rbp) at cfa-16
  DW_CFA_advance_loc1: 123 to 000000000040e978
  DW_CFA_restore: r6 (rbp)
  DW_CFA_nop
  DW_CFA_nop
  DW_CFA_nop
  DW_CFA_nop

00000920 0000000000000024 0000087c FDE cie=000000a8 pc=000000000040e979..000000000040ea03
  DW_CFA_advance_loc: 1 to 000000000040e97a
  DW_CFA_def_cfa_offset: 16
  DW_CFA_advance_loc: 3 to 000000000040e97d
  DW_CFA_def_cfa: r6 (rbp) ofs 16
  DW_CFA_offset: r6 (rbp) at cfa-16
  DW_CFA_advance_loc1: 133 to 000000000040ea02
  DW_CFA_restore: r6 (rbp)
  DW_CFA_nop
  DW_CFA_nop
  DW_CFA_nop
  DW_CFA_nop

00000948 0000000000000024 000008a4 FDE cie=000000a8 pc=000000000040ea03..000000000040ea89
  DW_CFA_advance_loc: 1 to 000000000040ea04
  DW_CFA_def_cfa_offset: 16
  DW_CFA_advance_loc: 3 to 000000000040ea07
  DW_CFA_def_cfa: r6 (rbp) ofs 16
  DW_CFA_offset: r6 (rbp) at cfa-16
  DW_CFA_advance_loc1: 129 to 000000000040ea88
  DW_CFA_restore: r6 (rbp)
  DW_CFA_nop
  DW_CFA_nop
  DW_CFA_nop
  DW_CFA_nop

00000970 0000000000000024 000008cc FDE cie=000000a8 pc=000000000040ea89..000000000040eb21
  DW_CFA_advance_loc: 1 to 000000000040ea8a
  DW_CFA_def_cfa_offset: 16
  DW_CFA_advance_loc: 3 to 000000000040ea8d
  DW_CFA_def_cfa: r6 (rbp) ofs 16
  DW_CFA_offset: r6 (rbp) at cfa-16
  DW_CFA_advance_loc1: 147 to 000000000040eb20
  DW_CFA_restore: r6 (rbp)
  DW_CFA_nop
  DW_CFA_nop
  DW_CFA_nop
  DW_CFA_nop

00000998 0000000000000024 000008f4 FDE cie=000000a8 pc=000000000040eb21..000000000040ebbd
  DW_CFA_advance_loc: 1 to 000000000040eb22
  DW_CFA_def_cfa_offset: 16
  DW_CFA_advance_loc: 3 to 000000000040eb25
  DW_CFA_def_cfa: r6 (rbp) ofs 16
  DW_CFA_offset: r6 (rbp) at cfa-16
  DW_CFA_advance_loc1: 151 to 000000000040ebbc
  DW_CFA_restore: r6 (rbp)
  DW_CFA_nop
  DW_CFA_nop
  DW_CFA_nop
  DW_CFA_nop

000009c0 0000000000000024 0000091c FDE cie=000000a8 pc=000000000040ebbd..000000000040ec7b
  DW_CFA_advance_loc: 1 to 000000000040ebbe
  DW_CFA_def_cfa_offset: 16
  DW_CFA_advance_loc: 3 to 000000000040ebc1
  DW_CFA_def_cfa: r6 (rbp) ofs 16
  DW_CFA_offset: r6 (rbp) at cfa-16
  DW_CFA_advance_loc1: 185 to 000000000040ec7a
  DW_CFA_restore: r6 (rbp)
  DW_CFA_nop
  DW_CFA_nop
  DW_CFA_nop
  DW_CFA_nop

000009e8 0000000000000024 00000944 FDE cie=000000a8 pc=000000000040ec7b..000000000040ed35
  DW_CFA_advance_loc: 1 to 000000000040ec7c
  DW_CFA_def_cfa_offset: 16
  DW_CFA_advance_loc: 3 to 000000000040ec7f
  DW_CFA_def_cfa: r6 (rbp) ofs 16
  DW_CFA_offset: r6 (rbp) at cfa-16
  DW_CFA_advance_loc1: 181 to 000000000040ed34
  DW_CFA_restore: r6 (rbp)
  DW_CFA_nop
  DW_CFA_nop
  DW_CFA_nop
  DW_CFA_nop

00000a10 0000000000000024 0000096c FDE cie=000000a8 pc=000000000040ed35..000000000040ee11
  DW_CFA_advance_loc: 1 to 000000000040ed36
  DW_CFA_def_cfa_offset: 16
  DW_CFA_advance_loc: 3 to 000000000040ed39
  DW_CFA_def_cfa: r6 (rbp) ofs 16
  DW_CFA_offset: r6 (rbp) at cfa-16
  DW_CFA_advance_loc1: 215 to 000000000040ee10
  DW_CFA_restore: r6 (rbp)
  DW_CFA_nop
  DW_CFA_nop
  DW_CFA_nop
  DW_CFA_nop

00000a38 0000000000000024 00000994 FDE cie=000000a8 pc=000000000040ee11..000000000040eef1
  DW_CFA_advance_loc: 1 to 000000000040ee12
  DW_CFA_def_cfa_offset: 16
  DW_CFA_advance_loc: 3 to 000000000040ee15
  DW_CFA_def_cfa: r6 (rbp) ofs 16
  DW_CFA_offset: r6 (rbp) at cfa-16
  DW_CFA_advance_loc1: 219 to 000000000040eef0
  DW_CFA_restore: r6 (rbp)
  DW_CFA_nop
  DW_CFA_nop
  DW_CFA_nop
  DW_CFA_nop

00000a60 0000000000000024 000009bc FDE cie=000000a8 pc=000000000040eef1..000000000040ef89
  DW_CFA_advance_loc: 1 to 000000000040eef2
  DW_CFA_def_cfa_offset: 16
  DW_CFA_advance_loc: 3 to 000000000040eef5
  DW_CFA_def_cfa: r6 (rbp) ofs 16
  DW_CFA_offset: r6 (rbp) at cfa-16
  DW_CFA_advance_loc1: 147 to 000000000040ef88
  DW_CFA_restore: r6 (rbp)
  DW_CFA_nop
  DW_CFA_nop
  DW_CFA_nop
  DW_CFA_nop

00000a88 0000000000000024 000009e4 FDE cie=000000a8 pc=000000000040ef89..000000000040f025
  DW_CFA_advance_loc: 1 to 000000000040ef8a
  DW_CFA_def_cfa_offset: 16
  DW_CFA_advance_loc: 3 to 000000000040ef8d
  DW_CFA_def_cfa: r6 (rbp) ofs 16
  DW_CFA_offset: r6 (rbp) at cfa-16
  DW_CFA_advance_loc1: 151 to 000000000040f024
  DW_CFA_restore: r6 (rbp)
  DW_CFA_nop
  DW_CFA_nop
  DW_CFA_nop
  DW_CFA_nop

00000ab0 0000000000000024 00000a0c FDE cie=000000a8 pc=000000000040f025..000000000040f0df
  DW_CFA_advance_loc: 1 to 000000000040f026
  DW_CFA_def_cfa_offset: 16
  DW_CFA_advance_loc: 3 to 000000000040f029
  DW_CFA_def_cfa: r6 (rbp) ofs 16
  DW_CFA_offset: r6 (rbp) at cfa-16
  DW_CFA_advance_loc1: 181 to 000000000040f0de
  DW_CFA_restore: r6 (rbp)
  DW_CFA_nop
  DW_CFA_nop
  DW_CFA_nop
  DW_CFA_nop

00000ad8 0000000000000024 00000a34 FDE cie=000000a8 pc=000000000040f0df..000000000040f1bb
  DW_CFA_advance_loc: 1 to 000000000040f0e0
  DW_CFA_def_cfa_offset: 16
  DW_CFA_advance_loc: 3 to 000000000040f0e3
  DW_CFA_def_cfa: r6 (rbp) ofs 16
  DW_CFA_offset: r6 (rbp) at cfa-16
  DW_CFA_advance_loc1: 215 to 000000000040f1ba
  DW_CFA_restore: r6 (rbp)
  DW_CFA_nop
  DW_CFA_nop
  DW_CFA_nop
  DW_CFA_nop

00000b00 0000000000000024 00000a5c FDE cie=000000a8 pc=000000000040f1bb..000000000040f21b
  DW_CFA_advance_loc: 1 to 000000000040f1bc
  DW_CFA_def_cfa_offset: 16
  DW_CFA_advance_loc: 3 to 000000000040f1bf
  DW_CFA_def_cfa: r6 (rbp) ofs 16
  DW_CFA_offset: r6 (rbp) at cfa-16
  DW_CFA_advance_loc1: 91 to 000000000040f21a
  DW_CFA_restore: r6 (rbp)
  DW_CFA_nop
  DW_CFA_nop
  DW_CFA_nop
  DW_CFA_nop

00000b28 0000000000000024 00000a84 FDE cie=000000a8 pc=000000000040f21b..000000000040f279
  DW_CFA_advance_loc: 1 to 000000000040f21c
  DW_CFA_def_cfa_offset: 16
  DW_CFA_advance_loc: 3 to 000000000040f21f
  DW_CFA_def_cfa: r6 (rbp) ofs 16
  DW_CFA_offset: r6 (rbp) at cfa-16
  DW_CFA_advance_loc1: 89 to 000000000040f278
  DW_CFA_restore: r6 (rbp)
  DW_CFA_nop
  DW_CFA_nop
  DW_CFA_nop
  DW_CFA_nop

00000b50 0000000000000024 00000aac FDE cie=000000a8 pc=000000000040f279..000000000040f2d7
  DW_CFA_advance_loc: 1 to 000000000040f27a
  DW_CFA_def_cfa_offset: 16
  DW_CFA_advance_loc: 3 to 000000000040f27d
  DW_CFA_def_cfa: r6 (rbp) ofs 16
  DW_CFA_offset: r6 (rbp) at cfa-16
  DW_CFA_advance_loc1: 89 to 000000000040f2d6
  DW_CFA_restore: r6 (rbp)
  DW_CFA_nop
  DW_CFA_nop
  DW_CFA_nop
  DW_CFA_nop

00000b78 0000000000000024 00000ad4 FDE cie=000000a8 pc=000000000040f2d7..000000000040f33b
  DW_CFA_advance_loc: 1 to 000000000040f2d8
  DW_CFA_def_cfa_offset: 16
  DW_CFA_advance_loc: 3 to 000000000040f2db
  DW_CFA_def_cfa: r6 (rbp) ofs 16
  DW_CFA_offset: r6 (rbp) at cfa-16
  DW_CFA_advance_loc1: 95 to 000000000040f33a
  DW_CFA_restore: r6 (rbp)
  DW_CFA_nop
  DW_CFA_nop
  DW_CFA_nop
  DW_CFA_nop

00000ba0 0000000000000024 00000afc FDE cie=000000a8 pc=000000000040f33b..000000000040f3a3
  DW_CFA_advance_loc: 1 to 000000000040f33c
  DW_CFA_def_cfa_offset: 16
  DW_CFA_advance_loc: 3 to 000000000040f33f
  DW_CFA_def_cfa: r6 (rbp) ofs 16
  DW_CFA_offset: r6 (rbp) at cfa-16
  DW_CFA_advance_loc1: 99 to 000000000040f3a2
  DW_CFA_restore: r6 (rbp)
  DW_CFA_nop
  DW_CFA_nop
  DW_CFA_nop
  DW_CFA_nop

00000bc8 0000000000000024 00000b24 FDE cie=000000a8 pc=000000000040f3a3..000000000040f407
  DW_CFA_advance_loc: 1 to 000000000040f3a4
  DW_CFA_def_cfa_offset: 16
  DW_CFA_advance_loc: 3 to 000000000040f3a7
  DW_CFA_def_cfa: r6 (rbp) ofs 16
  DW_CFA_offset: r6 (rbp) at cfa-16
  DW_CFA_advance_loc1: 95 to 000000000040f406
  DW_CFA_restore: r6 (rbp)
  DW_CFA_nop
  DW_CFA_nop
  DW_CFA_nop
  DW_CFA_nop

00000bf0 0000000000000024 00000b4c FDE cie=000000a8 pc=000000000040f407..000000000040f47d
  DW_CFA_advance_loc: 1 to 000000000040f408
  DW_CFA_def_cfa_offset: 16
  DW_CFA_advance_loc: 3 to 000000000040f40b
  DW_CFA_def_cfa: r6 (rbp) ofs 16
  DW_CFA_offset: r6 (rbp) at cfa-16
  DW_CFA_advance_loc1: 113 to 000000000040f47c
  DW_CFA_restore: r6 (rbp)
  DW_CFA_nop
  DW_CFA_nop
  DW_CFA_nop
  DW_CFA_nop

00000c18 0000000000000024 00000b74 FDE cie=000000a8 pc=000000000040f47d..000000000040f4ee
  DW_CFA_advance_loc: 1 to 000000000040f47e
  DW_CFA_def_cfa_offset: 16
  DW_CFA_advance_loc: 3 to 000000000040f481
  DW_CFA_def_cfa: r6 (rbp) ofs 16
  DW_CFA_offset: r6 (rbp) at cfa-16
  DW_CFA_advance_loc1: 108 to 000000000040f4ed
  DW_CFA_restore: r6 (rbp)
  DW_CFA_nop
  DW_CFA_nop
  DW_CFA_nop
  DW_CFA_nop

00000c40 0000000000000024 00000b9c FDE cie=000000a8 pc=000000000040f4ee..000000000040f560
  DW_CFA_advance_loc: 1 to 000000000040f4ef
  DW_CFA_def_cfa_offset: 16
  DW_CFA_advance_loc: 3 to 000000000040f4f2
  DW_CFA_def_cfa: r6 (rbp) ofs 16
  DW_CFA_offset: r6 (rbp) at cfa-16
  DW_CFA_advance_loc1: 109 to 000000000040f55f
  DW_CFA_restore: r6 (rbp)
  DW_CFA_nop
  DW_CFA_nop
  DW_CFA_nop
  DW_CFA_nop

00000c68 0000000000000024 00000bc4 FDE cie=000000a8 pc=000000000040f560..000000000040f5d4
  DW_CFA_advance_loc: 1 to 000000000040f561
  DW_CFA_def_cfa_offset: 16
  DW_CFA_advance_loc: 3 to 000000000040f564
  DW_CFA_def_cfa: r6 (rbp) ofs 16
  DW_CFA_offset: r6 (rbp) at cfa-16
  DW_CFA_advance_loc1: 111 to 000000000040f5d3
  DW_CFA_restore: r6 (rbp)
  DW_CFA_nop
  DW_CFA_nop
  DW_CFA_nop
  DW_CFA_nop

00000c90 0000000000000024 00000bec FDE cie=000000a8 pc=000000000040f5d4..000000000040f656
  DW_CFA_advance_loc: 1 to 000000000040f5d5
  DW_CFA_def_cfa_offset: 16
  DW_CFA_advance_loc: 3 to 000000000040f5d8
  DW_CFA_def_cfa: r6 (rbp) ofs 16
  DW_CFA_offset: r6 (rbp) at cfa-16
  DW_CFA_advance_loc1: 125 to 000000000040f655
  DW_CFA_restore: r6 (rbp)
  DW_CFA_nop
  DW_CFA_nop
  DW_CFA_nop
  DW_CFA_nop

00000cb8 0000000000000024 00000c14 FDE cie=000000a8 pc=000000000040f656..000000000040f6e0
  DW_CFA_advance_loc: 1 to 000000000040f657
  DW_CFA_def_cfa_offset: 16
  DW_CFA_advance_loc: 3 to 000000000040f65a
  DW_CFA_def_cfa: r6 (rbp) ofs 16
  DW_CFA_offset: r6 (rbp) at cfa-16
  DW_CFA_advance_loc1: 133 to 000000000040f6df
  DW_CFA_restore: r6 (rbp)
  DW_CFA_nop
  DW_CFA_nop
  DW_CFA_nop
  DW_CFA_nop

00000ce0 0000000000000024 00000c3c FDE cie=000000a8 pc=000000000040f6e0..000000000040f76a
  DW_CFA_advance_loc: 1 to 000000000040f6e1
  DW_CFA_def_cfa_offset: 16
  DW_CFA_advance_loc: 3 to 000000000040f6e4
  DW_CFA_def_cfa: r6 (rbp) ofs 16
  DW_CFA_offset: r6 (rbp) at cfa-16
  DW_CFA_advance_loc1: 133 to 000000000040f769
  DW_CFA_restore: r6 (rbp)
  DW_CFA_nop
  DW_CFA_nop
  DW_CFA_nop
  DW_CFA_nop

00000d08 0000000000000024 00000c64 FDE cie=000000a8 pc=000000000040f76a..000000000040f7ea
  DW_CFA_advance_loc: 1 to 000000000040f76b
  DW_CFA_def_cfa_offset: 16
  DW_CFA_advance_loc: 3 to 000000000040f76e
  DW_CFA_def_cfa: r6 (rbp) ofs 16
  DW_CFA_offset: r6 (rbp) at cfa-16
  DW_CFA_advance_loc1: 123 to 000000000040f7e9
  DW_CFA_restore: r6 (rbp)
  DW_CFA_nop
  DW_CFA_nop
  DW_CFA_nop
  DW_CFA_nop

00000d30 0000000000000024 00000c8c FDE cie=000000a8 pc=000000000040f7ea..000000000040f878
  DW_CFA_advance_loc: 1 to 000000000040f7eb
  DW_CFA_def_cfa_offset: 16
  DW_CFA_advance_loc: 3 to 000000000040f7ee
  DW_CFA_def_cfa: r6 (rbp) ofs 16
  DW_CFA_offset: r6 (rbp) at cfa-16
  DW_CFA_advance_loc1: 137 to 000000000040f877
  DW_CFA_restore: r6 (rbp)
  DW_CFA_nop
  DW_CFA_nop
  DW_CFA_nop
  DW_CFA_nop

00000d58 0000000000000024 00000cb4 FDE cie=000000a8 pc=000000000040f878..000000000040f906
  DW_CFA_advance_loc: 1 to 000000000040f879
  DW_CFA_def_cfa_offset: 16
  DW_CFA_advance_loc: 3 to 000000000040f87c
  DW_CFA_def_cfa: r6 (rbp) ofs 16
  DW_CFA_offset: r6 (rbp) at cfa-16
  DW_CFA_advance_loc1: 137 to 000000000040f905
  DW_CFA_restore: r6 (rbp)
  DW_CFA_nop
  DW_CFA_nop
  DW_CFA_nop
  DW_CFA_nop

00000d80 0000000000000024 00000cdc FDE cie=000000a8 pc=000000000040f906..000000000040f9ba
  DW_CFA_advance_loc: 1 to 000000000040f907
  DW_CFA_def_cfa_offset: 16
  DW_CFA_advance_loc: 3 to 000000000040f90a
  DW_CFA_def_cfa: r6 (rbp) ofs 16
  DW_CFA_offset: r6 (rbp) at cfa-16
  DW_CFA_advance_loc1: 175 to 000000000040f9b9
  DW_CFA_restore: r6 (rbp)
  DW_CFA_nop
  DW_CFA_nop
  DW_CFA_nop
  DW_CFA_nop

00000da8 0000000000000024 00000d04 FDE cie=000000a8 pc=000000000040f9ba..000000000040fa6e
  DW_CFA_advance_loc: 1 to 000000000040f9bb
  DW_CFA_def_cfa_offset: 16
  DW_CFA_advance_loc: 3 to 000000000040f9be
  DW_CFA_def_cfa: r6 (rbp) ofs 16
  DW_CFA_offset: r6 (rbp) at cfa-16
  DW_CFA_advance_loc1: 175 to 000000000040fa6d
  DW_CFA_restore: r6 (rbp)
  DW_CFA_nop
  DW_CFA_nop
  DW_CFA_nop
  DW_CFA_nop

00000dd0 0000000000000024 00000d2c FDE cie=000000a8 pc=000000000040fa6e..000000000040faf4
  DW_CFA_advance_loc: 1 to 000000000040fa6f
  DW_CFA_def_cfa_offset: 16
  DW_CFA_advance_loc: 3 to 000000000040fa72
  DW_CFA_def_cfa: r6 (rbp) ofs 16
  DW_CFA_offset: r6 (rbp) at cfa-16
  DW_CFA_advance_loc1: 129 to 000000000040faf3
  DW_CFA_restore: r6 (rbp)
  DW_CFA_nop
  DW_CFA_nop
  DW_CFA_nop
  DW_CFA_nop

00000df8 0000000000000024 00000d54 FDE cie=000000a8 pc=000000000040faf4..000000000040fb86
  DW_CFA_advance_loc: 1 to 000000000040faf5
  DW_CFA_def_cfa_offset: 16
  DW_CFA_advance_loc: 3 to 000000000040faf8
  DW_CFA_def_cfa: r6 (rbp) ofs 16
  DW_CFA_offset: r6 (rbp) at cfa-16
  DW_CFA_advance_loc1: 141 to 000000000040fb85
  DW_CFA_restore: r6 (rbp)
  DW_CFA_nop
  DW_CFA_nop
  DW_CFA_nop
  DW_CFA_nop

00000e20 0000000000000024 00000d7c FDE cie=000000a8 pc=000000000040fb86..000000000040fc10
  DW_CFA_advance_loc: 1 to 000000000040fb87
  DW_CFA_def_cfa_offset: 16
  DW_CFA_advance_loc: 3 to 000000000040fb8a
  DW_CFA_def_cfa: r6 (rbp) ofs 16
  DW_CFA_offset: r6 (rbp) at cfa-16
  DW_CFA_advance_loc1: 133 to 000000000040fc0f
  DW_CFA_restore: r6 (rbp)
  DW_CFA_nop
  DW_CFA_nop
  DW_CFA_nop
  DW_CFA_nop

00000e48 0000000000000024 00000da4 FDE cie=000000a8 pc=000000000040fc10..000000000040fde4
  DW_CFA_advance_loc: 1 to 000000000040fc11
  DW_CFA_def_cfa_offset: 16
  DW_CFA_advance_loc: 3 to 000000000040fc14
  DW_CFA_def_cfa: r6 (rbp) ofs 16
  DW_CFA_offset: r6 (rbp) at cfa-16
  DW_CFA_advance_loc2: 463 to 000000000040fde3
  DW_CFA_restore: r6 (rbp)
  DW_CFA_nop
  DW_CFA_nop
  DW_CFA_nop

00000e70 0000000000000024 00000dcc FDE cie=000000a8 pc=000000000040fde4..000000000040fec4
  DW_CFA_advance_loc: 1 to 000000000040fde5
  DW_CFA_def_cfa_offset: 16
  DW_CFA_advance_loc: 3 to 000000000040fde8
  DW_CFA_def_cfa: r6 (rbp) ofs 16
  DW_CFA_offset: r6 (rbp) at cfa-16
  DW_CFA_advance_loc1: 219 to 000000000040fec3
  DW_CFA_restore: r6 (rbp)
  DW_CFA_nop
  DW_CFA_nop
  DW_CFA_nop
  DW_CFA_nop

00000e98 0000000000000024 00000df4 FDE cie=000000a8 pc=000000000040fec4..000000000040ffd8
  DW_CFA_advance_loc: 1 to 000000000040fec5
  DW_CFA_def_cfa_offset: 16
  DW_CFA_advance_loc: 3 to 000000000040fec8
  DW_CFA_def_cfa: r6 (rbp) ofs 16
  DW_CFA_offset: r6 (rbp) at cfa-16
  DW_CFA_advance_loc2: 271 to 000000000040ffd7
  DW_CFA_restore: r6 (rbp)
  DW_CFA_nop
  DW_CFA_nop
  DW_CFA_nop

00000ec0 0000000000000024 00000e1c FDE cie=000000a8 pc=000000000040ffd8..0000000000410333
  DW_CFA_advance_loc: 1 to 000000000040ffd9
  DW_CFA_def_cfa_offset: 16
  DW_CFA_advance_loc: 3 to 000000000040ffdc
  DW_CFA_def_cfa: r6 (rbp) ofs 16
  DW_CFA_offset: r6 (rbp) at cfa-16
  DW_CFA_advance_loc2: 854 to 0000000000410332
  DW_CFA_restore: r6 (rbp)
  DW_CFA_nop
  DW_CFA_nop
  DW_CFA_nop

00000ee8 0000000000000024 00000e44 FDE cie=000000a8 pc=0000000000410333..00000000004103f2
  DW_CFA_advance_loc: 1 to 0000000000410334
  DW_CFA_def_cfa_offset: 16
  DW_CFA_advance_loc: 3 to 0000000000410337
  DW_CFA_def_cfa: r6 (rbp) ofs 16
  DW_CFA_offset: r6 (rbp) at cfa-16
  DW_CFA_advance_loc1: 186 to 00000000004103f1
  DW_CFA_restore: r6 (rbp)
  DW_CFA_nop
  DW_CFA_nop
  DW_CFA_nop
  DW_CFA_nop

00000f10 000000000000002c 00000e6c FDE cie=000000a8 pc=00000000004103f2..00000000004104f0
  DW_CFA_advance_loc: 1 to 00000000004103f3
  DW_CFA_def_cfa_offset: 16
  DW_CFA_advance_loc: 3 to 00000000004103f6
  DW_CFA_def_cfa: r6 (rbp) ofs 16
  DW_CFA_offset: r6 (rbp) at cfa-16
  DW_CFA_advance_loc: 48 to 0000000000410426
  DW_CFA_offset: r3 (rbx) at cfa-32
  DW_CFA_advance_loc1: 200 to 00000000004104ee
  DW_CFA_restore: r3 (rbx)
  DW_CFA_advance_loc: 1 to 00000000004104ef
  DW_CFA_restore: r6 (rbp)
  DW_CFA_nop
  DW_CFA_nop
  DW_CFA_nop
  DW_CFA_nop
  DW_CFA_nop
  DW_CFA_nop
  DW_CFA_nop

00000f40 0000000000000024 00000e9c FDE cie=000000a8 pc=00000000004104f0..0000000000410569
  DW_CFA_advance_loc: 1 to 00000000004104f1
  DW_CFA_def_cfa_offset: 16
  DW_CFA_advance_loc: 3 to 00000000004104f4
  DW_CFA_def_cfa: r6 (rbp) ofs 16
  DW_CFA_offset: r6 (rbp) at cfa-16
  DW_CFA_advance_loc1: 116 to 0000000000410568
  DW_CFA_restore: r6 (rbp)
  DW_CFA_nop
  DW_CFA_nop
  DW_CFA_nop
  DW_CFA_nop

00000f68 000000000000002c 00000ec4 FDE cie=000000a8 pc=0000000000410569..000000000041064f
  DW_CFA_advance_loc: 1 to 000000000041056a
  DW_CFA_def_cfa_offset: 16
  DW_CFA_advance_loc: 3 to 000000000041056d
  DW_CFA_def_cfa: r6 (rbp) ofs 16
  DW_CFA_offset: r6 (rbp) at cfa-16
  DW_CFA_advance_loc: 45 to 000000000041059a
  DW_CFA_offset: r3 (rbx) at cfa-24
  DW_CFA_advance_loc1: 179 to 000000000041064d
  DW_CFA_restore: r3 (rbx)
  DW_CFA_advance_loc: 1 to 000000000041064e
  DW_CFA_restore: r6 (rbp)
  DW_CFA_nop
  DW_CFA_nop
  DW_CFA_nop
  DW_CFA_nop
  DW_CFA_nop
  DW_CFA_nop
  DW_CFA_nop

00000f98 0000000000000024 00000ef4 FDE cie=000000a8 pc=000000000041064f..0000000000410738
  DW_CFA_advance_loc: 1 to 0000000000410650
  DW_CFA_def_cfa_offset: 16
  DW_CFA_advance_loc: 3 to 0000000000410653
  DW_CFA_def_cfa: r6 (rbp) ofs 16
  DW_CFA_offset: r6 (rbp) at cfa-16
  DW_CFA_advance_loc1: 228 to 0000000000410737
  DW_CFA_restore: r6 (rbp)
  DW_CFA_nop
  DW_CFA_nop
  DW_CFA_nop
  DW_CFA_nop

00000fc0 0000000000000024 00000f1c FDE cie=000000a8 pc=0000000000410738..00000000004107c8
  DW_CFA_advance_loc: 1 to 0000000000410739
  DW_CFA_def_cfa_offset: 16
  DW_CFA_advance_loc: 3 to 000000000041073c
  DW_CFA_def_cfa: r6 (rbp) ofs 16
  DW_CFA_offset: r6 (rbp) at cfa-16
  DW_CFA_advance_loc1: 139 to 00000000004107c7
  DW_CFA_restore: r6 (rbp)
  DW_CFA_nop
  DW_CFA_nop
  DW_CFA_nop
  DW_CFA_nop

00000fe8 0000000000000024 00000f44 FDE cie=000000a8 pc=00000000004107c8..0000000000410868
  DW_CFA_advance_loc: 1 to 00000000004107c9
  DW_CFA_def_cfa_offset: 16
  DW_CFA_advance_loc: 3 to 00000000004107cc
  DW_CFA_def_cfa: r6 (rbp) ofs 16
  DW_CFA_offset: r6 (rbp) at cfa-16
  DW_CFA_advance_loc1: 155 to 0000000000410867
  DW_CFA_restore: r6 (rbp)
  DW_CFA_nop
  DW_CFA_nop
  DW_CFA_nop
  DW_CFA_nop

00001010 0000000000000024 00000f6c FDE cie=000000a8 pc=0000000000410868..00000000004108fc
  DW_CFA_advance_loc: 1 to 0000000000410869
  DW_CFA_def_cfa_offset: 16
  DW_CFA_advance_loc: 3 to 000000000041086c
  DW_CFA_def_cfa: r6 (rbp) ofs 16
  DW_CFA_offset: r6 (rbp) at cfa-16
  DW_CFA_advance_loc1: 143 to 00000000004108fb
  DW_CFA_restore: r6 (rbp)
  DW_CFA_nop
  DW_CFA_nop
  DW_CFA_nop
  DW_CFA_nop

00001038 0000000000000024 00000f94 FDE cie=000000a8 pc=00000000004108fc..000000000041098c
  DW_CFA_advance_loc: 1 to 00000000004108fd
  DW_CFA_def_cfa_offset: 16
  DW_CFA_advance_loc: 3 to 0000000000410900
  DW_CFA_def_cfa: r6 (rbp) ofs 16
  DW_CFA_offset: r6 (rbp) at cfa-16
  DW_CFA_advance_loc1: 139 to 000000000041098b
  DW_CFA_restore: r6 (rbp)
  DW_CFA_nop
  DW_CFA_nop
  DW_CFA_nop
  DW_CFA_nop

00001060 0000000000000024 00000fbc FDE cie=000000a8 pc=000000000041098c..0000000000410a20
  DW_CFA_advance_loc: 1 to 000000000041098d
  DW_CFA_def_cfa_offset: 16
  DW_CFA_advance_loc: 3 to 0000000000410990
  DW_CFA_def_cfa: r6 (rbp) ofs 16
  DW_CFA_offset: r6 (rbp) at cfa-16
  DW_CFA_advance_loc1: 143 to 0000000000410a1f
  DW_CFA_restore: r6 (rbp)
  DW_CFA_nop
  DW_CFA_nop
  DW_CFA_nop
  DW_CFA_nop

00001088 0000000000000024 00000fe4 FDE cie=000000a8 pc=0000000000410a20..0000000000410ace
  DW_CFA_advance_loc: 1 to 0000000000410a21
  DW_CFA_def_cfa_offset: 16
  DW_CFA_advance_loc: 3 to 0000000000410a24
  DW_CFA_def_cfa: r6 (rbp) ofs 16
  DW_CFA_offset: r6 (rbp) at cfa-16
  DW_CFA_advance_loc1: 169 to 0000000000410acd
  DW_CFA_restore: r6 (rbp)
  DW_CFA_nop
  DW_CFA_nop
  DW_CFA_nop
  DW_CFA_nop

000010b0 0000000000000024 0000100c FDE cie=000000a8 pc=0000000000410ace..0000000000410b76
  DW_CFA_advance_loc: 1 to 0000000000410acf
  DW_CFA_def_cfa_offset: 16
  DW_CFA_advance_loc: 3 to 0000000000410ad2
  DW_CFA_def_cfa: r6 (rbp) ofs 16
  DW_CFA_offset: r6 (rbp) at cfa-16
  DW_CFA_advance_loc1: 163 to 0000000000410b75
  DW_CFA_restore: r6 (rbp)
  DW_CFA_nop
  DW_CFA_nop
  DW_CFA_nop
  DW_CFA_nop

000010d8 0000000000000024 00001034 FDE cie=000000a8 pc=0000000000410b76..0000000000410c1e
  DW_CFA_advance_loc: 1 to 0000000000410b77
  DW_CFA_def_cfa_offset: 16
  DW_CFA_advance_loc: 3 to 0000000000410b7a
  DW_CFA_def_cfa: r6 (rbp) ofs 16
  DW_CFA_offset: r6 (rbp) at cfa-16
  DW_CFA_advance_loc1: 163 to 0000000000410c1d
  DW_CFA_restore: r6 (rbp)
  DW_CFA_nop
  DW_CFA_nop
  DW_CFA_nop
  DW_CFA_nop

00001100 0000000000000024 0000105c FDE cie=000000a8 pc=0000000000410c1e..0000000000410cda
  DW_CFA_advance_loc: 1 to 0000000000410c1f
  DW_CFA_def_cfa_offset: 16
  DW_CFA_advance_loc: 3 to 0000000000410c22
  DW_CFA_def_cfa: r6 (rbp) ofs 16
  DW_CFA_offset: r6 (rbp) at cfa-16
  DW_CFA_advance_loc1: 183 to 0000000000410cd9
  DW_CFA_restore: r6 (rbp)
  DW_CFA_nop
  DW_CFA_nop
  DW_CFA_nop
  DW_CFA_nop

00001128 0000000000000024 00001084 FDE cie=000000a8 pc=0000000000410cda..0000000000410d98
  DW_CFA_advance_loc: 1 to 0000000000410cdb
  DW_CFA_def_cfa_offset: 16
  DW_CFA_advance_loc: 3 to 0000000000410cde
  DW_CFA_def_cfa: r6 (rbp) ofs 16
  DW_CFA_offset: r6 (rbp) at cfa-16
  DW_CFA_advance_loc1: 185 to 0000000000410d97
  DW_CFA_restore: r6 (rbp)
  DW_CFA_nop
  DW_CFA_nop
  DW_CFA_nop
  DW_CFA_nop

00001150 0000000000000024 000010ac FDE cie=000000a8 pc=0000000000410d98..0000000000410e38
  DW_CFA_advance_loc: 1 to 0000000000410d99
  DW_CFA_def_cfa_offset: 16
  DW_CFA_advance_loc: 3 to 0000000000410d9c
  DW_CFA_def_cfa: r6 (rbp) ofs 16
  DW_CFA_offset: r6 (rbp) at cfa-16
  DW_CFA_advance_loc1: 155 to 0000000000410e37
  DW_CFA_restore: r6 (rbp)
  DW_CFA_nop
  DW_CFA_nop
  DW_CFA_nop
  DW_CFA_nop

00001178 0000000000000024 000010d4 FDE cie=000000a8 pc=0000000000410e38..0000000000410ef2
  DW_CFA_advance_loc: 1 to 0000000000410e39
  DW_CFA_def_cfa_offset: 16
  DW_CFA_advance_loc: 3 to 0000000000410e3c
  DW_CFA_def_cfa: r6 (rbp) ofs 16
  DW_CFA_offset: r6 (rbp) at cfa-16
  DW_CFA_advance_loc1: 181 to 0000000000410ef1
  DW_CFA_restore: r6 (rbp)
  DW_CFA_nop
  DW_CFA_nop
  DW_CFA_nop
  DW_CFA_nop

000011a0 0000000000000024 000010fc FDE cie=000000a8 pc=0000000000410ef2..0000000000410f7c
  DW_CFA_advance_loc: 1 to 0000000000410ef3
  DW_CFA_def_cfa_offset: 16
  DW_CFA_advance_loc: 3 to 0000000000410ef6
  DW_CFA_def_cfa: r6 (rbp) ofs 16
  DW_CFA_offset: r6 (rbp) at cfa-16
  DW_CFA_advance_loc1: 133 to 0000000000410f7b
  DW_CFA_restore: r6 (rbp)
  DW_CFA_nop
  DW_CFA_nop
  DW_CFA_nop
  DW_CFA_nop

000011c8 0000000000000024 00001124 FDE cie=000000a8 pc=0000000000410f7c..0000000000411014
  DW_CFA_advance_loc: 1 to 0000000000410f7d
  DW_CFA_def_cfa_offset: 16
  DW_CFA_advance_loc: 3 to 0000000000410f80
  DW_CFA_def_cfa: r6 (rbp) ofs 16
  DW_CFA_offset: r6 (rbp) at cfa-16
  DW_CFA_advance_loc1: 147 to 0000000000411013
  DW_CFA_restore: r6 (rbp)
  DW_CFA_nop
  DW_CFA_nop
  DW_CFA_nop
  DW_CFA_nop

000011f0 0000000000000024 0000114c FDE cie=000000a8 pc=0000000000411014..00000000004110ac
  DW_CFA_advance_loc: 1 to 0000000000411015
  DW_CFA_def_cfa_offset: 16
  DW_CFA_advance_loc: 3 to 0000000000411018
  DW_CFA_def_cfa: r6 (rbp) ofs 16
  DW_CFA_offset: r6 (rbp) at cfa-16
  DW_CFA_advance_loc1: 147 to 00000000004110ab
  DW_CFA_restore: r6 (rbp)
  DW_CFA_nop
  DW_CFA_nop
  DW_CFA_nop
  DW_CFA_nop

00001218 0000000000000024 00001174 FDE cie=000000a8 pc=00000000004110ac..00000000004111f3
  DW_CFA_advance_loc: 1 to 00000000004110ad
  DW_CFA_def_cfa_offset: 16
  DW_CFA_advance_loc: 3 to 00000000004110b0
  DW_CFA_def_cfa: r6 (rbp) ofs 16
  DW_CFA_offset: r6 (rbp) at cfa-16
  DW_CFA_advance_loc2: 322 to 00000000004111f2
  DW_CFA_restore: r6 (rbp)
  DW_CFA_nop
  DW_CFA_nop
  DW_CFA_nop

00001240 0000000000000024 0000119c FDE cie=000000a8 pc=00000000004111f3..0000000000411271
  DW_CFA_advance_loc: 1 to 00000000004111f4
  DW_CFA_def_cfa_offset: 16
  DW_CFA_advance_loc: 3 to 00000000004111f7
  DW_CFA_def_cfa: r6 (rbp) ofs 16
  DW_CFA_offset: r6 (rbp) at cfa-16
  DW_CFA_advance_loc1: 121 to 0000000000411270
  DW_CFA_restore: r6 (rbp)
  DW_CFA_nop
  DW_CFA_nop
  DW_CFA_nop
  DW_CFA_nop

00001268 0000000000000024 000011c4 FDE cie=000000a8 pc=0000000000411271..00000000004112cc
  DW_CFA_advance_loc: 1 to 0000000000411272
  DW_CFA_def_cfa_offset: 16
  DW_CFA_advance_loc: 3 to 0000000000411275
  DW_CFA_def_cfa: r6 (rbp) ofs 16
  DW_CFA_offset: r6 (rbp) at cfa-16
  DW_CFA_advance_loc1: 86 to 00000000004112cb
  DW_CFA_restore: r6 (rbp)
  DW_CFA_nop
  DW_CFA_nop
  DW_CFA_nop
  DW_CFA_nop

00001290 0000000000000024 000011ec FDE cie=000000a8 pc=00000000004112cc..0000000000411362
  DW_CFA_advance_loc: 1 to 00000000004112cd
  DW_CFA_def_cfa_offset: 16
  DW_CFA_advance_loc: 3 to 00000000004112d0
  DW_CFA_def_cfa: r6 (rbp) ofs 16
  DW_CFA_offset: r6 (rbp) at cfa-16
  DW_CFA_advance_loc1: 145 to 0000000000411361
  DW_CFA_restore: r6 (rbp)
  DW_CFA_nop
  DW_CFA_nop
  DW_CFA_nop
  DW_CFA_nop

000012b8 0000000000000024 00001214 FDE cie=000000a8 pc=0000000000411362..00000000004113da
  DW_CFA_advance_loc: 1 to 0000000000411363
  DW_CFA_def_cfa_offset: 16
  DW_CFA_advance_loc: 3 to 0000000000411366
  DW_CFA_def_cfa: r6 (rbp) ofs 16
  DW_CFA_offset: r6 (rbp) at cfa-16
  DW_CFA_advance_loc1: 115 to 00000000004113d9
  DW_CFA_restore: r6 (rbp)
  DW_CFA_nop
  DW_CFA_nop
  DW_CFA_nop
  DW_CFA_nop

000012e0 000000000000002c 0000123c FDE cie=000000a8 pc=00000000004113da..00000000004116a5
  DW_CFA_advance_loc: 1 to 00000000004113db
  DW_CFA_def_cfa_offset: 16
  DW_CFA_advance_loc: 3 to 00000000004113de
  DW_CFA_def_cfa: r6 (rbp) ofs 16
  DW_CFA_offset: r6 (rbp) at cfa-16
  DW_CFA_advance_loc: 46 to 000000000041140c
  DW_CFA_offset: r3 (rbx) at cfa-32
  DW_CFA_advance_loc2: 663 to 00000000004116a3
  DW_CFA_restore: r3 (rbx)
  DW_CFA_advance_loc: 1 to 00000000004116a4
  DW_CFA_restore: r6 (rbp)
  DW_CFA_nop
  DW_CFA_nop
  DW_CFA_nop
  DW_CFA_nop
  DW_CFA_nop
  DW_CFA_nop

00001310 000000000000002c 0000126c FDE cie=000000a8 pc=00000000004116a5..0000000000411998
  DW_CFA_advance_loc: 1 to 00000000004116a6
  DW_CFA_def_cfa_offset: 16
  DW_CFA_advance_loc: 3 to 00000000004116a9
  DW_CFA_def_cfa: r6 (rbp) ofs 16
  DW_CFA_offset: r6 (rbp) at cfa-16
  DW_CFA_advance_loc: 46 to 00000000004116d7
  DW_CFA_offset: r3 (rbx) at cfa-32
  DW_CFA_advance_loc2: 703 to 0000000000411996
  DW_CFA_restore: r3 (rbx)
  DW_CFA_advance_loc: 1 to 0000000000411997
  DW_CFA_restore: r6 (rbp)
  DW_CFA_nop
  DW_CFA_nop
  DW_CFA_nop
  DW_CFA_nop
  DW_CFA_nop
  DW_CFA_nop

00001340 000000000000002c 0000129c FDE cie=000000a8 pc=0000000000411998..0000000000411d6c
  DW_CFA_advance_loc: 1 to 0000000000411999
  DW_CFA_def_cfa_offset: 16
  DW_CFA_advance_loc: 3 to 000000000041199c
  DW_CFA_def_cfa: r6 (rbp) ofs 16
  DW_CFA_offset: r6 (rbp) at cfa-16
  DW_CFA_advance_loc1: 71 to 00000000004119e3
  DW_CFA_offset: r3 (rbx) at cfa-32
  DW_CFA_advance_loc2: 903 to 0000000000411d6a
  DW_CFA_restore: r3 (rbx)
  DW_CFA_advance_loc: 1 to 0000000000411d6b
  DW_CFA_restore: r6 (rbp)
  DW_CFA_nop
  DW_CFA_nop
  DW_CFA_nop
  DW_CFA_nop
  DW_CFA_nop

00001370 000000000000002c 000012cc FDE cie=000000a8 pc=0000000000411d6c..0000000000412164
  DW_CFA_advance_loc: 1 to 0000000000411d6d
  DW_CFA_def_cfa_offset: 16
  DW_CFA_advance_loc: 3 to 0000000000411d70
  DW_CFA_def_cfa: r6 (rbp) ofs 16
  DW_CFA_offset: r6 (rbp) at cfa-16
  DW_CFA_advance_loc1: 71 to 0000000000411db7
  DW_CFA_offset: r3 (rbx) at cfa-32
  DW_CFA_advance_loc2: 939 to 0000000000412162
  DW_CFA_restore: r3 (rbx)
  DW_CFA_advance_loc: 1 to 0000000000412163
  DW_CFA_restore: r6 (rbp)
  DW_CFA_nop
  DW_CFA_nop
  DW_CFA_nop
  DW_CFA_nop
  DW_CFA_nop

000013a0 000000000000002c 000012fc FDE cie=000000a8 pc=0000000000412164..0000000000412544
  DW_CFA_advance_loc: 1 to 0000000000412165
  DW_CFA_def_cfa_offset: 16
  DW_CFA_advance_loc: 3 to 0000000000412168
  DW_CFA_def_cfa: r6 (rbp) ofs 16
  DW_CFA_offset: r6 (rbp) at cfa-16
  DW_CFA_advance_loc1: 71 to 00000000004121af
  DW_CFA_offset: r3 (rbx) at cfa-32
  DW_CFA_advance_loc2: 915 to 0000000000412542
  DW_CFA_restore: r3 (rbx)
  DW_CFA_advance_loc: 1 to 0000000000412543
  DW_CFA_restore: r6 (rbp)
  DW_CFA_nop
  DW_CFA_nop
  DW_CFA_nop
  DW_CFA_nop
  DW_CFA_nop

000013d0 000000000000002c 0000132c FDE cie=000000a8 pc=0000000000412544..000000000041294a
  DW_CFA_advance_loc: 1 to 0000000000412545
  DW_CFA_def_cfa_offset: 16
  DW_CFA_advance_loc: 3 to 0000000000412548
  DW_CFA_def_cfa: r6 (rbp) ofs 16
  DW_CFA_offset: r6 (rbp) at cfa-16
  DW_CFA_advance_loc1: 71 to 000000000041258f
  DW_CFA_offset: r3 (rbx) at cfa-24
  DW_CFA_advance_loc2: 953 to 0000000000412948
  DW_CFA_restore: r3 (rbx)
  DW_CFA_advance_loc: 1 to 0000000000412949
  DW_CFA_restore: r6 (rbp)
  DW_CFA_nop
  DW_CFA_nop
  DW_CFA_nop
  DW_CFA_nop
  DW_CFA_nop

00001400 0000000000000024 0000135c FDE cie=000000a8 pc=000000000041294a..00000000004129fe
  DW_CFA_advance_loc: 1 to 000000000041294b
  DW_CFA_def_cfa_offset: 16
  DW_CFA_advance_loc: 3 to 000000000041294e
  DW_CFA_def_cfa: r6 (rbp) ofs 16
  DW_CFA_offset: r6 (rbp) at cfa-16
  DW_CFA_advance_loc1: 175 to 00000000004129fd
  DW_CFA_restore: r6 (rbp)
  DW_CFA_nop
  DW_CFA_nop
  DW_CFA_nop
  DW_CFA_nop

00001428 0000000000000024 00001384 FDE cie=000000a8 pc=00000000004129fe..0000000000412acc
  DW_CFA_advance_loc: 1 to 00000000004129ff
  DW_CFA_def_cfa_offset: 16
  DW_CFA_advance_loc: 3 to 0000000000412a02
  DW_CFA_def_cfa: r6 (rbp) ofs 16
  DW_CFA_offset: r6 (rbp) at cfa-16
  DW_CFA_advance_loc1: 201 to 0000000000412acb
  DW_CFA_restore: r6 (rbp)
  DW_CFA_nop
  DW_CFA_nop
  DW_CFA_nop
  DW_CFA_nop

00001450 0000000000000024 000013ac FDE cie=000000a8 pc=0000000000412acc..0000000000412b7a
  DW_CFA_advance_loc: 1 to 0000000000412acd
  DW_CFA_def_cfa_offset: 16
  DW_CFA_advance_loc: 3 to 0000000000412ad0
  DW_CFA_def_cfa: r6 (rbp) ofs 16
  DW_CFA_offset: r6 (rbp) at cfa-16
  DW_CFA_advance_loc1: 169 to 0000000000412b79
  DW_CFA_restore: r6 (rbp)
  DW_CFA_nop
  DW_CFA_nop
  DW_CFA_nop
  DW_CFA_nop

00001478 0000000000000024 000013d4 FDE cie=000000a8 pc=0000000000412b7a..0000000000412c2a
  DW_CFA_advance_loc: 1 to 0000000000412b7b
  DW_CFA_def_cfa_offset: 16
  DW_CFA_advance_loc: 3 to 0000000000412b7e
  DW_CFA_def_cfa: r6 (rbp) ofs 16
  DW_CFA_offset: r6 (rbp) at cfa-16
  DW_CFA_advance_loc1: 171 to 0000000000412c29
  DW_CFA_restore: r6 (rbp)
  DW_CFA_nop
  DW_CFA_nop
  DW_CFA_nop
  DW_CFA_nop

000014a0 0000000000000024 000013fc FDE cie=000000a8 pc=0000000000412c2a..0000000000412d1a
  DW_CFA_advance_loc: 1 to 0000000000412c2b
  DW_CFA_def_cfa_offset: 16
  DW_CFA_advance_loc: 3 to 0000000000412c2e
  DW_CFA_def_cfa: r6 (rbp) ofs 16
  DW_CFA_offset: r6 (rbp) at cfa-16
  DW_CFA_advance_loc1: 235 to 0000000000412d19
  DW_CFA_restore: r6 (rbp)
  DW_CFA_nop
  DW_CFA_nop
  DW_CFA_nop
  DW_CFA_nop

000014c8 000000000000002c 00001424 FDE cie=000000a8 pc=0000000000412d1a..0000000000412edb
  DW_CFA_advance_loc: 1 to 0000000000412d1b
  DW_CFA_def_cfa_offset: 16
  DW_CFA_advance_loc: 3 to 0000000000412d1e
  DW_CFA_def_cfa: r6 (rbp) ofs 16
  DW_CFA_offset: r6 (rbp) at cfa-16
  DW_CFA_advance_loc1: 82 to 0000000000412d70
  DW_CFA_offset: r3 (rbx) at cfa-32
  DW_CFA_advance_loc2: 361 to 0000000000412ed9
  DW_CFA_restore: r3 (rbx)
  DW_CFA_advance_loc: 1 to 0000000000412eda
  DW_CFA_restore: r6 (rbp)
  DW_CFA_nop
  DW_CFA_nop
  DW_CFA_nop
  DW_CFA_nop
  DW_CFA_nop

000014f8 000000000000002c 00001454 FDE cie=000000a8 pc=0000000000412edc..0000000000413bca
  DW_CFA_advance_loc: 1 to 0000000000412edd
  DW_CFA_def_cfa_offset: 16
  DW_CFA_advance_loc: 3 to 0000000000412ee0
  DW_CFA_def_cfa: r6 (rbp) ofs 16
  DW_CFA_offset: r6 (rbp) at cfa-16
  DW_CFA_advance_loc2: 464 to 00000000004130b0
  DW_CFA_offset: r3 (rbx) at cfa-24
  DW_CFA_advance_loc2: 2840 to 0000000000413bc8
  DW_CFA_restore: r3 (rbx)
  DW_CFA_advance_loc: 1 to 0000000000413bc9
  DW_CFA_restore: r6 (rbp)
  DW_CFA_nop
  DW_CFA_nop
  DW_CFA_nop
  DW_CFA_nop

00001528 0000000000000024 00001484 FDE cie=000000a8 pc=0000000000413bca..0000000000413e05
  DW_CFA_advance_loc: 1 to 0000000000413bcb
  DW_CFA_def_cfa_offset: 16
  DW_CFA_advance_loc: 3 to 0000000000413bce
  DW_CFA_def_cfa: r6 (rbp) ofs 16
  DW_CFA_offset: r6 (rbp) at cfa-16
  DW_CFA_advance_loc2: 566 to 0000000000413e04
  DW_CFA_restore: r6 (rbp)
  DW_CFA_nop
  DW_CFA_nop
  DW_CFA_nop

00001550 0000000000000024 000014ac FDE cie=000000a8 pc=0000000000413e05..00000000004140af
  DW_CFA_advance_loc: 1 to 0000000000413e06
  DW_CFA_def_cfa_offset: 16
  DW_CFA_advance_loc: 3 to 0000000000413e09
  DW_CFA_def_cfa: r6 (rbp) ofs 16
  DW_CFA_offset: r6 (rbp) at cfa-16
  DW_CFA_advance_loc2: 677 to 00000000004140ae
  DW_CFA_restore: r6 (rbp)
  DW_CFA_nop
  DW_CFA_nop
  DW_CFA_nop

00001578 0000000000000024 000014d4 FDE cie=000000a8 pc=00000000004140af..00000000004143c8
  DW_CFA_advance_loc: 1 to 00000000004140b0
  DW_CFA_def_cfa_offset: 16
  DW_CFA_advance_loc: 3 to 00000000004140b3
  DW_CFA_def_cfa: r6 (rbp) ofs 16
  DW_CFA_offset: r6 (rbp) at cfa-16
  DW_CFA_advance_loc2: 788 to 00000000004143c7
  DW_CFA_restore: r6 (rbp)
  DW_CFA_nop
  DW_CFA_nop
  DW_CFA_nop

000015a0 0000000000000024 000014fc FDE cie=000000a8 pc=00000000004143c8..0000000000414750
  DW_CFA_advance_loc: 1 to 00000000004143c9
  DW_CFA_def_cfa_offset: 16
  DW_CFA_advance_loc: 3 to 00000000004143cc
  DW_CFA_def_cfa: r6 (rbp) ofs 16
  DW_CFA_offset: r6 (rbp) at cfa-16
  DW_CFA_advance_loc2: 899 to 000000000041474f
  DW_CFA_restore: r6 (rbp)
  DW_CFA_nop
  DW_CFA_nop
  DW_CFA_nop

000015c8 0000000000000024 00001524 FDE cie=000000a8 pc=0000000000414750..0000000000414b47
  DW_CFA_advance_loc: 1 to 0000000000414751
  DW_CFA_def_cfa_offset: 16
  DW_CFA_advance_loc: 3 to 0000000000414754
  DW_CFA_def_cfa: r6 (rbp) ofs 16
  DW_CFA_offset: r6 (rbp) at cfa-16
  DW_CFA_advance_loc2: 1010 to 0000000000414b46
  DW_CFA_restore: r6 (rbp)
  DW_CFA_nop
  DW_CFA_nop
  DW_CFA_nop

000015f0 0000000000000024 0000154c FDE cie=000000a8 pc=0000000000414b47..0000000000414fad
  DW_CFA_advance_loc: 1 to 0000000000414b48
  DW_CFA_def_cfa_offset: 16
  DW_CFA_advance_loc: 3 to 0000000000414b4b
  DW_CFA_def_cfa: r6 (rbp) ofs 16
  DW_CFA_offset: r6 (rbp) at cfa-16
  DW_CFA_advance_loc2: 1121 to 0000000000414fac
  DW_CFA_restore: r6 (rbp)
  DW_CFA_nop
  DW_CFA_nop
  DW_CFA_nop

00001618 0000000000000024 00001574 FDE cie=000000a8 pc=0000000000414fad..0000000000415482
  DW_CFA_advance_loc: 1 to 0000000000414fae
  DW_CFA_def_cfa_offset: 16
  DW_CFA_advance_loc: 3 to 0000000000414fb1
  DW_CFA_def_cfa: r6 (rbp) ofs 16
  DW_CFA_offset: r6 (rbp) at cfa-16
  DW_CFA_advance_loc2: 1232 to 0000000000415481
  DW_CFA_restore: r6 (rbp)
  DW_CFA_nop
  DW_CFA_nop
  DW_CFA_nop

00001640 0000000000000024 0000159c FDE cie=000000a8 pc=0000000000415482..00000000004159c6
  DW_CFA_advance_loc: 1 to 0000000000415483
  DW_CFA_def_cfa_offset: 16
  DW_CFA_advance_loc: 3 to 0000000000415486
  DW_CFA_def_cfa: r6 (rbp) ofs 16
  DW_CFA_offset: r6 (rbp) at cfa-16
  DW_CFA_advance_loc2: 1343 to 00000000004159c5
  DW_CFA_restore: r6 (rbp)
  DW_CFA_nop
  DW_CFA_nop
  DW_CFA_nop

00001668 0000000000000024 000015c4 FDE cie=000000a8 pc=00000000004159c6..0000000000415f79
  DW_CFA_advance_loc: 1 to 00000000004159c7
  DW_CFA_def_cfa_offset: 16
  DW_CFA_advance_loc: 3 to 00000000004159ca
  DW_CFA_def_cfa: r6 (rbp) ofs 16
  DW_CFA_offset: r6 (rbp) at cfa-16
  DW_CFA_advance_loc2: 1454 to 0000000000415f78
  DW_CFA_restore: r6 (rbp)
  DW_CFA_nop
  DW_CFA_nop
  DW_CFA_nop

00001690 0000000000000024 000015ec FDE cie=000000a8 pc=0000000000415f79..000000000041659b
  DW_CFA_advance_loc: 1 to 0000000000415f7a
  DW_CFA_def_cfa_offset: 16
  DW_CFA_advance_loc: 3 to 0000000000415f7d
  DW_CFA_def_cfa: r6 (rbp) ofs 16
  DW_CFA_offset: r6 (rbp) at cfa-16
  DW_CFA_advance_loc2: 1565 to 000000000041659a
  DW_CFA_restore: r6 (rbp)
  DW_CFA_nop
  DW_CFA_nop
  DW_CFA_nop

000016b8 0000000000000024 00001614 FDE cie=000000a8 pc=000000000041659b..0000000000416c2c
  DW_CFA_advance_loc: 1 to 000000000041659c
  DW_CFA_def_cfa_offset: 16
  DW_CFA_advance_loc: 3 to 000000000041659f
  DW_CFA_def_cfa: r6 (rbp) ofs 16
  DW_CFA_offset: r6 (rbp) at cfa-16
  DW_CFA_advance_loc2: 1676 to 0000000000416c2b
  DW_CFA_restore: r6 (rbp)
  DW_CFA_nop
  DW_CFA_nop
  DW_CFA_nop

000016e0 0000000000000024 0000163c FDE cie=000000a8 pc=0000000000416c2c..000000000041732c
  DW_CFA_advance_loc: 1 to 0000000000416c2d
  DW_CFA_def_cfa_offset: 16
  DW_CFA_advance_loc: 3 to 0000000000416c30
  DW_CFA_def_cfa: r6 (rbp) ofs 16
  DW_CFA_offset: r6 (rbp) at cfa-16
  DW_CFA_advance_loc2: 1787 to 000000000041732b
  DW_CFA_restore: r6 (rbp)
  DW_CFA_nop
  DW_CFA_nop
  DW_CFA_nop

00001708 0000000000000024 00001664 FDE cie=000000a8 pc=000000000041732c..0000000000417a9b
  DW_CFA_advance_loc: 1 to 000000000041732d
  DW_CFA_def_cfa_offset: 16
  DW_CFA_advance_loc: 3 to 0000000000417330
  DW_CFA_def_cfa: r6 (rbp) ofs 16
  DW_CFA_offset: r6 (rbp) at cfa-16
  DW_CFA_advance_loc2: 1898 to 0000000000417a9a
  DW_CFA_restore: r6 (rbp)
  DW_CFA_nop
  DW_CFA_nop
  DW_CFA_nop

00001730 0000000000000024 0000168c FDE cie=000000a8 pc=0000000000417a9b..0000000000418279
  DW_CFA_advance_loc: 1 to 0000000000417a9c
  DW_CFA_def_cfa_offset: 16
  DW_CFA_advance_loc: 3 to 0000000000417a9f
  DW_CFA_def_cfa: r6 (rbp) ofs 16
  DW_CFA_offset: r6 (rbp) at cfa-16
  DW_CFA_advance_loc2: 2009 to 0000000000418278
  DW_CFA_restore: r6 (rbp)
  DW_CFA_nop
  DW_CFA_nop
  DW_CFA_nop

00001758 0000000000000024 000016b4 FDE cie=000000a8 pc=0000000000418279..0000000000418af3
  DW_CFA_advance_loc: 1 to 000000000041827a
  DW_CFA_def_cfa_offset: 16
  DW_CFA_advance_loc: 3 to 000000000041827d
  DW_CFA_def_cfa: r6 (rbp) ofs 16
  DW_CFA_offset: r6 (rbp) at cfa-16
  DW_CFA_advance_loc2: 2165 to 0000000000418af2
  DW_CFA_restore: r6 (rbp)
  DW_CFA_nop
  DW_CFA_nop
  DW_CFA_nop

00001780 0000000000000024 000016dc FDE cie=000000a8 pc=0000000000418af3..000000000041940c
  DW_CFA_advance_loc: 1 to 0000000000418af4
  DW_CFA_def_cfa_offset: 16
  DW_CFA_advance_loc: 3 to 0000000000418af7
  DW_CFA_def_cfa: r6 (rbp) ofs 16
  DW_CFA_offset: r6 (rbp) at cfa-16
  DW_CFA_advance_loc2: 2324 to 000000000041940b
  DW_CFA_restore: r6 (rbp)
  DW_CFA_nop
  DW_CFA_nop
  DW_CFA_nop

000017a8 0000000000000024 00001704 FDE cie=000000a8 pc=000000000041940c..0000000000419dbb
  DW_CFA_advance_loc: 1 to 000000000041940d
  DW_CFA_def_cfa_offset: 16
  DW_CFA_advance_loc: 3 to 0000000000419410
  DW_CFA_def_cfa: r6 (rbp) ofs 16
  DW_CFA_offset: r6 (rbp) at cfa-16
  DW_CFA_advance_loc2: 2474 to 0000000000419dba
  DW_CFA_restore: r6 (rbp)
  DW_CFA_nop
  DW_CFA_nop
  DW_CFA_nop

000017d0 0000000000000024 0000172c FDE cie=000000a8 pc=0000000000419dbb..000000000041a7e0
  DW_CFA_advance_loc: 1 to 0000000000419dbc
  DW_CFA_def_cfa_offset: 16
  DW_CFA_advance_loc: 3 to 0000000000419dbf
  DW_CFA_def_cfa: r6 (rbp) ofs 16
  DW_CFA_offset: r6 (rbp) at cfa-16
  DW_CFA_advance_loc2: 2592 to 000000000041a7df
  DW_CFA_restore: r6 (rbp)
  DW_CFA_nop
  DW_CFA_nop
  DW_CFA_nop

000017f8 0000000000000024 00001754 FDE cie=000000a8 pc=000000000041a7e0..000000000041b27b
  DW_CFA_advance_loc: 1 to 000000000041a7e1
  DW_CFA_def_cfa_offset: 16
  DW_CFA_advance_loc: 3 to 000000000041a7e4
  DW_CFA_def_cfa: r6 (rbp) ofs 16
  DW_CFA_offset: r6 (rbp) at cfa-16
  DW_CFA_advance_loc2: 2710 to 000000000041b27a
  DW_CFA_restore: r6 (rbp)
  DW_CFA_nop
  DW_CFA_nop
  DW_CFA_nop

00001820 0000000000000024 0000177c FDE cie=000000a8 pc=000000000041b27b..000000000041bd8c
  DW_CFA_advance_loc: 1 to 000000000041b27c
  DW_CFA_def_cfa_offset: 16
  DW_CFA_advance_loc: 3 to 000000000041b27f
  DW_CFA_def_cfa: r6 (rbp) ofs 16
  DW_CFA_offset: r6 (rbp) at cfa-16
  DW_CFA_advance_loc2: 2828 to 000000000041bd8b
  DW_CFA_restore: r6 (rbp)
  DW_CFA_nop
  DW_CFA_nop
  DW_CFA_nop

00001848 0000000000000024 000017a4 FDE cie=000000a8 pc=000000000041bd8c..000000000041c913
  DW_CFA_advance_loc: 1 to 000000000041bd8d
  DW_CFA_def_cfa_offset: 16
  DW_CFA_advance_loc: 3 to 000000000041bd90
  DW_CFA_def_cfa: r6 (rbp) ofs 16
  DW_CFA_offset: r6 (rbp) at cfa-16
  DW_CFA_advance_loc2: 2946 to 000000000041c912
  DW_CFA_restore: r6 (rbp)
  DW_CFA_nop
  DW_CFA_nop
  DW_CFA_nop

00001870 0000000000000024 000017cc FDE cie=000000a8 pc=000000000041c913..000000000041d510
  DW_CFA_advance_loc: 1 to 000000000041c914
  DW_CFA_def_cfa_offset: 16
  DW_CFA_advance_loc: 3 to 000000000041c917
  DW_CFA_def_cfa: r6 (rbp) ofs 16
  DW_CFA_offset: r6 (rbp) at cfa-16
  DW_CFA_advance_loc2: 3064 to 000000000041d50f
  DW_CFA_restore: r6 (rbp)
  DW_CFA_nop
  DW_CFA_nop
  DW_CFA_nop

00001898 0000000000000024 000017f4 FDE cie=000000a8 pc=000000000041d510..000000000041e183
  DW_CFA_advance_loc: 1 to 000000000041d511
  DW_CFA_def_cfa_offset: 16
  DW_CFA_advance_loc: 3 to 000000000041d514
  DW_CFA_def_cfa: r6 (rbp) ofs 16
  DW_CFA_offset: r6 (rbp) at cfa-16
  DW_CFA_advance_loc2: 3182 to 000000000041e182
  DW_CFA_restore: r6 (rbp)
  DW_CFA_nop
  DW_CFA_nop
  DW_CFA_nop

000018c0 0000000000000024 0000181c FDE cie=000000a8 pc=000000000041e183..000000000041ee6c
  DW_CFA_advance_loc: 1 to 000000000041e184
  DW_CFA_def_cfa_offset: 16
  DW_CFA_advance_loc: 3 to 000000000041e187
  DW_CFA_def_cfa: r6 (rbp) ofs 16
  DW_CFA_offset: r6 (rbp) at cfa-16
  DW_CFA_advance_loc2: 3300 to 000000000041ee6b
  DW_CFA_restore: r6 (rbp)
  DW_CFA_nop
  DW_CFA_nop
  DW_CFA_nop

000018e8 0000000000000024 00001844 FDE cie=000000a8 pc=000000000041ee6c..000000000042664c
  DW_CFA_advance_loc: 1 to 000000000041ee6d
  DW_CFA_def_cfa_offset: 16
  DW_CFA_advance_loc: 3 to 000000000041ee70
  DW_CFA_def_cfa: r6 (rbp) ofs 16
  DW_CFA_offset: r6 (rbp) at cfa-16
  DW_CFA_advance_loc2: 30683 to 000000000042664b
  DW_CFA_restore: r6 (rbp)
  DW_CFA_nop
  DW_CFA_nop
  DW_CFA_nop

00001910 0000000000000024 0000186c FDE cie=000000a8 pc=000000000042664c..00000000004274d5
  DW_CFA_advance_loc: 1 to 000000000042664d
  DW_CFA_def_cfa_offset: 16
  DW_CFA_advance_loc: 3 to 0000000000426650
  DW_CFA_def_cfa: r6 (rbp) ofs 16
  DW_CFA_offset: r6 (rbp) at cfa-16
  DW_CFA_advance_loc2: 3716 to 00000000004274d4
  DW_CFA_restore: r6 (rbp)
  DW_CFA_nop
  DW_CFA_nop
  DW_CFA_nop

00001938 000000000000002c 00001894 FDE cie=000000a8 pc=00000000004274d5..0000000000427dc5
  DW_CFA_advance_loc: 1 to 00000000004274d6
  DW_CFA_def_cfa_offset: 16
  DW_CFA_advance_loc: 3 to 00000000004274d9
  DW_CFA_def_cfa: r6 (rbp) ofs 16
  DW_CFA_offset: r6 (rbp) at cfa-16
  DW_CFA_advance_loc: 35 to 00000000004274fc
  DW_CFA_offset: r3 (rbx) at cfa-32
  DW_CFA_advance_loc2: 2247 to 0000000000427dc3
  DW_CFA_restore: r3 (rbx)
  DW_CFA_advance_loc: 1 to 0000000000427dc4
  DW_CFA_restore: r6 (rbp)
  DW_CFA_nop
  DW_CFA_nop
  DW_CFA_nop
  DW_CFA_nop
  DW_CFA_nop
  DW_CFA_nop

00001968 0000000000000024 000018c4 FDE cie=000000a8 pc=0000000000427dc5..0000000000428105
  DW_CFA_advance_loc: 1 to 0000000000427dc6
  DW_CFA_def_cfa_offset: 16
  DW_CFA_advance_loc: 3 to 0000000000427dc9
  DW_CFA_def_cfa: r6 (rbp) ofs 16
  DW_CFA_offset: r6 (rbp) at cfa-16
  DW_CFA_advance_loc2: 827 to 0000000000428104
  DW_CFA_restore: r6 (rbp)
  DW_CFA_nop
  DW_CFA_nop
  DW_CFA_nop

00001990 0000000000000024 000018ec FDE cie=000000a8 pc=0000000000428105..000000000042855c
  DW_CFA_advance_loc: 1 to 0000000000428106
  DW_CFA_def_cfa_offset: 16
  DW_CFA_advance_loc: 3 to 0000000000428109
  DW_CFA_def_cfa: r6 (rbp) ofs 16
  DW_CFA_offset: r6 (rbp) at cfa-16
  DW_CFA_advance_loc2: 1106 to 000000000042855b
  DW_CFA_restore: r6 (rbp)
  DW_CFA_nop
  DW_CFA_nop
  DW_CFA_nop

000019b8 0000000000000024 00001914 FDE cie=000000a8 pc=000000000042855c..0000000000428e0c
  DW_CFA_advance_loc: 1 to 000000000042855d
  DW_CFA_def_cfa_offset: 16
  DW_CFA_advance_loc: 3 to 0000000000428560
  DW_CFA_def_cfa: r6 (rbp) ofs 16
  DW_CFA_offset: r6 (rbp) at cfa-16
  DW_CFA_advance_loc2: 2219 to 0000000000428e0b
  DW_CFA_restore: r6 (rbp)
  DW_CFA_nop
  DW_CFA_nop
  DW_CFA_nop

000019e0 0000000000000024 0000193c FDE cie=000000a8 pc=0000000000428e0c..0000000000429103
  DW_CFA_advance_loc: 1 to 0000000000428e0d
  DW_CFA_def_cfa_offset: 16
  DW_CFA_advance_loc: 3 to 0000000000428e10
  DW_CFA_def_cfa: r6 (rbp) ofs 16
  DW_CFA_offset: r6 (rbp) at cfa-16
  DW_CFA_advance_loc2: 754 to 0000000000429102
  DW_CFA_restore: r6 (rbp)
  DW_CFA_nop
  DW_CFA_nop
  DW_CFA_nop

00001a08 000000000000002c 00001964 FDE cie=000000a8 pc=0000000000429103..0000000000429cb4
  DW_CFA_advance_loc: 1 to 0000000000429104
  DW_CFA_def_cfa_offset: 16
  DW_CFA_advance_loc: 3 to 0000000000429107
  DW_CFA_def_cfa: r6 (rbp) ofs 16
  DW_CFA_offset: r6 (rbp) at cfa-16
  DW_CFA_advance_loc2: 464 to 00000000004292d7
  DW_CFA_offset: r3 (rbx) at cfa-32
  DW_CFA_advance_loc2: 2523 to 0000000000429cb2
  DW_CFA_restore: r3 (rbx)
  DW_CFA_advance_loc: 1 to 0000000000429cb3
  DW_CFA_restore: r6 (rbp)
  DW_CFA_nop
  DW_CFA_nop
  DW_CFA_nop
  DW_CFA_nop

00001a38 0000000000000024 00001994 FDE cie=000000a8 pc=0000000000429cb4..0000000000429eef
  DW_CFA_advance_loc: 1 to 0000000000429cb5
  DW_CFA_def_cfa_offset: 16
  DW_CFA_advance_loc: 3 to 0000000000429cb8
  DW_CFA_def_cfa: r6 (rbp) ofs 16
  DW_CFA_offset: r6 (rbp) at cfa-16
  DW_CFA_advance_loc2: 566 to 0000000000429eee
  DW_CFA_restore: r6 (rbp)
  DW_CFA_nop
  DW_CFA_nop
  DW_CFA_nop

00001a60 0000000000000024 000019bc FDE cie=000000a8 pc=0000000000429eef..000000000042a199
  DW_CFA_advance_loc: 1 to 0000000000429ef0
  DW_CFA_def_cfa_offset: 16
  DW_CFA_advance_loc: 3 to 0000000000429ef3
  DW_CFA_def_cfa: r6 (rbp) ofs 16
  DW_CFA_offset: r6 (rbp) at cfa-16
  DW_CFA_advance_loc2: 677 to 000000000042a198
  DW_CFA_restore: r6 (rbp)
  DW_CFA_nop
  DW_CFA_nop
  DW_CFA_nop

00001a88 0000000000000024 000019e4 FDE cie=000000a8 pc=000000000042a199..000000000042a4b2
  DW_CFA_advance_loc: 1 to 000000000042a19a
  DW_CFA_def_cfa_offset: 16
  DW_CFA_advance_loc: 3 to 000000000042a19d
  DW_CFA_def_cfa: r6 (rbp) ofs 16
  DW_CFA_offset: r6 (rbp) at cfa-16
  DW_CFA_advance_loc2: 788 to 000000000042a4b1
  DW_CFA_restore: r6 (rbp)
  DW_CFA_nop
  DW_CFA_nop
  DW_CFA_nop

00001ab0 0000000000000024 00001a0c FDE cie=000000a8 pc=000000000042a4b2..000000000042a83a
  DW_CFA_advance_loc: 1 to 000000000042a4b3
  DW_CFA_def_cfa_offset: 16
  DW_CFA_advance_loc: 3 to 000000000042a4b6
  DW_CFA_def_cfa: r6 (rbp) ofs 16
  DW_CFA_offset: r6 (rbp) at cfa-16
  DW_CFA_advance_loc2: 899 to 000000000042a839
  DW_CFA_restore: r6 (rbp)
  DW_CFA_nop
  DW_CFA_nop
  DW_CFA_nop

00001ad8 0000000000000024 00001a34 FDE cie=000000a8 pc=000000000042a83a..000000000042ac31
  DW_CFA_advance_loc: 1 to 000000000042a83b
  DW_CFA_def_cfa_offset: 16
  DW_CFA_advance_loc: 3 to 000000000042a83e
  DW_CFA_def_cfa: r6 (rbp) ofs 16
  DW_CFA_offset: r6 (rbp) at cfa-16
  DW_CFA_advance_loc2: 1010 to 000000000042ac30
  DW_CFA_restore: r6 (rbp)
  DW_CFA_nop
  DW_CFA_nop
  DW_CFA_nop

00001b00 0000000000000024 00001a5c FDE cie=000000a8 pc=000000000042ac31..000000000042b097
  DW_CFA_advance_loc: 1 to 000000000042ac32
  DW_CFA_def_cfa_offset: 16
  DW_CFA_advance_loc: 3 to 000000000042ac35
  DW_CFA_def_cfa: r6 (rbp) ofs 16
  DW_CFA_offset: r6 (rbp) at cfa-16
  DW_CFA_advance_loc2: 1121 to 000000000042b096
  DW_CFA_restore: r6 (rbp)
  DW_CFA_nop
  DW_CFA_nop
  DW_CFA_nop

00001b28 0000000000000024 00001a84 FDE cie=000000a8 pc=000000000042b097..000000000042b56c
  DW_CFA_advance_loc: 1 to 000000000042b098
  DW_CFA_def_cfa_offset: 16
  DW_CFA_advance_loc: 3 to 000000000042b09b
  DW_CFA_def_cfa: r6 (rbp) ofs 16
  DW_CFA_offset: r6 (rbp) at cfa-16
  DW_CFA_advance_loc2: 1232 to 000000000042b56b
  DW_CFA_restore: r6 (rbp)
  DW_CFA_nop
  DW_CFA_nop
  DW_CFA_nop

00001b50 0000000000000024 00001aac FDE cie=000000a8 pc=000000000042b56c..000000000042bab0
  DW_CFA_advance_loc: 1 to 000000000042b56d
  DW_CFA_def_cfa_offset: 16
  DW_CFA_advance_loc: 3 to 000000000042b570
  DW_CFA_def_cfa: r6 (rbp) ofs 16
  DW_CFA_offset: r6 (rbp) at cfa-16
  DW_CFA_advance_loc2: 1343 to 000000000042baaf
  DW_CFA_restore: r6 (rbp)
  DW_CFA_nop
  DW_CFA_nop
  DW_CFA_nop

00001b78 0000000000000024 00001ad4 FDE cie=000000a8 pc=000000000042bab0..000000000042c063
  DW_CFA_advance_loc: 1 to 000000000042bab1
  DW_CFA_def_cfa_offset: 16
  DW_CFA_advance_loc: 3 to 000000000042bab4
  DW_CFA_def_cfa: r6 (rbp) ofs 16
  DW_CFA_offset: r6 (rbp) at cfa-16
  DW_CFA_advance_loc2: 1454 to 000000000042c062
  DW_CFA_restore: r6 (rbp)
  DW_CFA_nop
  DW_CFA_nop
  DW_CFA_nop

00001ba0 0000000000000024 00001afc FDE cie=000000a8 pc=000000000042c063..000000000042c685
  DW_CFA_advance_loc: 1 to 000000000042c064
  DW_CFA_def_cfa_offset: 16
  DW_CFA_advance_loc: 3 to 000000000042c067
  DW_CFA_def_cfa: r6 (rbp) ofs 16
  DW_CFA_offset: r6 (rbp) at cfa-16
  DW_CFA_advance_loc2: 1565 to 000000000042c684
  DW_CFA_restore: r6 (rbp)
  DW_CFA_nop
  DW_CFA_nop
  DW_CFA_nop

00001bc8 0000000000000024 00001b24 FDE cie=000000a8 pc=000000000042c685..000000000042cd16
  DW_CFA_advance_loc: 1 to 000000000042c686
  DW_CFA_def_cfa_offset: 16
  DW_CFA_advance_loc: 3 to 000000000042c689
  DW_CFA_def_cfa: r6 (rbp) ofs 16
  DW_CFA_offset: r6 (rbp) at cfa-16
  DW_CFA_advance_loc2: 1676 to 000000000042cd15
  DW_CFA_restore: r6 (rbp)
  DW_CFA_nop
  DW_CFA_nop
  DW_CFA_nop

00001bf0 0000000000000024 00001b4c FDE cie=000000a8 pc=000000000042cd16..000000000042d416
  DW_CFA_advance_loc: 1 to 000000000042cd17
  DW_CFA_def_cfa_offset: 16
  DW_CFA_advance_loc: 3 to 000000000042cd1a
  DW_CFA_def_cfa: r6 (rbp) ofs 16
  DW_CFA_offset: r6 (rbp) at cfa-16
  DW_CFA_advance_loc2: 1787 to 000000000042d415
  DW_CFA_restore: r6 (rbp)
  DW_CFA_nop
  DW_CFA_nop
  DW_CFA_nop

00001c18 0000000000000024 00001b74 FDE cie=000000a8 pc=000000000042d416..000000000042db85
  DW_CFA_advance_loc: 1 to 000000000042d417
  DW_CFA_def_cfa_offset: 16
  DW_CFA_advance_loc: 3 to 000000000042d41a
  DW_CFA_def_cfa: r6 (rbp) ofs 16
  DW_CFA_offset: r6 (rbp) at cfa-16
  DW_CFA_advance_loc2: 1898 to 000000000042db84
  DW_CFA_restore: r6 (rbp)
  DW_CFA_nop
  DW_CFA_nop
  DW_CFA_nop

00001c40 0000000000000024 00001b9c FDE cie=000000a8 pc=000000000042db85..000000000042e363
  DW_CFA_advance_loc: 1 to 000000000042db86
  DW_CFA_def_cfa_offset: 16
  DW_CFA_advance_loc: 3 to 000000000042db89
  DW_CFA_def_cfa: r6 (rbp) ofs 16
  DW_CFA_offset: r6 (rbp) at cfa-16
  DW_CFA_advance_loc2: 2009 to 000000000042e362
  DW_CFA_restore: r6 (rbp)
  DW_CFA_nop
  DW_CFA_nop
  DW_CFA_nop

00001c68 0000000000000024 00001bc4 FDE cie=000000a8 pc=000000000042e363..000000000042ebdd
  DW_CFA_advance_loc: 1 to 000000000042e364
  DW_CFA_def_cfa_offset: 16
  DW_CFA_advance_loc: 3 to 000000000042e367
  DW_CFA_def_cfa: r6 (rbp) ofs 16
  DW_CFA_offset: r6 (rbp) at cfa-16
  DW_CFA_advance_loc2: 2165 to 000000000042ebdc
  DW_CFA_restore: r6 (rbp)
  DW_CFA_nop
  DW_CFA_nop
  DW_CFA_nop

00001c90 0000000000000024 00001bec FDE cie=000000a8 pc=000000000042ebdd..000000000042f4f6
  DW_CFA_advance_loc: 1 to 000000000042ebde
  DW_CFA_def_cfa_offset: 16
  DW_CFA_advance_loc: 3 to 000000000042ebe1
  DW_CFA_def_cfa: r6 (rbp) ofs 16
  DW_CFA_offset: r6 (rbp) at cfa-16
  DW_CFA_advance_loc2: 2324 to 000000000042f4f5
  DW_CFA_restore: r6 (rbp)
  DW_CFA_nop
  DW_CFA_nop
  DW_CFA_nop

00001cb8 000000000000002c 00001c14 FDE cie=000000a8 pc=000000000042f4f6..00000000004300a7
  DW_CFA_advance_loc: 1 to 000000000042f4f7
  DW_CFA_def_cfa_offset: 16
  DW_CFA_advance_loc: 3 to 000000000042f4fa
  DW_CFA_def_cfa: r6 (rbp) ofs 16
  DW_CFA_offset: r6 (rbp) at cfa-16
  DW_CFA_advance_loc2: 503 to 000000000042f6f1
  DW_CFA_offset: r3 (rbx) at cfa-32
  DW_CFA_advance_loc2: 2484 to 00000000004300a5
  DW_CFA_restore: r3 (rbx)
  DW_CFA_advance_loc: 1 to 00000000004300a6
  DW_CFA_restore: r6 (rbp)
  DW_CFA_nop
  DW_CFA_nop
  DW_CFA_nop
  DW_CFA_nop

00001ce8 0000000000000024 00001c44 FDE cie=000000a8 pc=00000000004300a7..00000000004315c9
  DW_CFA_advance_loc: 1 to 00000000004300a8
  DW_CFA_def_cfa_offset: 16
  DW_CFA_advance_loc: 3 to 00000000004300ab
  DW_CFA_def_cfa: r6 (rbp) ofs 16
  DW_CFA_offset: r6 (rbp) at cfa-16
  DW_CFA_advance_loc2: 5405 to 00000000004315c8
  DW_CFA_restore: r6 (rbp)
  DW_CFA_nop
  DW_CFA_nop
  DW_CFA_nop

00001d10 0000000000000024 00001c6c FDE cie=000000a8 pc=00000000004315c9..00000000004329af
  DW_CFA_advance_loc: 1 to 00000000004315ca
  DW_CFA_def_cfa_offset: 16
  DW_CFA_advance_loc: 3 to 00000000004315cd
  DW_CFA_def_cfa: r6 (rbp) ofs 16
  DW_CFA_offset: r6 (rbp) at cfa-16
  DW_CFA_advance_loc2: 5089 to 00000000004329ae
  DW_CFA_restore: r6 (rbp)
  DW_CFA_nop
  DW_CFA_nop
  DW_CFA_nop

00001d38 0000000000000024 00001c94 FDE cie=000000a8 pc=00000000004329af..0000000000433c33
  DW_CFA_advance_loc: 1 to 00000000004329b0
  DW_CFA_def_cfa_offset: 16
  DW_CFA_advance_loc: 3 to 00000000004329b3
  DW_CFA_def_cfa: r6 (rbp) ofs 16
  DW_CFA_offset: r6 (rbp) at cfa-16
  DW_CFA_advance_loc2: 4735 to 0000000000433c32
  DW_CFA_restore: r6 (rbp)
  DW_CFA_nop
  DW_CFA_nop
  DW_CFA_nop

00001d60 0000000000000024 00001cbc FDE cie=000000a8 pc=0000000000433c33..0000000000434d87
  DW_CFA_advance_loc: 1 to 0000000000433c34
  DW_CFA_def_cfa_offset: 16
  DW_CFA_advance_loc: 3 to 0000000000433c37
  DW_CFA_def_cfa: r6 (rbp) ofs 16
  DW_CFA_offset: r6 (rbp) at cfa-16
  DW_CFA_advance_loc2: 4431 to 0000000000434d86
  DW_CFA_restore: r6 (rbp)
  DW_CFA_nop
  DW_CFA_nop
  DW_CFA_nop

00001d88 0000000000000024 00001ce4 FDE cie=000000a8 pc=0000000000434d87..0000000000435da5
  DW_CFA_advance_loc: 1 to 0000000000434d88
  DW_CFA_def_cfa_offset: 16
  DW_CFA_advance_loc: 3 to 0000000000434d8b
  DW_CFA_def_cfa: r6 (rbp) ofs 16
  DW_CFA_offset: r6 (rbp) at cfa-16
  DW_CFA_advance_loc2: 4121 to 0000000000435da4
  DW_CFA_restore: r6 (rbp)
  DW_CFA_nop
  DW_CFA_nop
  DW_CFA_nop

00001db0 0000000000000024 00001d0c FDE cie=000000a8 pc=0000000000435da5..0000000000436c93
  DW_CFA_advance_loc: 1 to 0000000000435da6
  DW_CFA_def_cfa_offset: 16
  DW_CFA_advance_loc: 3 to 0000000000435da9
  DW_CFA_def_cfa: r6 (rbp) ofs 16
  DW_CFA_offset: r6 (rbp) at cfa-16
  DW_CFA_advance_loc2: 3817 to 0000000000436c92
  DW_CFA_restore: r6 (rbp)
  DW_CFA_nop
  DW_CFA_nop
  DW_CFA_nop

00001dd8 0000000000000024 00001d34 FDE cie=000000a8 pc=0000000000436c93..0000000000437a45
  DW_CFA_advance_loc: 1 to 0000000000436c94
  DW_CFA_def_cfa_offset: 16
  DW_CFA_advance_loc: 3 to 0000000000436c97
  DW_CFA_def_cfa: r6 (rbp) ofs 16
  DW_CFA_offset: r6 (rbp) at cfa-16
  DW_CFA_advance_loc2: 3501 to 0000000000437a44
  DW_CFA_restore: r6 (rbp)
  DW_CFA_nop
  DW_CFA_nop
  DW_CFA_nop

00001e00 0000000000000024 00001d5c FDE cie=000000a8 pc=0000000000437a45..00000000004386c7
  DW_CFA_advance_loc: 1 to 0000000000437a46
  DW_CFA_def_cfa_offset: 16
  DW_CFA_advance_loc: 3 to 0000000000437a49
  DW_CFA_def_cfa: r6 (rbp) ofs 16
  DW_CFA_offset: r6 (rbp) at cfa-16
  DW_CFA_advance_loc2: 3197 to 00000000004386c6
  DW_CFA_restore: r6 (rbp)
  DW_CFA_nop
  DW_CFA_nop
  DW_CFA_nop

00001e28 0000000000000024 00001d84 FDE cie=000000a8 pc=00000000004386c7..0000000000439210
  DW_CFA_advance_loc: 1 to 00000000004386c8
  DW_CFA_def_cfa_offset: 16
  DW_CFA_advance_loc: 3 to 00000000004386cb
  DW_CFA_def_cfa: r6 (rbp) ofs 16
  DW_CFA_offset: r6 (rbp) at cfa-16
  DW_CFA_advance_loc2: 2884 to 000000000043920f
  DW_CFA_restore: r6 (rbp)
  DW_CFA_nop
  DW_CFA_nop
  DW_CFA_nop

00001e50 0000000000000024 00001dac FDE cie=000000a8 pc=0000000000439210..0000000000439c0d
  DW_CFA_advance_loc: 1 to 0000000000439211
  DW_CFA_def_cfa_offset: 16
  DW_CFA_advance_loc: 3 to 0000000000439214
  DW_CFA_def_cfa: r6 (rbp) ofs 16
  DW_CFA_offset: r6 (rbp) at cfa-16
  DW_CFA_advance_loc2: 2552 to 0000000000439c0c
  DW_CFA_restore: r6 (rbp)
  DW_CFA_nop
  DW_CFA_nop
  DW_CFA_nop

00001e78 0000000000000024 00001dd4 FDE cie=000000a8 pc=0000000000439c0d..000000000043a4d1
  DW_CFA_advance_loc: 1 to 0000000000439c0e
  DW_CFA_def_cfa_offset: 16
  DW_CFA_advance_loc: 3 to 0000000000439c11
  DW_CFA_def_cfa: r6 (rbp) ofs 16
  DW_CFA_offset: r6 (rbp) at cfa-16
  DW_CFA_advance_loc2: 2239 to 000000000043a4d0
  DW_CFA_restore: r6 (rbp)
  DW_CFA_nop
  DW_CFA_nop
  DW_CFA_nop

00001ea0 0000000000000024 00001dfc FDE cie=000000a8 pc=000000000043a4d1..000000000043ac65
  DW_CFA_advance_loc: 1 to 000000000043a4d2
  DW_CFA_def_cfa_offset: 16
  DW_CFA_advance_loc: 3 to 000000000043a4d5
  DW_CFA_def_cfa: r6 (rbp) ofs 16
  DW_CFA_offset: r6 (rbp) at cfa-16
  DW_CFA_advance_loc2: 1935 to 000000000043ac64
  DW_CFA_restore: r6 (rbp)
  DW_CFA_nop
  DW_CFA_nop
  DW_CFA_nop

00001ec8 0000000000000024 00001e24 FDE cie=000000a8 pc=000000000043ac65..000000000043b2bd
  DW_CFA_advance_loc: 1 to 000000000043ac66
  DW_CFA_def_cfa_offset: 16
  DW_CFA_advance_loc: 3 to 000000000043ac69
  DW_CFA_def_cfa: r6 (rbp) ofs 16
  DW_CFA_offset: r6 (rbp) at cfa-16
  DW_CFA_advance_loc2: 1619 to 000000000043b2bc
  DW_CFA_restore: r6 (rbp)
  DW_CFA_nop
  DW_CFA_nop
  DW_CFA_nop

00001ef0 0000000000000024 00001e4c FDE cie=000000a8 pc=000000000043b2bd..000000000043b7e5
  DW_CFA_advance_loc: 1 to 000000000043b2be
  DW_CFA_def_cfa_offset: 16
  DW_CFA_advance_loc: 3 to 000000000043b2c1
  DW_CFA_def_cfa: r6 (rbp) ofs 16
  DW_CFA_offset: r6 (rbp) at cfa-16
  DW_CFA_advance_loc2: 1315 to 000000000043b7e4
  DW_CFA_restore: r6 (rbp)
  DW_CFA_nop
  DW_CFA_nop
  DW_CFA_nop

00001f18 0000000000000024 00001e74 FDE cie=000000a8 pc=000000000043b7e5..000000000043bbd4
  DW_CFA_advance_loc: 1 to 000000000043b7e6
  DW_CFA_def_cfa_offset: 16
  DW_CFA_advance_loc: 3 to 000000000043b7e9
  DW_CFA_def_cfa: r6 (rbp) ofs 16
  DW_CFA_offset: r6 (rbp) at cfa-16
  DW_CFA_advance_loc2: 1002 to 000000000043bbd3
  DW_CFA_restore: r6 (rbp)
  DW_CFA_nop
  DW_CFA_nop
  DW_CFA_nop

00001f40 0000000000000024 00001e9c FDE cie=000000a8 pc=000000000043bbd4..000000000043be93
  DW_CFA_advance_loc: 1 to 000000000043bbd5
  DW_CFA_def_cfa_offset: 16
  DW_CFA_advance_loc: 3 to 000000000043bbd8
  DW_CFA_def_cfa: r6 (rbp) ofs 16
  DW_CFA_offset: r6 (rbp) at cfa-16
  DW_CFA_advance_loc2: 698 to 000000000043be92
  DW_CFA_restore: r6 (rbp)
  DW_CFA_nop
  DW_CFA_nop
  DW_CFA_nop

00001f68 0000000000000024 00001ec4 FDE cie=000000a8 pc=000000000043be93..000000000043c032
  DW_CFA_advance_loc: 1 to 000000000043be94
  DW_CFA_def_cfa_offset: 16
  DW_CFA_advance_loc: 3 to 000000000043be97
  DW_CFA_def_cfa: r6 (rbp) ofs 16
  DW_CFA_offset: r6 (rbp) at cfa-16
  DW_CFA_advance_loc2: 410 to 000000000043c031
  DW_CFA_restore: r6 (rbp)
  DW_CFA_nop
  DW_CFA_nop
  DW_CFA_nop

00001f90 000000000000002c 00001eec FDE cie=000000a8 pc=000000000043c032..000000000043cd3e
  DW_CFA_advance_loc: 1 to 000000000043c033
  DW_CFA_def_cfa_offset: 16
  DW_CFA_advance_loc: 3 to 000000000043c036
  DW_CFA_def_cfa: r6 (rbp) ofs 16
  DW_CFA_offset: r6 (rbp) at cfa-16
  DW_CFA_advance_loc2: 456 to 000000000043c1fe
  DW_CFA_offset: r3 (rbx) at cfa-32
  DW_CFA_advance_loc2: 2878 to 000000000043cd3c
  DW_CFA_restore: r3 (rbx)
  DW_CFA_advance_loc: 1 to 000000000043cd3d
  DW_CFA_restore: r6 (rbp)
  DW_CFA_nop
  DW_CFA_nop
  DW_CFA_nop
  DW_CFA_nop

00001fc0 0000000000000024 00001f1c FDE cie=000000a8 pc=000000000043cd3e..000000000043cf79
  DW_CFA_advance_loc: 1 to 000000000043cd3f
  DW_CFA_def_cfa_offset: 16
  DW_CFA_advance_loc: 3 to 000000000043cd42
  DW_CFA_def_cfa: r6 (rbp) ofs 16
  DW_CFA_offset: r6 (rbp) at cfa-16
  DW_CFA_advance_loc2: 566 to 000000000043cf78
  DW_CFA_restore: r6 (rbp)
  DW_CFA_nop
  DW_CFA_nop
  DW_CFA_nop

00001fe8 0000000000000024 00001f44 FDE cie=000000a8 pc=000000000043cf79..000000000043d223
  DW_CFA_advance_loc: 1 to 000000000043cf7a
  DW_CFA_def_cfa_offset: 16
  DW_CFA_advance_loc: 3 to 000000000043cf7d
  DW_CFA_def_cfa: r6 (rbp) ofs 16
  DW_CFA_offset: r6 (rbp) at cfa-16
  DW_CFA_advance_loc2: 677 to 000000000043d222
  DW_CFA_restore: r6 (rbp)
  DW_CFA_nop
  DW_CFA_nop
  DW_CFA_nop

00002010 0000000000000024 00001f6c FDE cie=000000a8 pc=000000000043d223..000000000043d53c
  DW_CFA_advance_loc: 1 to 000000000043d224
  DW_CFA_def_cfa_offset: 16
  DW_CFA_advance_loc: 3 to 000000000043d227
  DW_CFA_def_cfa: r6 (rbp) ofs 16
  DW_CFA_offset: r6 (rbp) at cfa-16
  DW_CFA_advance_loc2: 788 to 000000000043d53b
  DW_CFA_restore: r6 (rbp)
  DW_CFA_nop
  DW_CFA_nop
  DW_CFA_nop

00002038 0000000000000024 00001f94 FDE cie=000000a8 pc=000000000043d53c..000000000043d8c4
  DW_CFA_advance_loc: 1 to 000000000043d53d
  DW_CFA_def_cfa_offset: 16
  DW_CFA_advance_loc: 3 to 000000000043d540
  DW_CFA_def_cfa: r6 (rbp) ofs 16
  DW_CFA_offset: r6 (rbp) at cfa-16
  DW_CFA_advance_loc2: 899 to 000000000043d8c3
  DW_CFA_restore: r6 (rbp)
  DW_CFA_nop
  DW_CFA_nop
  DW_CFA_nop

00002060 0000000000000024 00001fbc FDE cie=000000a8 pc=000000000043d8c4..000000000043dcbb
  DW_CFA_advance_loc: 1 to 000000000043d8c5
  DW_CFA_def_cfa_offset: 16
  DW_CFA_advance_loc: 3 to 000000000043d8c8
  DW_CFA_def_cfa: r6 (rbp) ofs 16
  DW_CFA_offset: r6 (rbp) at cfa-16
  DW_CFA_advance_loc2: 1010 to 000000000043dcba
  DW_CFA_restore: r6 (rbp)
  DW_CFA_nop
  DW_CFA_nop
  DW_CFA_nop

00002088 0000000000000024 00001fe4 FDE cie=000000a8 pc=000000000043dcbb..000000000043e121
  DW_CFA_advance_loc: 1 to 000000000043dcbc
  DW_CFA_def_cfa_offset: 16
  DW_CFA_advance_loc: 3 to 000000000043dcbf
  DW_CFA_def_cfa: r6 (rbp) ofs 16
  DW_CFA_offset: r6 (rbp) at cfa-16
  DW_CFA_advance_loc2: 1121 to 000000000043e120
  DW_CFA_restore: r6 (rbp)
  DW_CFA_nop
  DW_CFA_nop
  DW_CFA_nop

000020b0 0000000000000024 0000200c FDE cie=000000a8 pc=000000000043e121..000000000043e5f6
  DW_CFA_advance_loc: 1 to 000000000043e122
  DW_CFA_def_cfa_offset: 16
  DW_CFA_advance_loc: 3 to 000000000043e125
  DW_CFA_def_cfa: r6 (rbp) ofs 16
  DW_CFA_offset: r6 (rbp) at cfa-16
  DW_CFA_advance_loc2: 1232 to 000000000043e5f5
  DW_CFA_restore: r6 (rbp)
  DW_CFA_nop
  DW_CFA_nop
  DW_CFA_nop

000020d8 0000000000000024 00002034 FDE cie=000000a8 pc=000000000043e5f6..000000000043eb3a
  DW_CFA_advance_loc: 1 to 000000000043e5f7
  DW_CFA_def_cfa_offset: 16
  DW_CFA_advance_loc: 3 to 000000000043e5fa
  DW_CFA_def_cfa: r6 (rbp) ofs 16
  DW_CFA_offset: r6 (rbp) at cfa-16
  DW_CFA_advance_loc2: 1343 to 000000000043eb39
  DW_CFA_restore: r6 (rbp)
  DW_CFA_nop
  DW_CFA_nop
  DW_CFA_nop

00002100 0000000000000024 0000205c FDE cie=000000a8 pc=000000000043eb3a..000000000043f0ed
  DW_CFA_advance_loc: 1 to 000000000043eb3b
  DW_CFA_def_cfa_offset: 16
  DW_CFA_advance_loc: 3 to 000000000043eb3e
  DW_CFA_def_cfa: r6 (rbp) ofs 16
  DW_CFA_offset: r6 (rbp) at cfa-16
  DW_CFA_advance_loc2: 1454 to 000000000043f0ec
  DW_CFA_restore: r6 (rbp)
  DW_CFA_nop
  DW_CFA_nop
  DW_CFA_nop

00002128 0000000000000024 00002084 FDE cie=000000a8 pc=000000000043f0ed..000000000043f70f
  DW_CFA_advance_loc: 1 to 000000000043f0ee
  DW_CFA_def_cfa_offset: 16
  DW_CFA_advance_loc: 3 to 000000000043f0f1
  DW_CFA_def_cfa: r6 (rbp) ofs 16
  DW_CFA_offset: r6 (rbp) at cfa-16
  DW_CFA_advance_loc2: 1565 to 000000000043f70e
  DW_CFA_restore: r6 (rbp)
  DW_CFA_nop
  DW_CFA_nop
  DW_CFA_nop

00002150 0000000000000024 000020ac FDE cie=000000a8 pc=000000000043f70f..000000000043fda0
  DW_CFA_advance_loc: 1 to 000000000043f710
  DW_CFA_def_cfa_offset: 16
  DW_CFA_advance_loc: 3 to 000000000043f713
  DW_CFA_def_cfa: r6 (rbp) ofs 16
  DW_CFA_offset: r6 (rbp) at cfa-16
  DW_CFA_advance_loc2: 1676 to 000000000043fd9f
  DW_CFA_restore: r6 (rbp)
  DW_CFA_nop
  DW_CFA_nop
  DW_CFA_nop

00002178 0000000000000024 000020d4 FDE cie=000000a8 pc=000000000043fda0..00000000004404a0
  DW_CFA_advance_loc: 1 to 000000000043fda1
  DW_CFA_def_cfa_offset: 16
  DW_CFA_advance_loc: 3 to 000000000043fda4
  DW_CFA_def_cfa: r6 (rbp) ofs 16
  DW_CFA_offset: r6 (rbp) at cfa-16
  DW_CFA_advance_loc2: 1787 to 000000000044049f
  DW_CFA_restore: r6 (rbp)
  DW_CFA_nop
  DW_CFA_nop
  DW_CFA_nop

000021a0 0000000000000024 000020fc FDE cie=000000a8 pc=00000000004404a0..0000000000440c0f
  DW_CFA_advance_loc: 1 to 00000000004404a1
  DW_CFA_def_cfa_offset: 16
  DW_CFA_advance_loc: 3 to 00000000004404a4
  DW_CFA_def_cfa: r6 (rbp) ofs 16
  DW_CFA_offset: r6 (rbp) at cfa-16
  DW_CFA_advance_loc2: 1898 to 0000000000440c0e
  DW_CFA_restore: r6 (rbp)
  DW_CFA_nop
  DW_CFA_nop
  DW_CFA_nop

000021c8 0000000000000024 00002124 FDE cie=000000a8 pc=0000000000440c0f..00000000004413ed
  DW_CFA_advance_loc: 1 to 0000000000440c10
  DW_CFA_def_cfa_offset: 16
  DW_CFA_advance_loc: 3 to 0000000000440c13
  DW_CFA_def_cfa: r6 (rbp) ofs 16
  DW_CFA_offset: r6 (rbp) at cfa-16
  DW_CFA_advance_loc2: 2009 to 00000000004413ec
  DW_CFA_restore: r6 (rbp)
  DW_CFA_nop
  DW_CFA_nop
  DW_CFA_nop

000021f0 0000000000000024 0000214c FDE cie=000000a8 pc=00000000004413ed..0000000000441c67
  DW_CFA_advance_loc: 1 to 00000000004413ee
  DW_CFA_def_cfa_offset: 16
  DW_CFA_advance_loc: 3 to 00000000004413f1
  DW_CFA_def_cfa: r6 (rbp) ofs 16
  DW_CFA_offset: r6 (rbp) at cfa-16
  DW_CFA_advance_loc2: 2165 to 0000000000441c66
  DW_CFA_restore: r6 (rbp)
  DW_CFA_nop
  DW_CFA_nop
  DW_CFA_nop

00002218 0000000000000024 00002174 FDE cie=000000a8 pc=0000000000441c67..0000000000442580
  DW_CFA_advance_loc: 1 to 0000000000441c68
  DW_CFA_def_cfa_offset: 16
  DW_CFA_advance_loc: 3 to 0000000000441c6b
  DW_CFA_def_cfa: r6 (rbp) ofs 16
  DW_CFA_offset: r6 (rbp) at cfa-16
  DW_CFA_advance_loc2: 2324 to 000000000044257f
  DW_CFA_restore: r6 (rbp)
  DW_CFA_nop
  DW_CFA_nop
  DW_CFA_nop

00002240 0000000000000024 0000219c FDE cie=000000a8 pc=0000000000442580..0000000000442f2f
  DW_CFA_advance_loc: 1 to 0000000000442581
  DW_CFA_def_cfa_offset: 16
  DW_CFA_advance_loc: 3 to 0000000000442584
  DW_CFA_def_cfa: r6 (rbp) ofs 16
  DW_CFA_offset: r6 (rbp) at cfa-16
  DW_CFA_advance_loc2: 2474 to 0000000000442f2e
  DW_CFA_restore: r6 (rbp)
  DW_CFA_nop
  DW_CFA_nop
  DW_CFA_nop

00002268 0000000000000024 000021c4 FDE cie=000000a8 pc=0000000000442f2f..0000000000443954
  DW_CFA_advance_loc: 1 to 0000000000442f30
  DW_CFA_def_cfa_offset: 16
  DW_CFA_advance_loc: 3 to 0000000000442f33
  DW_CFA_def_cfa: r6 (rbp) ofs 16
  DW_CFA_offset: r6 (rbp) at cfa-16
  DW_CFA_advance_loc2: 2592 to 0000000000443953
  DW_CFA_restore: r6 (rbp)
  DW_CFA_nop
  DW_CFA_nop
  DW_CFA_nop

00002290 0000000000000024 000021ec FDE cie=000000a8 pc=0000000000443954..00000000004443ef
  DW_CFA_advance_loc: 1 to 0000000000443955
  DW_CFA_def_cfa_offset: 16
  DW_CFA_advance_loc: 3 to 0000000000443958
  DW_CFA_def_cfa: r6 (rbp) ofs 16
  DW_CFA_offset: r6 (rbp) at cfa-16
  DW_CFA_advance_loc2: 2710 to 00000000004443ee
  DW_CFA_restore: r6 (rbp)
  DW_CFA_nop
  DW_CFA_nop
  DW_CFA_nop

000022b8 0000000000000024 00002214 FDE cie=000000a8 pc=00000000004443ef..0000000000444f00
  DW_CFA_advance_loc: 1 to 00000000004443f0
  DW_CFA_def_cfa_offset: 16
  DW_CFA_advance_loc: 3 to 00000000004443f3
  DW_CFA_def_cfa: r6 (rbp) ofs 16
  DW_CFA_offset: r6 (rbp) at cfa-16
  DW_CFA_advance_loc2: 2828 to 0000000000444eff
  DW_CFA_restore: r6 (rbp)
  DW_CFA_nop
  DW_CFA_nop
  DW_CFA_nop

000022e0 0000000000000024 0000223c FDE cie=000000a8 pc=0000000000444f00..0000000000445a87
  DW_CFA_advance_loc: 1 to 0000000000444f01
  DW_CFA_def_cfa_offset: 16
  DW_CFA_advance_loc: 3 to 0000000000444f04
  DW_CFA_def_cfa: r6 (rbp) ofs 16
  DW_CFA_offset: r6 (rbp) at cfa-16
  DW_CFA_advance_loc2: 2946 to 0000000000445a86
  DW_CFA_restore: r6 (rbp)
  DW_CFA_nop
  DW_CFA_nop
  DW_CFA_nop

00002308 0000000000000024 00002264 FDE cie=000000a8 pc=0000000000445a87..0000000000446684
  DW_CFA_advance_loc: 1 to 0000000000445a88
  DW_CFA_def_cfa_offset: 16
  DW_CFA_advance_loc: 3 to 0000000000445a8b
  DW_CFA_def_cfa: r6 (rbp) ofs 16
  DW_CFA_offset: r6 (rbp) at cfa-16
  DW_CFA_advance_loc2: 3064 to 0000000000446683
  DW_CFA_restore: r6 (rbp)
  DW_CFA_nop
  DW_CFA_nop
  DW_CFA_nop

00002330 0000000000000024 0000228c FDE cie=000000a8 pc=0000000000446684..00000000004472f7
  DW_CFA_advance_loc: 1 to 0000000000446685
  DW_CFA_def_cfa_offset: 16
  DW_CFA_advance_loc: 3 to 0000000000446688
  DW_CFA_def_cfa: r6 (rbp) ofs 16
  DW_CFA_offset: r6 (rbp) at cfa-16
  DW_CFA_advance_loc2: 3182 to 00000000004472f6
  DW_CFA_restore: r6 (rbp)
  DW_CFA_nop
  DW_CFA_nop
  DW_CFA_nop

00002358 0000000000000024 000022b4 FDE cie=000000a8 pc=00000000004472f7..0000000000447fe0
  DW_CFA_advance_loc: 1 to 00000000004472f8
  DW_CFA_def_cfa_offset: 16
  DW_CFA_advance_loc: 3 to 00000000004472fb
  DW_CFA_def_cfa: r6 (rbp) ofs 16
  DW_CFA_offset: r6 (rbp) at cfa-16
  DW_CFA_advance_loc2: 3300 to 0000000000447fdf
  DW_CFA_restore: r6 (rbp)
  DW_CFA_nop
  DW_CFA_nop
  DW_CFA_nop

00002380 000000000000002c 000022dc FDE cie=000000a8 pc=0000000000447fe0..0000000000448cec
  DW_CFA_advance_loc: 1 to 0000000000447fe1
  DW_CFA_def_cfa_offset: 16
  DW_CFA_advance_loc: 3 to 0000000000447fe4
  DW_CFA_def_cfa: r6 (rbp) ofs 16
  DW_CFA_offset: r6 (rbp) at cfa-16
  DW_CFA_advance_loc2: 456 to 00000000004481ac
  DW_CFA_offset: r3 (rbx) at cfa-32
  DW_CFA_advance_loc2: 2878 to 0000000000448cea
  DW_CFA_restore: r3 (rbx)
  DW_CFA_advance_loc: 1 to 0000000000448ceb
  DW_CFA_restore: r6 (rbp)
  DW_CFA_nop
  DW_CFA_nop
  DW_CFA_nop
  DW_CFA_nop

000023b0 0000000000000024 0000230c FDE cie=000000a8 pc=0000000000448cec..0000000000448f27
  DW_CFA_advance_loc: 1 to 0000000000448ced
  DW_CFA_def_cfa_offset: 16
  DW_CFA_advance_loc: 3 to 0000000000448cf0
  DW_CFA_def_cfa: r6 (rbp) ofs 16
  DW_CFA_offset: r6 (rbp) at cfa-16
  DW_CFA_advance_loc2: 566 to 0000000000448f26
  DW_CFA_restore: r6 (rbp)
  DW_CFA_nop
  DW_CFA_nop
  DW_CFA_nop

000023d8 0000000000000024 00002334 FDE cie=000000a8 pc=0000000000448f27..00000000004491d1
  DW_CFA_advance_loc: 1 to 0000000000448f28
  DW_CFA_def_cfa_offset: 16
  DW_CFA_advance_loc: 3 to 0000000000448f2b
  DW_CFA_def_cfa: r6 (rbp) ofs 16
  DW_CFA_offset: r6 (rbp) at cfa-16
  DW_CFA_advance_loc2: 677 to 00000000004491d0
  DW_CFA_restore: r6 (rbp)
  DW_CFA_nop
  DW_CFA_nop
  DW_CFA_nop

00002400 0000000000000024 0000235c FDE cie=000000a8 pc=00000000004491d1..00000000004494ea
  DW_CFA_advance_loc: 1 to 00000000004491d2
  DW_CFA_def_cfa_offset: 16
  DW_CFA_advance_loc: 3 to 00000000004491d5
  DW_CFA_def_cfa: r6 (rbp) ofs 16
  DW_CFA_offset: r6 (rbp) at cfa-16
  DW_CFA_advance_loc2: 788 to 00000000004494e9
  DW_CFA_restore: r6 (rbp)
  DW_CFA_nop
  DW_CFA_nop
  DW_CFA_nop

00002428 0000000000000024 00002384 FDE cie=000000a8 pc=00000000004494ea..0000000000449872
  DW_CFA_advance_loc: 1 to 00000000004494eb
  DW_CFA_def_cfa_offset: 16
  DW_CFA_advance_loc: 3 to 00000000004494ee
  DW_CFA_def_cfa: r6 (rbp) ofs 16
  DW_CFA_offset: r6 (rbp) at cfa-16
  DW_CFA_advance_loc2: 899 to 0000000000449871
  DW_CFA_restore: r6 (rbp)
  DW_CFA_nop
  DW_CFA_nop
  DW_CFA_nop

00002450 0000000000000024 000023ac FDE cie=000000a8 pc=0000000000449872..0000000000449c69
  DW_CFA_advance_loc: 1 to 0000000000449873
  DW_CFA_def_cfa_offset: 16
  DW_CFA_advance_loc: 3 to 0000000000449876
  DW_CFA_def_cfa: r6 (rbp) ofs 16
  DW_CFA_offset: r6 (rbp) at cfa-16
  DW_CFA_advance_loc2: 1010 to 0000000000449c68
  DW_CFA_restore: r6 (rbp)
  DW_CFA_nop
  DW_CFA_nop
  DW_CFA_nop

00002478 0000000000000024 000023d4 FDE cie=000000a8 pc=0000000000449c69..000000000044a0cf
  DW_CFA_advance_loc: 1 to 0000000000449c6a
  DW_CFA_def_cfa_offset: 16
  DW_CFA_advance_loc: 3 to 0000000000449c6d
  DW_CFA_def_cfa: r6 (rbp) ofs 16
  DW_CFA_offset: r6 (rbp) at cfa-16
  DW_CFA_advance_loc2: 1121 to 000000000044a0ce
  DW_CFA_restore: r6 (rbp)
  DW_CFA_nop
  DW_CFA_nop
  DW_CFA_nop

000024a0 0000000000000024 000023fc FDE cie=000000a8 pc=000000000044a0cf..000000000044a5a4
  DW_CFA_advance_loc: 1 to 000000000044a0d0
  DW_CFA_def_cfa_offset: 16
  DW_CFA_advance_loc: 3 to 000000000044a0d3
  DW_CFA_def_cfa: r6 (rbp) ofs 16
  DW_CFA_offset: r6 (rbp) at cfa-16
  DW_CFA_advance_loc2: 1232 to 000000000044a5a3
  DW_CFA_restore: r6 (rbp)
  DW_CFA_nop
  DW_CFA_nop
  DW_CFA_nop

000024c8 0000000000000024 00002424 FDE cie=000000a8 pc=000000000044a5a4..000000000044aae8
  DW_CFA_advance_loc: 1 to 000000000044a5a5
  DW_CFA_def_cfa_offset: 16
  DW_CFA_advance_loc: 3 to 000000000044a5a8
  DW_CFA_def_cfa: r6 (rbp) ofs 16
  DW_CFA_offset: r6 (rbp) at cfa-16
  DW_CFA_advance_loc2: 1343 to 000000000044aae7
  DW_CFA_restore: r6 (rbp)
  DW_CFA_nop
  DW_CFA_nop
  DW_CFA_nop

000024f0 0000000000000024 0000244c FDE cie=000000a8 pc=000000000044aae8..000000000044b09b
  DW_CFA_advance_loc: 1 to 000000000044aae9
  DW_CFA_def_cfa_offset: 16
  DW_CFA_advance_loc: 3 to 000000000044aaec
  DW_CFA_def_cfa: r6 (rbp) ofs 16
  DW_CFA_offset: r6 (rbp) at cfa-16
  DW_CFA_advance_loc2: 1454 to 000000000044b09a
  DW_CFA_restore: r6 (rbp)
  DW_CFA_nop
  DW_CFA_nop
  DW_CFA_nop

00002518 0000000000000024 00002474 FDE cie=000000a8 pc=000000000044b09b..000000000044b6bd
  DW_CFA_advance_loc: 1 to 000000000044b09c
  DW_CFA_def_cfa_offset: 16
  DW_CFA_advance_loc: 3 to 000000000044b09f
  DW_CFA_def_cfa: r6 (rbp) ofs 16
  DW_CFA_offset: r6 (rbp) at cfa-16
  DW_CFA_advance_loc2: 1565 to 000000000044b6bc
  DW_CFA_restore: r6 (rbp)
  DW_CFA_nop
  DW_CFA_nop
  DW_CFA_nop

00002540 0000000000000024 0000249c FDE cie=000000a8 pc=000000000044b6bd..000000000044bd4e
  DW_CFA_advance_loc: 1 to 000000000044b6be
  DW_CFA_def_cfa_offset: 16
  DW_CFA_advance_loc: 3 to 000000000044b6c1
  DW_CFA_def_cfa: r6 (rbp) ofs 16
  DW_CFA_offset: r6 (rbp) at cfa-16
  DW_CFA_advance_loc2: 1676 to 000000000044bd4d
  DW_CFA_restore: r6 (rbp)
  DW_CFA_nop
  DW_CFA_nop
  DW_CFA_nop

00002568 0000000000000024 000024c4 FDE cie=000000a8 pc=000000000044bd4e..000000000044c44e
  DW_CFA_advance_loc: 1 to 000000000044bd4f
  DW_CFA_def_cfa_offset: 16
  DW_CFA_advance_loc: 3 to 000000000044bd52
  DW_CFA_def_cfa: r6 (rbp) ofs 16
  DW_CFA_offset: r6 (rbp) at cfa-16
  DW_CFA_advance_loc2: 1787 to 000000000044c44d
  DW_CFA_restore: r6 (rbp)
  DW_CFA_nop
  DW_CFA_nop
  DW_CFA_nop

00002590 0000000000000024 000024ec FDE cie=000000a8 pc=000000000044c44e..000000000044cbbd
  DW_CFA_advance_loc: 1 to 000000000044c44f
  DW_CFA_def_cfa_offset: 16
  DW_CFA_advance_loc: 3 to 000000000044c452
  DW_CFA_def_cfa: r6 (rbp) ofs 16
  DW_CFA_offset: r6 (rbp) at cfa-16
  DW_CFA_advance_loc2: 1898 to 000000000044cbbc
  DW_CFA_restore: r6 (rbp)
  DW_CFA_nop
  DW_CFA_nop
  DW_CFA_nop

000025b8 0000000000000024 00002514 FDE cie=000000a8 pc=000000000044cbbd..000000000044d39b
  DW_CFA_advance_loc: 1 to 000000000044cbbe
  DW_CFA_def_cfa_offset: 16
  DW_CFA_advance_loc: 3 to 000000000044cbc1
  DW_CFA_def_cfa: r6 (rbp) ofs 16
  DW_CFA_offset: r6 (rbp) at cfa-16
  DW_CFA_advance_loc2: 2009 to 000000000044d39a
  DW_CFA_restore: r6 (rbp)
  DW_CFA_nop
  DW_CFA_nop
  DW_CFA_nop

000025e0 0000000000000024 0000253c FDE cie=000000a8 pc=000000000044d39b..000000000044dc15
  DW_CFA_advance_loc: 1 to 000000000044d39c
  DW_CFA_def_cfa_offset: 16
  DW_CFA_advance_loc: 3 to 000000000044d39f
  DW_CFA_def_cfa: r6 (rbp) ofs 16
  DW_CFA_offset: r6 (rbp) at cfa-16
  DW_CFA_advance_loc2: 2165 to 000000000044dc14
  DW_CFA_restore: r6 (rbp)
  DW_CFA_nop
  DW_CFA_nop
  DW_CFA_nop

00002608 0000000000000024 00002564 FDE cie=000000a8 pc=000000000044dc15..000000000044e52e
  DW_CFA_advance_loc: 1 to 000000000044dc16
  DW_CFA_def_cfa_offset: 16
  DW_CFA_advance_loc: 3 to 000000000044dc19
  DW_CFA_def_cfa: r6 (rbp) ofs 16
  DW_CFA_offset: r6 (rbp) at cfa-16
  DW_CFA_advance_loc2: 2324 to 000000000044e52d
  DW_CFA_restore: r6 (rbp)
  DW_CFA_nop
  DW_CFA_nop
  DW_CFA_nop

00002630 0000000000000024 0000258c FDE cie=000000a8 pc=000000000044e52e..000000000044eedd
  DW_CFA_advance_loc: 1 to 000000000044e52f
  DW_CFA_def_cfa_offset: 16
  DW_CFA_advance_loc: 3 to 000000000044e532
  DW_CFA_def_cfa: r6 (rbp) ofs 16
  DW_CFA_offset: r6 (rbp) at cfa-16
  DW_CFA_advance_loc2: 2474 to 000000000044eedc
  DW_CFA_restore: r6 (rbp)
  DW_CFA_nop
  DW_CFA_nop
  DW_CFA_nop

00002658 0000000000000024 000025b4 FDE cie=000000a8 pc=000000000044eedd..000000000044f902
  DW_CFA_advance_loc: 1 to 000000000044eede
  DW_CFA_def_cfa_offset: 16
  DW_CFA_advance_loc: 3 to 000000000044eee1
  DW_CFA_def_cfa: r6 (rbp) ofs 16
  DW_CFA_offset: r6 (rbp) at cfa-16
  DW_CFA_advance_loc2: 2592 to 000000000044f901
  DW_CFA_restore: r6 (rbp)
  DW_CFA_nop
  DW_CFA_nop
  DW_CFA_nop

00002680 0000000000000024 000025dc FDE cie=000000a8 pc=000000000044f902..000000000045039d
  DW_CFA_advance_loc: 1 to 000000000044f903
  DW_CFA_def_cfa_offset: 16
  DW_CFA_advance_loc: 3 to 000000000044f906
  DW_CFA_def_cfa: r6 (rbp) ofs 16
  DW_CFA_offset: r6 (rbp) at cfa-16
  DW_CFA_advance_loc2: 2710 to 000000000045039c
  DW_CFA_restore: r6 (rbp)
  DW_CFA_nop
  DW_CFA_nop
  DW_CFA_nop

000026a8 0000000000000024 00002604 FDE cie=000000a8 pc=000000000045039d..0000000000450eae
  DW_CFA_advance_loc: 1 to 000000000045039e
  DW_CFA_def_cfa_offset: 16
  DW_CFA_advance_loc: 3 to 00000000004503a1
  DW_CFA_def_cfa: r6 (rbp) ofs 16
  DW_CFA_offset: r6 (rbp) at cfa-16
  DW_CFA_advance_loc2: 2828 to 0000000000450ead
  DW_CFA_restore: r6 (rbp)
  DW_CFA_nop
  DW_CFA_nop
  DW_CFA_nop

000026d0 0000000000000024 0000262c FDE cie=000000a8 pc=0000000000450eae..0000000000451a35
  DW_CFA_advance_loc: 1 to 0000000000450eaf
  DW_CFA_def_cfa_offset: 16
  DW_CFA_advance_loc: 3 to 0000000000450eb2
  DW_CFA_def_cfa: r6 (rbp) ofs 16
  DW_CFA_offset: r6 (rbp) at cfa-16
  DW_CFA_advance_loc2: 2946 to 0000000000451a34
  DW_CFA_restore: r6 (rbp)
  DW_CFA_nop
  DW_CFA_nop
  DW_CFA_nop

000026f8 0000000000000024 00002654 FDE cie=000000a8 pc=0000000000451a35..0000000000452632
  DW_CFA_advance_loc: 1 to 0000000000451a36
  DW_CFA_def_cfa_offset: 16
  DW_CFA_advance_loc: 3 to 0000000000451a39
  DW_CFA_def_cfa: r6 (rbp) ofs 16
  DW_CFA_offset: r6 (rbp) at cfa-16
  DW_CFA_advance_loc2: 3064 to 0000000000452631
  DW_CFA_restore: r6 (rbp)
  DW_CFA_nop
  DW_CFA_nop
  DW_CFA_nop

00002720 0000000000000024 0000267c FDE cie=000000a8 pc=0000000000452632..00000000004532a5
  DW_CFA_advance_loc: 1 to 0000000000452633
  DW_CFA_def_cfa_offset: 16
  DW_CFA_advance_loc: 3 to 0000000000452636
  DW_CFA_def_cfa: r6 (rbp) ofs 16
  DW_CFA_offset: r6 (rbp) at cfa-16
  DW_CFA_advance_loc2: 3182 to 00000000004532a4
  DW_CFA_restore: r6 (rbp)
  DW_CFA_nop
  DW_CFA_nop
  DW_CFA_nop

00002748 0000000000000024 000026a4 FDE cie=000000a8 pc=00000000004532a5..0000000000453f8e
  DW_CFA_advance_loc: 1 to 00000000004532a6
  DW_CFA_def_cfa_offset: 16
  DW_CFA_advance_loc: 3 to 00000000004532a9
  DW_CFA_def_cfa: r6 (rbp) ofs 16
  DW_CFA_offset: r6 (rbp) at cfa-16
  DW_CFA_advance_loc2: 3300 to 0000000000453f8d
  DW_CFA_restore: r6 (rbp)
  DW_CFA_nop
  DW_CFA_nop
  DW_CFA_nop

00002770 000000000000002c 000026cc FDE cie=000000a8 pc=0000000000453f8e..0000000000454257
  DW_CFA_advance_loc: 1 to 0000000000453f8f
  DW_CFA_def_cfa_offset: 16
  DW_CFA_advance_loc: 3 to 0000000000453f92
  DW_CFA_def_cfa: r6 (rbp) ofs 16
  DW_CFA_offset: r6 (rbp) at cfa-16
  DW_CFA_advance_loc2: 418 to 0000000000454134
  DW_CFA_offset: r3 (rbx) at cfa-24
  DW_CFA_advance_loc2: 289 to 0000000000454255
  DW_CFA_restore: r3 (rbx)
  DW_CFA_advance_loc: 1 to 0000000000454256
  DW_CFA_restore: r6 (rbp)
  DW_CFA_nop
  DW_CFA_nop
  DW_CFA_nop
  DW_CFA_nop

000027a0 0000000000000024 000026fc FDE cie=000000a8 pc=0000000000454257..000000000045ba37
  DW_CFA_advance_loc: 1 to 0000000000454258
  DW_CFA_def_cfa_offset: 16
  DW_CFA_advance_loc: 3 to 000000000045425b
  DW_CFA_def_cfa: r6 (rbp) ofs 16
  DW_CFA_offset: r6 (rbp) at cfa-16
  DW_CFA_advance_loc2: 30683 to 000000000045ba36
  DW_CFA_restore: r6 (rbp)
  DW_CFA_nop
  DW_CFA_nop
  DW_CFA_nop

000027c8 0000000000000024 00002724 FDE cie=000000a8 pc=000000000045ba37..000000000045c8c0
  DW_CFA_advance_loc: 1 to 000000000045ba38
  DW_CFA_def_cfa_offset: 16
  DW_CFA_advance_loc: 3 to 000000000045ba3b
  DW_CFA_def_cfa: r6 (rbp) ofs 16
  DW_CFA_offset: r6 (rbp) at cfa-16
  DW_CFA_advance_loc2: 3716 to 000000000045c8bf
  DW_CFA_restore: r6 (rbp)
  DW_CFA_nop
  DW_CFA_nop
  DW_CFA_nop

000027f0 000000000000002c 0000274c FDE cie=000000a8 pc=000000000045c8c0..000000000045d57b
  DW_CFA_advance_loc: 1 to 000000000045c8c1
  DW_CFA_def_cfa_offset: 16
  DW_CFA_advance_loc: 3 to 000000000045c8c4
  DW_CFA_def_cfa: r6 (rbp) ofs 16
  DW_CFA_offset: r6 (rbp) at cfa-16
  DW_CFA_advance_loc1: 140 to 000000000045c950
  DW_CFA_offset: r3 (rbx) at cfa-24
  DW_CFA_advance_loc2: 3113 to 000000000045d579
  DW_CFA_restore: r3 (rbx)
  DW_CFA_advance_loc: 1 to 000000000045d57a
  DW_CFA_restore: r6 (rbp)
  DW_CFA_nop
  DW_CFA_nop
  DW_CFA_nop
  DW_CFA_nop
  DW_CFA_nop

00002820 000000000000002c 0000277c FDE cie=000000a8 pc=000000000045d57b..000000000045e2a6
  DW_CFA_advance_loc: 1 to 000000000045d57c
  DW_CFA_def_cfa_offset: 16
  DW_CFA_advance_loc: 3 to 000000000045d57f
  DW_CFA_def_cfa: r6 (rbp) ofs 16
  DW_CFA_offset: r6 (rbp) at cfa-16
  DW_CFA_advance_loc2: 411 to 000000000045d71a
  DW_CFA_offset: r3 (rbx) at cfa-24
  DW_CFA_advance_loc2: 2954 to 000000000045e2a4
  DW_CFA_restore: r3 (rbx)
  DW_CFA_advance_loc: 1 to 000000000045e2a5
  DW_CFA_restore: r6 (rbp)
  DW_CFA_nop
  DW_CFA_nop
  DW_CFA_nop
  DW_CFA_nop

00002850 000000000000002c 000027ac FDE cie=000000a8 pc=000000000045e2a6..000000000045e69e
  DW_CFA_advance_loc: 1 to 000000000045e2a7
  DW_CFA_def_cfa_offset: 16
  DW_CFA_advance_loc: 3 to 000000000045e2aa
  DW_CFA_def_cfa: r6 (rbp) ofs 16
  DW_CFA_offset: r6 (rbp) at cfa-16
  DW_CFA_advance_loc2: 408 to 000000000045e442
  DW_CFA_offset: r3 (rbx) at cfa-32
  DW_CFA_advance_loc2: 602 to 000000000045e69c
  DW_CFA_restore: r3 (rbx)
  DW_CFA_advance_loc: 1 to 000000000045e69d
  DW_CFA_restore: r6 (rbp)
  DW_CFA_nop
  DW_CFA_nop
  DW_CFA_nop
  DW_CFA_nop

00002880 0000000000000024 000027dc FDE cie=000000a8 pc=000000000045e6a0..000000000045e6c0
  DW_CFA_advance_loc: 1 to 000000000045e6a1
  DW_CFA_def_cfa_offset: 16
  DW_CFA_advance_loc: 3 to 000000000045e6a4
  DW_CFA_def_cfa: r6 (rbp) ofs 16
  DW_CFA_offset: r6 (rbp) at cfa-16
  DW_CFA_advance_loc: 3 to 000000000045e6a7
  DW_CFA_offset: r15 (r15) at cfa-24
  DW_CFA_nop
  DW_CFA_nop
  DW_CFA_nop
  DW_CFA_nop

000028a8 000000000000002c 00002804 FDE cie=000000a8 pc=000000000045e6c0..000000000045e7a0
  DW_CFA_advance_loc: 1 to 000000000045e6c1
  DW_CFA_def_cfa_offset: 16
  DW_CFA_advance_loc: 3 to 000000000045e6c4
  DW_CFA_def_cfa: r6 (rbp) ofs 16
  DW_CFA_offset: r6 (rbp) at cfa-16
  DW_CFA_advance_loc1: 199 to 000000000045e78b
  DW_CFA_restore: r6 (rbp)
  DW_CFA_advance_loc: 5 to 000000000045e790
  DW_CFA_offset: r6 (rbp) at cfa-16
  DW_CFA_advance_loc: 4 to 000000000045e794
  DW_CFA_restore: r6 (rbp)
  DW_CFA_nop
  DW_CFA_nop
  DW_CFA_nop
  DW_CFA_nop
  DW_CFA_nop
  DW_CFA_nop
  DW_CFA_nop

000028d8 000000000000003c 00002834 FDE cie=000000a8 pc=000000000045e7a0..000000000045e9d0
  DW_CFA_advance_loc: 1 to 000000000045e7a1
  DW_CFA_def_cfa_offset: 16
  DW_CFA_advance_loc: 3 to 000000000045e7a4
  DW_CFA_def_cfa: r6 (rbp) ofs 16
  DW_CFA_offset: r6 (rbp) at cfa-16
  DW_CFA_advance_loc: 8 to 000000000045e7ac
  DW_CFA_offset: r12 (r12) at cfa-24
  DW_CFA_offset: r13 (r13) at cfa-32
  DW_CFA_advance_loc2: 510 to 000000000045e9aa
  DW_CFA_restore: r13 (r13)
  DW_CFA_advance_loc: 2 to 000000000045e9ac
  DW_CFA_restore: r12 (r12)
  DW_CFA_advance_loc: 3 to 000000000045e9af
  DW_CFA_restore: r6 (rbp)
  DW_CFA_advance_loc: 1 to 000000000045e9b0
  DW_CFA_offset: r6 (rbp) at cfa-16
  DW_CFA_offset: r12 (r12) at cfa-24
  DW_CFA_offset: r13 (r13) at cfa-32
  DW_CFA_advance_loc: 21 to 000000000045e9c5
  DW_CFA_restore: r13 (r13)
  DW_CFA_advance_loc: 2 to 000000000045e9c7
  DW_CFA_restore: r12 (r12)
  DW_CFA_advance_loc: 3 to 000000000045e9ca
  DW_CFA_restore: r6 (rbp)
  DW_CFA_nop
  DW_CFA_nop
  DW_CFA_nop
  DW_CFA_nop
  DW_CFA_nop

00002918 000000000000002c 00002874 FDE cie=000000a8 pc=000000000045e9d0..000000000045e9f0
  DW_CFA_advance_loc4: 1 to 000000000045e9d1
  DW_CFA_def_cfa_offset: 16
  DW_CFA_advance_loc4: 3 to 000000000045e9d4
  DW_CFA_def_cfa: r6 (rbp) ofs 16
  DW_CFA_offset: r6 (rbp) at cfa-16
  DW_CFA_advance_loc4: 12 to 000000000045e9e0
  DW_CFA_restore: r6 (rbp)
  DW_CFA_nop

00002948 0000000000000144 000028a4 FDE cie=000000a8 pc=000000000045e9f0..000000000045fb00
  DW_CFA_advance_loc4: 1 to 000000000045e9f1
  DW_CFA_def_cfa_offset: 16
  DW_CFA_advance_loc4: 3 to 000000000045e9f4
  DW_CFA_def_cfa: r6 (rbp) ofs 16
  DW_CFA_offset: r6 (rbp) at cfa-16
  DW_CFA_advance_loc4: 13 to 000000000045ea01
  DW_CFA_offset: r3 (rbx) at cfa-56
  DW_CFA_offset: r12 (r12) at cfa-24
  DW_CFA_offset: r13 (r13) at cfa-32
  DW_CFA_offset: r14 (r14) at cfa-40
  DW_CFA_offset: r15 (r15) at cfa-48
  DW_CFA_advance_loc4: 78 to 000000000045ea4f
  DW_CFA_restore: r3 (rbx)
  DW_CFA_advance_loc4: 1 to 000000000045ea50
  DW_CFA_restore: r15 (r15)
  DW_CFA_advance_loc4: 2 to 000000000045ea52
  DW_CFA_restore: r14 (r14)
  DW_CFA_advance_loc4: 2 to 000000000045ea54
  DW_CFA_restore: r13 (r13)
  DW_CFA_advance_loc4: 2 to 000000000045ea56
  DW_CFA_restore: r12 (r12)
  DW_CFA_advance_loc4: 3 to 000000000045ea59
  DW_CFA_restore: r6 (rbp)
  DW_CFA_advance_loc4: 1 to 000000000045ea5a
  DW_CFA_offset: r3 (rbx) at cfa-56
  DW_CFA_offset: r6 (rbp) at cfa-16
  DW_CFA_offset: r12 (r12) at cfa-24
  DW_CFA_offset: r13 (r13) at cfa-32
  DW_CFA_offset: r14 (r14) at cfa-40
  DW_CFA_offset: r15 (r15) at cfa-48
  DW_CFA_advance_loc4: 142 to 000000000045eae8
  DW_CFA_restore: r3 (rbx)
  DW_CFA_advance_loc4: 1 to 000000000045eae9
  DW_CFA_restore: r15 (r15)
  DW_CFA_advance_loc4: 2 to 000000000045eaeb
  DW_CFA_restore: r14 (r14)
  DW_CFA_advance_loc4: 2 to 000000000045eaed
  DW_CFA_restore: r13 (r13)
  DW_CFA_advance_loc4: 2 to 000000000045eaef
  DW_CFA_restore: r12 (r12)
  DW_CFA_advance_loc4: 3 to 000000000045eaf2
  DW_CFA_restore: r6 (rbp)
  DW_CFA_advance_loc4: 1 to 000000000045eaf3
  DW_CFA_offset: r3 (rbx) at cfa-56
  DW_CFA_offset: r6 (rbp) at cfa-16
  DW_CFA_offset: r12 (r12) at cfa-24
  DW_CFA_offset: r13 (r13) at cfa-32
  DW_CFA_offset: r14 (r14) at cfa-40
  DW_CFA_offset: r15 (r15) at cfa-48
  DW_CFA_advance_loc4: 433 to 000000000045eca4
  DW_CFA_restore: r3 (rbx)
  DW_CFA_advance_loc4: 1 to 000000000045eca5
  DW_CFA_restore: r15 (r15)
  DW_CFA_advance_loc4: 2 to 000000000045eca7
  DW_CFA_restore: r14 (r14)
  DW_CFA_advance_loc4: 2 to 000000000045eca9
  DW_CFA_restore: r13 (r13)
  DW_CFA_advance_loc4: 2 to 000000000045ecab
  DW_CFA_restore: r12 (r12)
  DW_CFA_advance_loc4: 3 to 000000000045ecae
  DW_CFA_restore: r6 (rbp)
  DW_CFA_advance_loc4: 1 to 000000000045ecaf
  DW_CFA_offset: r3 (rbx) at cfa-56
  DW_CFA_offset: r6 (rbp) at cfa-16
  DW_CFA_offset: r12 (r12) at cfa-24
  DW_CFA_offset: r13 (r13) at cfa-32
  DW_CFA_offset: r14 (r14) at cfa-40
  DW_CFA_offset: r15 (r15) at cfa-48
  DW_CFA_advance_loc4: 612 to 000000000045ef13
  DW_CFA_restore: r3 (rbx)
  DW_CFA_advance_loc4: 1 to 000000000045ef14
  DW_CFA_restore: r15 (r15)
  DW_CFA_advance_loc4: 2 to 000000000045ef16
  DW_CFA_restore: r14 (r14)
  DW_CFA_advance_loc4: 2 to 000000000045ef18
  DW_CFA_restore: r13 (r13)
  DW_CFA_advance_loc4: 2 to 000000000045ef1a
  DW_CFA_restore: r12 (r12)
  DW_CFA_advance_loc4: 3 to 000000000045ef1d
  DW_CFA_restore: r6 (rbp)
  DW_CFA_advance_loc4: 1 to 000000000045ef1e
  DW_CFA_offset: r3 (rbx) at cfa-56
  DW_CFA_offset: r6 (rbp) at cfa-16
  DW_CFA_offset: r12 (r12) at cfa-24
  DW_CFA_offset: r13 (r13) at cfa-32
  DW_CFA_offset: r14 (r14) at cfa-40
  DW_CFA_offset: r15 (r15) at cfa-48
  DW_CFA_advance_loc4: 1554 to 000000000045f530
  DW_CFA_restore: r3 (rbx)
  DW_CFA_advance_loc4: 1 to 000000000045f531
  DW_CFA_restore: r15 (r15)
  DW_CFA_advance_loc4: 2 to 000000000045f533
  DW_CFA_restore: r14 (r14)
  DW_CFA_advance_loc4: 2 to 000000000045f535
  DW_CFA_restore: r13 (r13)
  DW_CFA_advance_loc4: 2 to 000000000045f537
  DW_CFA_restore: r12 (r12)
  DW_CFA_advance_loc4: 3 to 000000000045f53a
  DW_CFA_restore: r6 (rbp)
  DW_CFA_advance_loc4: 1 to 000000000045f53b
  DW_CFA_offset: r3 (rbx) at cfa-56
  DW_CFA_offset: r6 (rbp) at cfa-16
  DW_CFA_offset: r12 (r12) at cfa-24
  DW_CFA_offset: r13 (r13) at cfa-32
  DW_CFA_offset: r14 (r14) at cfa-40
  DW_CFA_offset: r15 (r15) at cfa-48
  DW_CFA_nop
  DW_CFA_nop
  DW_CFA_nop
  DW_CFA_nop
  DW_CFA_nop
  DW_CFA_nop
  DW_CFA_nop

00002a90 000000000000002c 000029ec FDE cie=000000a8 pc=000000000045fb00..000000000045fb20
  DW_CFA_advance_loc4: 1 to 000000000045fb01
  DW_CFA_def_cfa_offset: 16
  DW_CFA_advance_loc4: 3 to 000000000045fb04
  DW_CFA_def_cfa: r6 (rbp) ofs 16
  DW_CFA_offset: r6 (rbp) at cfa-16
  DW_CFA_advance_loc4: 14 to 000000000045fb12
  DW_CFA_restore: r6 (rbp)
  DW_CFA_nop

00002ac0 0000000000000064 00002a1c FDE cie=000000a8 pc=000000000045fb20..000000000045fd80
  DW_CFA_advance_loc4: 1 to 000000000045fb21
  DW_CFA_def_cfa_offset: 16
  DW_CFA_advance_loc4: 3 to 000000000045fb24
  DW_CFA_def_cfa: r6 (rbp) ofs 16
  DW_CFA_offset: r6 (rbp) at cfa-16
  DW_CFA_advance_loc4: 42 to 000000000045fb4e
  DW_CFA_offset: r3 (rbx) at cfa-48
  DW_CFA_offset: r12 (r12) at cfa-24
  DW_CFA_offset: r13 (r13) at cfa-32
  DW_CFA_offset: r14 (r14) at cfa-40
  DW_CFA_advance_loc4: 461 to 000000000045fd1b
  DW_CFA_restore: r3 (rbx)
  DW_CFA_advance_loc4: 1 to 000000000045fd1c
  DW_CFA_restore: r14 (r14)
  DW_CFA_advance_loc4: 2 to 000000000045fd1e
  DW_CFA_restore: r13 (r13)
  DW_CFA_advance_loc4: 2 to 000000000045fd20
  DW_CFA_restore: r12 (r12)
  DW_CFA_advance_loc4: 3 to 000000000045fd23
  DW_CFA_restore: r6 (rbp)
  DW_CFA_advance_loc4: 1 to 000000000045fd24
  DW_CFA_offset: r3 (rbx) at cfa-48
  DW_CFA_offset: r6 (rbp) at cfa-16
  DW_CFA_offset: r12 (r12) at cfa-24
  DW_CFA_offset: r13 (r13) at cfa-32
  DW_CFA_offset: r14 (r14) at cfa-40
  DW_CFA_nop
  DW_CFA_nop
  DW_CFA_nop
  DW_CFA_nop
  DW_CFA_nop

00002b28 000000000000006c 00002a84 FDE cie=000000a8 pc=000000000045fd80..0000000000460220
  DW_CFA_advance_loc4: 1 to 000000000045fd81
  DW_CFA_def_cfa_offset: 16
  DW_CFA_advance_loc4: 3 to 000000000045fd84
  DW_CFA_def_cfa: r6 (rbp) ofs 16
  DW_CFA_offset: r6 (rbp) at cfa-16
  DW_CFA_advance_loc4: 35 to 000000000045fda7
  DW_CFA_offset: r3 (rbx) at cfa-56
  DW_CFA_offset: r12 (r12) at cfa-24
  DW_CFA_offset: r13 (r13) at cfa-32
  DW_CFA_offset: r14 (r14) at cfa-40
  DW_CFA_offset: r15 (r15) at cfa-48
  DW_CFA_advance_loc4: 1014 to 000000000046019d
  DW_CFA_restore: r3 (rbx)
  DW_CFA_advance_loc4: 1 to 000000000046019e
  DW_CFA_restore: r15 (r15)
  DW_CFA_advance_loc4: 2 to 00000000004601a0
  DW_CFA_restore: r14 (r14)
  DW_CFA_advance_loc4: 2 to 00000000004601a2
  DW_CFA_restore: r13 (r13)
  DW_CFA_advance_loc4: 2 to 00000000004601a4
  DW_CFA_restore: r12 (r12)
  DW_CFA_advance_loc4: 3 to 00000000004601a7
  DW_CFA_restore: r6 (rbp)
  DW_CFA_advance_loc4: 1 to 00000000004601a8
  DW_CFA_offset: r3 (rbx) at cfa-56
  DW_CFA_offset: r6 (rbp) at cfa-16
  DW_CFA_offset: r12 (r12) at cfa-24
  DW_CFA_offset: r13 (r13) at cfa-32
  DW_CFA_offset: r14 (r14) at cfa-40
  DW_CFA_offset: r15 (r15) at cfa-48
  DW_CFA_nop
  DW_CFA_nop
  DW_CFA_nop

00002b98 000000000000006c 00002af4 FDE cie=000000a8 pc=0000000000460220..0000000000460710
  DW_CFA_advance_loc4: 1 to 0000000000460221
  DW_CFA_def_cfa_offset: 16
  DW_CFA_advance_loc4: 3 to 0000000000460224
  DW_CFA_def_cfa: r6 (rbp) ofs 16
  DW_CFA_offset: r6 (rbp) at cfa-16
  DW_CFA_advance_loc4: 16 to 0000000000460234
  DW_CFA_offset: r3 (rbx) at cfa-56
  DW_CFA_offset: r12 (r12) at cfa-24
  DW_CFA_offset: r13 (r13) at cfa-32
  DW_CFA_offset: r14 (r14) at cfa-40
  DW_CFA_offset: r15 (r15) at cfa-48
  DW_CFA_advance_loc4: 1103 to 0000000000460683
  DW_CFA_restore: r3 (rbx)
  DW_CFA_advance_loc4: 1 to 0000000000460684
  DW_CFA_restore: r15 (r15)
  DW_CFA_advance_loc4: 2 to 0000000000460686
  DW_CFA_restore: r14 (r14)
  DW_CFA_advance_loc4: 2 to 0000000000460688
  DW_CFA_restore: r13 (r13)
  DW_CFA_advance_loc4: 2 to 000000000046068a
  DW_CFA_restore: r12 (r12)
  DW_CFA_advance_loc4: 3 to 000000000046068d
  DW_CFA_restore: r6 (rbp)
  DW_CFA_advance_loc4: 1 to 000000000046068e
  DW_CFA_offset: r3 (rbx) at cfa-56
  DW_CFA_offset: r6 (rbp) at cfa-16
  DW_CFA_offset: r12 (r12) at cfa-24
  DW_CFA_offset: r13 (r13) at cfa-32
  DW_CFA_offset: r14 (r14) at cfa-40
  DW_CFA_offset: r15 (r15) at cfa-48
  DW_CFA_nop
  DW_CFA_nop
  DW_CFA_nop

00002c08 000000000000002c 00002b64 FDE cie=000000a8 pc=0000000000460710..0000000000460760
  DW_CFA_advance_loc4: 1 to 0000000000460711
  DW_CFA_def_cfa_offset: 16
  DW_CFA_advance_loc4: 3 to 0000000000460714
  DW_CFA_def_cfa: r6 (rbp) ofs 16
  DW_CFA_offset: r6 (rbp) at cfa-16
  DW_CFA_advance_loc4: 72 to 000000000046075c
  DW_CFA_restore: r6 (rbp)
  DW_CFA_nop

00002c38 000000000000002c 00002b94 FDE cie=000000a8 pc=0000000000460760..0000000000460790
  DW_CFA_advance_loc4: 1 to 0000000000460761
  DW_CFA_def_cfa_offset: 16
  DW_CFA_advance_loc4: 3 to 0000000000460764
  DW_CFA_def_cfa: r6 (rbp) ofs 16
  DW_CFA_offset: r6 (rbp) at cfa-16
  DW_CFA_advance_loc4: 35 to 0000000000460787
  DW_CFA_restore: r6 (rbp)
  DW_CFA_nop

00002c68 0000000000000044 00002bc4 FDE cie=000000a8 pc=0000000000460790..00000000004615a0
  DW_CFA_advance_loc4: 1 to 0000000000460791
  DW_CFA_def_cfa_offset: 16
  DW_CFA_advance_loc4: 3 to 0000000000460794
  DW_CFA_def_cfa: r6 (rbp) ofs 16
  DW_CFA_offset: r6 (rbp) at cfa-16
  DW_CFA_advance_loc4: 3 to 0000000000460797
  DW_CFA_offset: r3 (rbx) at cfa-32
  DW_CFA_offset: r15 (r15) at cfa-24
  DW_CFA_advance_loc4: 3574 to 000000000046158d
  DW_CFA_restore: r3 (rbx)
  DW_CFA_advance_loc4: 1 to 000000000046158e
  DW_CFA_restore: r15 (r15)
  DW_CFA_advance_loc4: 3 to 0000000000461591
  DW_CFA_restore: r6 (rbp)
  DW_CFA_nop
  DW_CFA_nop
  DW_CFA_nop
  DW_CFA_nop

00002cb0 00000000000000a4 00002c0c FDE cie=000000a8 pc=00000000004615a0..0000000000461f00
  DW_CFA_advance_loc4: 1 to 00000000004615a1
  DW_CFA_def_cfa_offset: 16
  DW_CFA_advance_loc4: 3 to 00000000004615a4
  DW_CFA_def_cfa: r6 (rbp) ofs 16
  DW_CFA_offset: r6 (rbp) at cfa-16
  DW_CFA_advance_loc4: 16 to 00000000004615b4
  DW_CFA_offset: r3 (rbx) at cfa-56
  DW_CFA_offset: r12 (r12) at cfa-24
  DW_CFA_offset: r13 (r13) at cfa-32
  DW_CFA_offset: r14 (r14) at cfa-40
  DW_CFA_offset: r15 (r15) at cfa-48
  DW_CFA_advance_loc4: 1418 to 0000000000461b3e
  DW_CFA_restore: r6 (rbp)
  DW_CFA_advance_loc4: 4 to 0000000000461b42
  DW_CFA_restore: r3 (rbx)
  DW_CFA_advance_loc4: 1 to 0000000000461b43
  DW_CFA_restore: r15 (r15)
  DW_CFA_advance_loc4: 2 to 0000000000461b45
  DW_CFA_restore: r14 (r14)
  DW_CFA_advance_loc4: 2 to 0000000000461b47
  DW_CFA_restore: r13 (r13)
  DW_CFA_advance_loc4: 2 to 0000000000461b49
  DW_CFA_restore: r12 (r12)
  DW_CFA_advance_loc4: 4 to 0000000000461b4d
  DW_CFA_offset: r3 (rbx) at cfa-56
  DW_CFA_offset: r6 (rbp) at cfa-16
  DW_CFA_offset: r12 (r12) at cfa-24
  DW_CFA_offset: r13 (r13) at cfa-32
  DW_CFA_offset: r14 (r14) at cfa-40
  DW_CFA_offset: r15 (r15) at cfa-48
  DW_CFA_advance_loc4: 543 to 0000000000461d6c
  DW_CFA_restore: r6 (rbp)
  DW_CFA_advance_loc4: 4 to 0000000000461d70
  DW_CFA_restore: r3 (rbx)
  DW_CFA_advance_loc4: 1 to 0000000000461d71
  DW_CFA_restore: r15 (r15)
  DW_CFA_advance_loc4: 2 to 0000000000461d73
  DW_CFA_restore: r14 (r14)
  DW_CFA_advance_loc4: 2 to 0000000000461d75
  DW_CFA_restore: r13 (r13)
  DW_CFA_advance_loc4: 2 to 0000000000461d77
  DW_CFA_restore: r12 (r12)
  DW_CFA_advance_loc4: 4 to 0000000000461d7b
  DW_CFA_offset: r3 (rbx) at cfa-56
  DW_CFA_offset: r6 (rbp) at cfa-16
  DW_CFA_offset: r12 (r12) at cfa-24
  DW_CFA_offset: r13 (r13) at cfa-32
  DW_CFA_offset: r14 (r14) at cfa-40
  DW_CFA_offset: r15 (r15) at cfa-48
  DW_CFA_nop
  DW_CFA_nop
  DW_CFA_nop
  DW_CFA_nop
  DW_CFA_nop
  DW_CFA_nop

00002d58 0000000000000054 00002cb4 FDE cie=000000a8 pc=0000000000461f00..0000000000462180
  DW_CFA_advance_loc: 1 to 0000000000461f01
  DW_CFA_def_cfa_offset: 16
  DW_CFA_advance_loc: 3 to 0000000000461f04
  DW_CFA_def_cfa: r6 (rbp) ofs 16
  DW_CFA_offset: r6 (rbp) at cfa-16
  DW_CFA_advance_loc: 13 to 0000000000461f11
  DW_CFA_offset: r3 (rbx) at cfa-56
  DW_CFA_offset: r12 (r12) at cfa-24
  DW_CFA_offset: r13 (r13) at cfa-32
  DW_CFA_offset: r14 (r14) at cfa-40
  DW_CFA_offset: r15 (r15) at cfa-48
  DW_CFA_advance_loc2: 398 to 000000000046209f
  DW_CFA_restore: r3 (rbx)
  DW_CFA_advance_loc: 1 to 00000000004620a0
  DW_CFA_restore: r15 (r15)
  DW_CFA_advance_loc: 2 to 00000000004620a2
  DW_CFA_restore: r14 (r14)
  DW_CFA_advance_loc: 2 to 00000000004620a4
  DW_CFA_restore: r13 (r13)
  DW_CFA_advance_loc: 2 to 00000000004620a6
  DW_CFA_restore: r12 (r12)
  DW_CFA_advance_loc: 3 to 00000000004620a9
  DW_CFA_restore: r6 (rbp)
  DW_CFA_advance_loc: 1 to 00000000004620aa
  DW_CFA_offset: r3 (rbx) at cfa-56
  DW_CFA_offset: r6 (rbp) at cfa-16
  DW_CFA_offset: r12 (r12) at cfa-24
  DW_CFA_offset: r13 (r13) at cfa-32
  DW_CFA_offset: r14 (r14) at cfa-40
  DW_CFA_offset: r15 (r15) at cfa-48
  DW_CFA_advance_loc1: 202 to 0000000000462174
  DW_CFA_restore: r3 (rbx)
  DW_CFA_advance_loc: 1 to 0000000000462175
  DW_CFA_restore: r15 (r15)
  DW_CFA_advance_loc: 2 to 0000000000462177
  DW_CFA_restore: r14 (r14)
  DW_CFA_advance_loc: 2 to 0000000000462179
  DW_CFA_restore: r13 (r13)
  DW_CFA_advance_loc: 2 to 000000000046217b
  DW_CFA_restore: r12 (r12)
  DW_CFA_advance_loc: 3 to 000000000046217e
  DW_CFA_restore: r6 (rbp)
  DW_CFA_nop
  DW_CFA_nop
  DW_CFA_nop
  DW_CFA_nop

00002db0 0000000000000024 00002d0c FDE cie=000000a8 pc=0000000000462180..00000000004621d0
  DW_CFA_advance_loc: 1 to 0000000000462181
  DW_CFA_def_cfa_offset: 16
  DW_CFA_advance_loc: 3 to 0000000000462184
  DW_CFA_def_cfa: r6 (rbp) ofs 16
  DW_CFA_offset: r6 (rbp) at cfa-16
  DW_CFA_advance_loc: 55 to 00000000004621bb
  DW_CFA_restore: r6 (rbp)
  DW_CFA_advance_loc: 1 to 00000000004621bc
  DW_CFA_offset: r6 (rbp) at cfa-16
  DW_CFA_advance_loc: 8 to 00000000004621c4
  DW_CFA_restore: r6 (rbp)

00002dd8 000000000000005c 00002d34 FDE cie=000000a8 pc=00000000004621d0..00000000004627b0
  DW_CFA_advance_loc: 1 to 00000000004621d1
  DW_CFA_def_cfa_offset: 16
  DW_CFA_advance_loc: 3 to 00000000004621d4
  DW_CFA_def_cfa: r6 (rbp) ofs 16
  DW_CFA_offset: r6 (rbp) at cfa-16
  DW_CFA_advance_loc: 7 to 00000000004621db
  DW_CFA_offset: r3 (rbx) at cfa-32
  DW_CFA_offset: r15 (r15) at cfa-24
  DW_CFA_advance_loc2: 616 to 0000000000462443
  DW_CFA_restore: r3 (rbx)
  DW_CFA_advance_loc: 1 to 0000000000462444
  DW_CFA_restore: r15 (r15)
  DW_CFA_advance_loc: 3 to 0000000000462447
  DW_CFA_restore: r6 (rbp)
  DW_CFA_advance_loc: 1 to 0000000000462448
  DW_CFA_offset: r3 (rbx) at cfa-32
  DW_CFA_offset: r6 (rbp) at cfa-16
  DW_CFA_offset: r15 (r15) at cfa-24
  DW_CFA_advance_loc1: 179 to 00000000004624fb
  DW_CFA_offset: r12 (r12) at cfa-72
  DW_CFA_offset: r13 (r13) at cfa-80
  DW_CFA_advance_loc2: 406 to 0000000000462691
  DW_CFA_restore: r12 (r12)
  DW_CFA_advance_loc: 7 to 0000000000462698
  DW_CFA_restore: r13 (r13)
  DW_CFA_advance_loc1: 220 to 0000000000462774
  DW_CFA_restore: r3 (rbx)
  DW_CFA_advance_loc: 1 to 0000000000462775
  DW_CFA_restore: r15 (r15)
  DW_CFA_advance_loc: 3 to 0000000000462778
  DW_CFA_restore: r6 (rbp)
  DW_CFA_advance_loc: 1 to 0000000000462779
  DW_CFA_offset: r3 (rbx) at cfa-32
  DW_CFA_offset: r6 (rbp) at cfa-16
  DW_CFA_offset: r15 (r15) at cfa-24
  DW_CFA_advance_loc: 24 to 0000000000462791
  DW_CFA_restore: r3 (rbx)
  DW_CFA_advance_loc: 1 to 0000000000462792
  DW_CFA_restore: r15 (r15)
  DW_CFA_advance_loc: 3 to 0000000000462795
  DW_CFA_restore: r6 (rbp)
  DW_CFA_advance_loc: 1 to 0000000000462796
  DW_CFA_offset: r3 (rbx) at cfa-32
  DW_CFA_offset: r6 (rbp) at cfa-16
  DW_CFA_offset: r15 (r15) at cfa-24
  DW_CFA_nop
  DW_CFA_nop
  DW_CFA_nop
  DW_CFA_nop

00002e38 000000000000007c 00002d94 FDE cie=000000a8 pc=00000000004627b0..0000000000462fb0
  DW_CFA_advance_loc: 1 to 00000000004627b1
  DW_CFA_def_cfa_offset: 16
  DW_CFA_advance_loc: 3 to 00000000004627b4
  DW_CFA_def_cfa: r6 (rbp) ofs 16
  DW_CFA_offset: r6 (rbp) at cfa-16
  DW_CFA_advance_loc: 10 to 00000000004627be
  DW_CFA_offset: r3 (rbx) at cfa-56
  DW_CFA_offset: r12 (r12) at cfa-24
  DW_CFA_offset: r13 (r13) at cfa-32
  DW_CFA_offset: r14 (r14) at cfa-40
  DW_CFA_offset: r15 (r15) at cfa-48
  DW_CFA_advance_loc2: 1220 to 0000000000462c82
  DW_CFA_restore: r3 (rbx)
  DW_CFA_advance_loc: 1 to 0000000000462c83
  DW_CFA_restore: r15 (r15)
  DW_CFA_advance_loc: 2 to 0000000000462c85
  DW_CFA_restore: r14 (r14)
  DW_CFA_advance_loc: 2 to 0000000000462c87
  DW_CFA_restore: r13 (r13)
  DW_CFA_advance_loc: 2 to 0000000000462c89
  DW_CFA_restore: r12 (r12)
  DW_CFA_advance_loc: 3 to 0000000000462c8c
  DW_CFA_restore: r6 (rbp)
  DW_CFA_advance_loc: 1 to 0000000000462c8d
  DW_CFA_offset: r3 (rbx) at cfa-56
  DW_CFA_offset: r6 (rbp) at cfa-16
  DW_CFA_offset: r12 (r12) at cfa-24
  DW_CFA_offset: r13 (r13) at cfa-32
  DW_CFA_offset: r14 (r14) at cfa-40
  DW_CFA_offset: r15 (r15) at cfa-48
  DW_CFA_advance_loc1: 107 to 0000000000462cf8
  DW_CFA_restore: r3 (rbx)
  DW_CFA_advance_loc: 1 to 0000000000462cf9
  DW_CFA_restore: r15 (r15)
  DW_CFA_advance_loc: 2 to 0000000000462cfb
  DW_CFA_restore: r14 (r14)
  DW_CFA_advance_loc: 2 to 0000000000462cfd
  DW_CFA_restore: r13 (r13)
  DW_CFA_advance_loc: 2 to 0000000000462cff
  DW_CFA_restore: r12 (r12)
  DW_CFA_advance_loc: 3 to 0000000000462d02
  DW_CFA_restore: r6 (rbp)
  DW_CFA_advance_loc: 1 to 0000000000462d03
  DW_CFA_offset: r3 (rbx) at cfa-56
  DW_CFA_offset: r6 (rbp) at cfa-16
  DW_CFA_offset: r12 (r12) at cfa-24
  DW_CFA_offset: r13 (r13) at cfa-32
  DW_CFA_offset: r14 (r14) at cfa-40
  DW_CFA_offset: r15 (r15) at cfa-48
  DW_CFA_advance_loc2: 634 to 0000000000462f7d
  DW_CFA_restore: r3 (rbx)
  DW_CFA_advance_loc: 1 to 0000000000462f7e
  DW_CFA_restore: r15 (r15)
  DW_CFA_advance_loc: 2 to 0000000000462f80
  DW_CFA_restore: r14 (r14)
  DW_CFA_advance_loc: 2 to 0000000000462f82
  DW_CFA_restore: r13 (r13)
  DW_CFA_advance_loc: 2 to 0000000000462f84
  DW_CFA_restore: r12 (r12)
  DW_CFA_advance_loc: 3 to 0000000000462f87
  DW_CFA_restore: r6 (rbp)
  DW_CFA_advance_loc: 1 to 0000000000462f88
  DW_CFA_offset: r3 (rbx) at cfa-56
  DW_CFA_offset: r6 (rbp) at cfa-16
  DW_CFA_offset: r12 (r12) at cfa-24
  DW_CFA_offset: r13 (r13) at cfa-32
  DW_CFA_offset: r14 (r14) at cfa-40
  DW_CFA_offset: r15 (r15) at cfa-48
  DW_CFA_nop
  DW_CFA_nop
  DW_CFA_nop
  DW_CFA_nop

00002eb8 0000000000000034 00002e14 FDE cie=000000a8 pc=0000000000462fb0..0000000000463080
  DW_CFA_advance_loc: 1 to 0000000000462fb1
  DW_CFA_def_cfa_offset: 16
  DW_CFA_advance_loc: 3 to 0000000000462fb4
  DW_CFA_def_cfa: r6 (rbp) ofs 16
  DW_CFA_offset: r6 (rbp) at cfa-16
  DW_CFA_advance_loc: 62 to 0000000000462ff2
  DW_CFA_restore: r6 (rbp)
  DW_CFA_advance_loc: 1 to 0000000000462ff3
  DW_CFA_offset: r6 (rbp) at cfa-16
  DW_CFA_advance_loc1: 89 to 000000000046304c
  DW_CFA_restore: r6 (rbp)
  DW_CFA_advance_loc: 1 to 000000000046304d
  DW_CFA_offset: r6 (rbp) at cfa-16
  DW_CFA_advance_loc: 6 to 0000000000463053
  DW_CFA_restore: r6 (rbp)
  DW_CFA_advance_loc: 1 to 0000000000463054
  DW_CFA_offset: r6 (rbp) at cfa-16
  DW_CFA_advance_loc: 30 to 0000000000463072
  DW_CFA_restore: r6 (rbp)
  DW_CFA_nop
  DW_CFA_nop
  DW_CFA_nop
  DW_CFA_nop
  DW_CFA_nop

00002ef0 0000000000000044 00002e4c FDE cie=000000a8 pc=0000000000463080..00000000004631f0
  DW_CFA_advance_loc: 1 to 0000000000463081
  DW_CFA_def_cfa_offset: 16
  DW_CFA_advance_loc: 3 to 0000000000463084
  DW_CFA_def_cfa: r6 (rbp) ofs 16
  DW_CFA_offset: r6 (rbp) at cfa-16
  DW_CFA_advance_loc: 12 to 0000000000463090
  DW_CFA_offset: r3 (rbx) at cfa-40
  DW_CFA_offset: r12 (r12) at cfa-24
  DW_CFA_offset: r14 (r14) at cfa-32
  DW_CFA_advance_loc1: 242 to 0000000000463182
  DW_CFA_restore: r3 (rbx)
  DW_CFA_advance_loc: 1 to 0000000000463183
  DW_CFA_restore: r14 (r14)
  DW_CFA_advance_loc: 2 to 0000000000463185
  DW_CFA_restore: r12 (r12)
  DW_CFA_advance_loc: 3 to 0000000000463188
  DW_CFA_restore: r6 (rbp)
  DW_CFA_advance_loc: 1 to 0000000000463189
  DW_CFA_offset: r3 (rbx) at cfa-40
  DW_CFA_offset: r6 (rbp) at cfa-16
  DW_CFA_offset: r12 (r12) at cfa-24
  DW_CFA_offset: r14 (r14) at cfa-32
  DW_CFA_advance_loc1: 86 to 00000000004631df
  DW_CFA_restore: r3 (rbx)
  DW_CFA_advance_loc: 1 to 00000000004631e0
  DW_CFA_restore: r14 (r14)
  DW_CFA_advance_loc: 2 to 00000000004631e2
  DW_CFA_restore: r12 (r12)
  DW_CFA_advance_loc: 3 to 00000000004631e5
  DW_CFA_restore: r6 (rbp)
  DW_CFA_nop
  DW_CFA_nop
  DW_CFA_nop
  DW_CFA_nop
  DW_CFA_nop

00002f38 0000000000000184 00002e94 FDE cie=000000a8 pc=00000000004631f0..0000000000464b40
  DW_CFA_advance_loc: 1 to 00000000004631f1
  DW_CFA_def_cfa_offset: 16
  DW_CFA_advance_loc: 3 to 00000000004631f4
  DW_CFA_def_cfa: r6 (rbp) ofs 16
  DW_CFA_offset: r6 (rbp) at cfa-16
  DW_CFA_advance_loc: 18 to 0000000000463206
  DW_CFA_offset: r3 (rbx) at cfa-56
  DW_CFA_offset: r12 (r12) at cfa-24
  DW_CFA_offset: r13 (r13) at cfa-32
  DW_CFA_offset: r14 (r14) at cfa-40
  DW_CFA_offset: r15 (r15) at cfa-48
  DW_CFA_advance_loc2: 285 to 0000000000463323
  DW_CFA_restore: r3 (rbx)
  DW_CFA_advance_loc: 1 to 0000000000463324
  DW_CFA_restore: r15 (r15)
  DW_CFA_advance_loc: 2 to 0000000000463326
  DW_CFA_restore: r14 (r14)
  DW_CFA_advance_loc: 2 to 0000000000463328
  DW_CFA_restore: r13 (r13)
  DW_CFA_advance_loc: 2 to 000000000046332a
  DW_CFA_restore: r12 (r12)
  DW_CFA_advance_loc: 3 to 000000000046332d
  DW_CFA_restore: r6 (rbp)
  DW_CFA_advance_loc: 1 to 000000000046332e
  DW_CFA_offset: r3 (rbx) at cfa-56
  DW_CFA_offset: r6 (rbp) at cfa-16
  DW_CFA_offset: r12 (r12) at cfa-24
  DW_CFA_offset: r13 (r13) at cfa-32
  DW_CFA_offset: r14 (r14) at cfa-40
  DW_CFA_offset: r15 (r15) at cfa-48
  DW_CFA_advance_loc2: 370 to 00000000004634a0
  DW_CFA_restore: r3 (rbx)
  DW_CFA_advance_loc: 1 to 00000000004634a1
  DW_CFA_restore: r15 (r15)
  DW_CFA_advance_loc: 2 to 00000000004634a3
  DW_CFA_restore: r14 (r14)
  DW_CFA_advance_loc: 2 to 00000000004634a5
  DW_CFA_restore: r13 (r13)
  DW_CFA_advance_loc: 2 to 00000000004634a7
  DW_CFA_restore: r12 (r12)
  DW_CFA_advance_loc: 3 to 00000000004634aa
  DW_CFA_restore: r6 (rbp)
  DW_CFA_advance_loc: 1 to 00000000004634ab
  DW_CFA_offset: r3 (rbx) at cfa-56
  DW_CFA_offset: r6 (rbp) at cfa-16
  DW_CFA_offset: r12 (r12) at cfa-24
  DW_CFA_offset: r13 (r13) at cfa-32
  DW_CFA_offset: r14 (r14) at cfa-40
  DW_CFA_offset: r15 (r15) at cfa-48
  DW_CFA_advance_loc2: 1213 to 0000000000463968
  DW_CFA_restore: r3 (rbx)
  DW_CFA_advance_loc: 1 to 0000000000463969
  DW_CFA_restore: r15 (r15)
  DW_CFA_advance_loc: 2 to 000000000046396b
  DW_CFA_restore: r14 (r14)
  DW_CFA_advance_loc: 2 to 000000000046396d
  DW_CFA_restore: r13 (r13)
  DW_CFA_advance_loc: 2 to 000000000046396f
  DW_CFA_restore: r12 (r12)
  DW_CFA_advance_loc: 3 to 0000000000463972
  DW_CFA_restore: r6 (rbp)
  DW_CFA_advance_loc: 1 to 0000000000463973
  DW_CFA_offset: r3 (rbx) at cfa-56
  DW_CFA_offset: r6 (rbp) at cfa-16
  DW_CFA_offset: r12 (r12) at cfa-24
  DW_CFA_offset: r13 (r13) at cfa-32
  DW_CFA_offset: r14 (r14) at cfa-40
  DW_CFA_offset: r15 (r15) at cfa-48
  DW_CFA_advance_loc: 6 to 0000000000463979
  DW_CFA_restore: r3 (rbx)
  DW_CFA_advance_loc: 1 to 000000000046397a
  DW_CFA_restore: r15 (r15)
  DW_CFA_advance_loc: 2 to 000000000046397c
  DW_CFA_restore: r14 (r14)
  DW_CFA_advance_loc: 2 to 000000000046397e
  DW_CFA_restore: r13 (r13)
  DW_CFA_advance_loc: 2 to 0000000000463980
  DW_CFA_restore: r12 (r12)
  DW_CFA_advance_loc: 3 to 0000000000463983
  DW_CFA_restore: r6 (rbp)
  DW_CFA_advance_loc: 1 to 0000000000463984
  DW_CFA_offset: r3 (rbx) at cfa-56
  DW_CFA_offset: r6 (rbp) at cfa-16
  DW_CFA_offset: r12 (r12) at cfa-24
  DW_CFA_offset: r13 (r13) at cfa-32
  DW_CFA_offset: r14 (r14) at cfa-40
  DW_CFA_offset: r15 (r15) at cfa-48
  DW_CFA_advance_loc2: 788 to 0000000000463c98
  DW_CFA_restore: r3 (rbx)
  DW_CFA_advance_loc: 1 to 0000000000463c99
  DW_CFA_restore: r15 (r15)
  DW_CFA_advance_loc: 2 to 0000000000463c9b
  DW_CFA_restore: r14 (r14)
  DW_CFA_advance_loc: 2 to 0000000000463c9d
  DW_CFA_restore: r13 (r13)
  DW_CFA_advance_loc: 2 to 0000000000463c9f
  DW_CFA_restore: r12 (r12)
  DW_CFA_advance_loc: 3 to 0000000000463ca2
  DW_CFA_restore: r6 (rbp)
  DW_CFA_advance_loc: 1 to 0000000000463ca3
  DW_CFA_offset: r3 (rbx) at cfa-56
  DW_CFA_offset: r6 (rbp) at cfa-16
  DW_CFA_offset: r12 (r12) at cfa-24
  DW_CFA_offset: r13 (r13) at cfa-32
  DW_CFA_offset: r14 (r14) at cfa-40
  DW_CFA_offset: r15 (r15) at cfa-48
  DW_CFA_advance_loc2: 1078 to 00000000004640d9
  DW_CFA_restore: r3 (rbx)
  DW_CFA_advance_loc: 1 to 00000000004640da
  DW_CFA_restore: r15 (r15)
  DW_CFA_advance_loc: 2 to 00000000004640dc
  DW_CFA_restore: r14 (r14)
  DW_CFA_advance_loc: 2 to 00000000004640de
  DW_CFA_restore: r13 (r13)
  DW_CFA_advance_loc: 2 to 00000000004640e0
  DW_CFA_restore: r12 (r12)
  DW_CFA_advance_loc: 3 to 00000000004640e3
  DW_CFA_restore: r6 (rbp)
  DW_CFA_advance_loc: 1 to 00000000004640e4
  DW_CFA_offset: r3 (rbx) at cfa-56
  DW_CFA_offset: r6 (rbp) at cfa-16
  DW_CFA_offset: r12 (r12) at cfa-24
  DW_CFA_offset: r13 (r13) at cfa-32
  DW_CFA_offset: r14 (r14) at cfa-40
  DW_CFA_offset: r15 (r15) at cfa-48
  DW_CFA_advance_loc2: 275 to 00000000004641f7
  DW_CFA_restore: r3 (rbx)
  DW_CFA_advance_loc: 1 to 00000000004641f8
  DW_CFA_restore: r15 (r15)
  DW_CFA_advance_loc: 2 to 00000000004641fa
  DW_CFA_restore: r14 (r14)
  DW_CFA_advance_loc: 2 to 00000000004641fc
  DW_CFA_restore: r13 (r13)
  DW_CFA_advance_loc: 2 to 00000000004641fe
  DW_CFA_restore: r12 (r12)
  DW_CFA_advance_loc: 3 to 0000000000464201
  DW_CFA_restore: r6 (rbp)
  DW_CFA_advance_loc: 1 to 0000000000464202
  DW_CFA_offset: r3 (rbx) at cfa-56
  DW_CFA_offset: r6 (rbp) at cfa-16
  DW_CFA_offset: r12 (r12) at cfa-24
  DW_CFA_offset: r13 (r13) at cfa-32
  DW_CFA_offset: r14 (r14) at cfa-40
  DW_CFA_offset: r15 (r15) at cfa-48
  DW_CFA_advance_loc1: 237 to 00000000004642ef
  DW_CFA_restore: r3 (rbx)
  DW_CFA_advance_loc: 1 to 00000000004642f0
  DW_CFA_restore: r15 (r15)
  DW_CFA_advance_loc: 2 to 00000000004642f2
  DW_CFA_restore: r14 (r14)
  DW_CFA_advance_loc: 2 to 00000000004642f4
  DW_CFA_restore: r13 (r13)
  DW_CFA_advance_loc: 2 to 00000000004642f6
  DW_CFA_restore: r12 (r12)
  DW_CFA_advance_loc: 3 to 00000000004642f9
  DW_CFA_restore: r6 (rbp)
  DW_CFA_advance_loc: 1 to 00000000004642fa
  DW_CFA_offset: r3 (rbx) at cfa-56
  DW_CFA_offset: r6 (rbp) at cfa-16
  DW_CFA_offset: r12 (r12) at cfa-24
  DW_CFA_offset: r13 (r13) at cfa-32
  DW_CFA_offset: r14 (r14) at cfa-40
  DW_CFA_offset: r15 (r15) at cfa-48
  DW_CFA_advance_loc2: 935 to 00000000004646a1
  DW_CFA_restore: r3 (rbx)
  DW_CFA_advance_loc: 1 to 00000000004646a2
  DW_CFA_restore: r15 (r15)
  DW_CFA_advance_loc: 2 to 00000000004646a4
  DW_CFA_restore: r14 (r14)
  DW_CFA_advance_loc: 2 to 00000000004646a6
  DW_CFA_restore: r13 (r13)
  DW_CFA_advance_loc: 2 to 00000000004646a8
  DW_CFA_restore: r12 (r12)
  DW_CFA_advance_loc: 3 to 00000000004646ab
  DW_CFA_restore: r6 (rbp)
  DW_CFA_advance_loc: 1 to 00000000004646ac
  DW_CFA_offset: r3 (rbx) at cfa-56
  DW_CFA_offset: r6 (rbp) at cfa-16
  DW_CFA_offset: r12 (r12) at cfa-24
  DW_CFA_offset: r13 (r13) at cfa-32
  DW_CFA_offset: r14 (r14) at cfa-40
  DW_CFA_offset: r15 (r15) at cfa-48
  DW_CFA_advance_loc2: 646 to 0000000000464932
  DW_CFA_restore: r3 (rbx)
  DW_CFA_advance_loc: 1 to 0000000000464933
  DW_CFA_restore: r15 (r15)
  DW_CFA_advance_loc: 2 to 0000000000464935
  DW_CFA_restore: r14 (r14)
  DW_CFA_advance_loc: 2 to 0000000000464937
  DW_CFA_restore: r13 (r13)
  DW_CFA_advance_loc: 2 to 0000000000464939
  DW_CFA_restore: r12 (r12)
  DW_CFA_advance_loc: 3 to 000000000046493c
  DW_CFA_restore: r6 (rbp)
  DW_CFA_advance_loc: 1 to 000000000046493d
  DW_CFA_offset: r3 (rbx) at cfa-56
  DW_CFA_offset: r6 (rbp) at cfa-16
  DW_CFA_offset: r12 (r12) at cfa-24
  DW_CFA_offset: r13 (r13) at cfa-32
  DW_CFA_offset: r14 (r14) at cfa-40
  DW_CFA_offset: r15 (r15) at cfa-48
  DW_CFA_advance_loc: 22 to 0000000000464953
  DW_CFA_restore: r3 (rbx)
  DW_CFA_advance_loc: 1 to 0000000000464954
  DW_CFA_restore: r15 (r15)
  DW_CFA_advance_loc: 2 to 0000000000464956
  DW_CFA_restore: r14 (r14)
  DW_CFA_advance_loc: 2 to 0000000000464958
  DW_CFA_restore: r13 (r13)
  DW_CFA_advance_loc: 2 to 000000000046495a
  DW_CFA_restore: r12 (r12)
  DW_CFA_advance_loc: 3 to 000000000046495d
  DW_CFA_restore: r6 (rbp)
  DW_CFA_advance_loc: 1 to 000000000046495e
  DW_CFA_offset: r3 (rbx) at cfa-56
  DW_CFA_offset: r6 (rbp) at cfa-16
  DW_CFA_offset: r12 (r12) at cfa-24
  DW_CFA_offset: r13 (r13) at cfa-32
  DW_CFA_offset: r14 (r14) at cfa-40
  DW_CFA_offset: r15 (r15) at cfa-48
  DW_CFA_advance_loc2: 429 to 0000000000464b0b
  DW_CFA_restore: r3 (rbx)
  DW_CFA_advance_loc: 1 to 0000000000464b0c
  DW_CFA_restore: r15 (r15)
  DW_CFA_advance_loc: 2 to 0000000000464b0e
  DW_CFA_restore: r14 (r14)
  DW_CFA_advance_loc: 2 to 0000000000464b10
  DW_CFA_restore: r13 (r13)
  DW_CFA_advance_loc: 2 to 0000000000464b12
  DW_CFA_restore: r12 (r12)
  DW_CFA_advance_loc: 3 to 0000000000464b15
  DW_CFA_restore: r6 (rbp)
  DW_CFA_advance_loc: 1 to 0000000000464b16
  DW_CFA_offset: r3 (rbx) at cfa-56
  DW_CFA_offset: r6 (rbp) at cfa-16
  DW_CFA_offset: r12 (r12) at cfa-24
  DW_CFA_offset: r13 (r13) at cfa-32
  DW_CFA_offset: r14 (r14) at cfa-40
  DW_CFA_offset: r15 (r15) at cfa-48
  DW_CFA_advance_loc: 15 to 0000000000464b25
  DW_CFA_restore: r3 (rbx)
  DW_CFA_advance_loc: 1 to 0000000000464b26
  DW_CFA_restore: r15 (r15)
  DW_CFA_advance_loc: 2 to 0000000000464b28
  DW_CFA_restore: r14 (r14)
  DW_CFA_advance_loc: 2 to 0000000000464b2a
  DW_CFA_restore: r13 (r13)
  DW_CFA_advance_loc: 2 to 0000000000464b2c
  DW_CFA_restore: r12 (r12)
  DW_CFA_advance_loc: 3 to 0000000000464b2f
  DW_CFA_restore: r6 (rbp)
  DW_CFA_advance_loc: 1 to 0000000000464b30
  DW_CFA_offset: r3 (rbx) at cfa-56
  DW_CFA_offset: r6 (rbp) at cfa-16
  DW_CFA_offset: r12 (r12) at cfa-24
  DW_CFA_offset: r13 (r13) at cfa-32
  DW_CFA_offset: r14 (r14) at cfa-40
  DW_CFA_offset: r15 (r15) at cfa-48
  DW_CFA_nop
  DW_CFA_nop
  DW_CFA_nop
  DW_CFA_nop

000030c0 000000000000002c 0000301c FDE cie=000000a8 pc=0000000000464b40..0000000000464c10
  DW_CFA_advance_loc: 1 to 0000000000464b41
  DW_CFA_def_cfa_offset: 16
  DW_CFA_advance_loc: 3 to 0000000000464b44
  DW_CFA_def_cfa: r6 (rbp) ofs 16
  DW_CFA_offset: r6 (rbp) at cfa-16
  DW_CFA_advance_loc: 3 to 0000000000464b47
  DW_CFA_offset: r3 (rbx) at cfa-32
  DW_CFA_offset: r15 (r15) at cfa-24
  DW_CFA_advance_loc1: 182 to 0000000000464bfd
  DW_CFA_restore: r3 (rbx)
  DW_CFA_advance_loc: 1 to 0000000000464bfe
  DW_CFA_restore: r15 (r15)
  DW_CFA_advance_loc: 3 to 0000000000464c01
  DW_CFA_restore: r6 (rbp)
  DW_CFA_nop
  DW_CFA_nop
  DW_CFA_nop

000030f0 000000000000003c 0000304c FDE cie=000000a8 pc=0000000000464c10..0000000000464d50
  DW_CFA_advance_loc: 1 to 0000000000464c11
  DW_CFA_def_cfa_offset: 16
  DW_CFA_advance_loc: 3 to 0000000000464c14
  DW_CFA_def_cfa: r6 (rbp) ofs 16
  DW_CFA_offset: r6 (rbp) at cfa-16
  DW_CFA_advance_loc: 7 to 0000000000464c1b
  DW_CFA_offset: r3 (rbx) at cfa-48
  DW_CFA_offset: r13 (r13) at cfa-24
  DW_CFA_offset: r14 (r14) at cfa-32
  DW_CFA_offset: r15 (r15) at cfa-40
  DW_CFA_advance_loc1: 203 to 0000000000464ce6
  DW_CFA_restore: r3 (rbx)
  DW_CFA_advance_loc: 1 to 0000000000464ce7
  DW_CFA_restore: r15 (r15)
  DW_CFA_advance_loc: 2 to 0000000000464ce9
  DW_CFA_restore: r14 (r14)
  DW_CFA_advance_loc: 2 to 0000000000464ceb
  DW_CFA_restore: r13 (r13)
  DW_CFA_advance_loc: 3 to 0000000000464cee
  DW_CFA_restore: r6 (rbp)
  DW_CFA_advance_loc: 1 to 0000000000464cef
  DW_CFA_offset: r3 (rbx) at cfa-48
  DW_CFA_offset: r6 (rbp) at cfa-16
  DW_CFA_offset: r13 (r13) at cfa-24
  DW_CFA_offset: r14 (r14) at cfa-32
  DW_CFA_offset: r15 (r15) at cfa-40

00003130 000000000000003c 0000308c FDE cie=000000a8 pc=0000000000464d50..00000000004653d0
  DW_CFA_advance_loc: 1 to 0000000000464d51
  DW_CFA_def_cfa_offset: 16
  DW_CFA_advance_loc: 3 to 0000000000464d54
  DW_CFA_def_cfa: r6 (rbp) ofs 16
  DW_CFA_offset: r6 (rbp) at cfa-16
  DW_CFA_advance_loc: 9 to 0000000000464d5d
  DW_CFA_offset: r3 (rbx) at cfa-40
  DW_CFA_offset: r14 (r14) at cfa-24
  DW_CFA_offset: r15 (r15) at cfa-32
  DW_CFA_advance_loc2: 919 to 00000000004650f4
  DW_CFA_restore: r3 (rbx)
  DW_CFA_advance_loc: 1 to 00000000004650f5
  DW_CFA_restore: r15 (r15)
  DW_CFA_advance_loc: 2 to 00000000004650f7
  DW_CFA_restore: r14 (r14)
  DW_CFA_advance_loc: 3 to 00000000004650fa
  DW_CFA_restore: r6 (rbp)
  DW_CFA_advance_loc: 1 to 00000000004650fb
  DW_CFA_offset: r3 (rbx) at cfa-40
  DW_CFA_offset: r6 (rbp) at cfa-16
  DW_CFA_offset: r14 (r14) at cfa-24
  DW_CFA_offset: r15 (r15) at cfa-32
  DW_CFA_nop
  DW_CFA_nop
  DW_CFA_nop
  DW_CFA_nop
  DW_CFA_nop

00003170 000000000000004c 000030cc FDE cie=000000a8 pc=00000000004653d0..0000000000465520
  DW_CFA_advance_loc: 1 to 00000000004653d1
  DW_CFA_def_cfa_offset: 16
  DW_CFA_advance_loc: 3 to 00000000004653d4
  DW_CFA_def_cfa: r6 (rbp) ofs 16
  DW_CFA_offset: r6 (rbp) at cfa-16
  DW_CFA_advance_loc: 8 to 00000000004653dc
  DW_CFA_offset: r13 (r13) at cfa-24
  DW_CFA_offset: r14 (r14) at cfa-32
  DW_CFA_advance_loc: 32 to 00000000004653fc
  DW_CFA_restore: r14 (r14)
  DW_CFA_advance_loc: 2 to 00000000004653fe
  DW_CFA_restore: r13 (r13)
  DW_CFA_advance_loc: 3 to 0000000000465401
  DW_CFA_restore: r6 (rbp)
  DW_CFA_advance_loc: 1 to 0000000000465402
  DW_CFA_offset: r6 (rbp) at cfa-16
  DW_CFA_offset: r13 (r13) at cfa-24
  DW_CFA_offset: r14 (r14) at cfa-32
  DW_CFA_advance_loc1: 133 to 0000000000465487
  DW_CFA_restore: r14 (r14)
  DW_CFA_advance_loc: 2 to 0000000000465489
  DW_CFA_restore: r13 (r13)
  DW_CFA_advance_loc: 3 to 000000000046548c
  DW_CFA_restore: r6 (rbp)
  DW_CFA_advance_loc: 1 to 000000000046548d
  DW_CFA_offset: r6 (rbp) at cfa-16
  DW_CFA_offset: r13 (r13) at cfa-24
  DW_CFA_offset: r14 (r14) at cfa-32
  DW_CFA_advance_loc: 46 to 00000000004654bb
  DW_CFA_restore: r14 (r14)
  DW_CFA_advance_loc: 2 to 00000000004654bd
  DW_CFA_restore: r13 (r13)
  DW_CFA_advance_loc: 3 to 00000000004654c0
  DW_CFA_restore: r6 (rbp)
  DW_CFA_advance_loc: 1 to 00000000004654c1
  DW_CFA_offset: r6 (rbp) at cfa-16
  DW_CFA_offset: r13 (r13) at cfa-24
  DW_CFA_offset: r14 (r14) at cfa-32
  DW_CFA_nop
  DW_CFA_nop

000031c0 000000000000003c 0000311c FDE cie=000000a8 pc=0000000000465520..0000000000465e90
  DW_CFA_advance_loc: 1 to 0000000000465521
  DW_CFA_def_cfa_offset: 16
  DW_CFA_advance_loc: 3 to 0000000000465524
  DW_CFA_def_cfa: r6 (rbp) ofs 16
  DW_CFA_offset: r6 (rbp) at cfa-16
  DW_CFA_advance_loc: 9 to 000000000046552d
  DW_CFA_offset: r3 (rbx) at cfa-40
  DW_CFA_offset: r12 (r12) at cfa-24
  DW_CFA_offset: r15 (r15) at cfa-32
  DW_CFA_advance_loc2: 1641 to 0000000000465b96
  DW_CFA_restore: r3 (rbx)
  DW_CFA_advance_loc: 1 to 0000000000465b97
  DW_CFA_restore: r15 (r15)
  DW_CFA_advance_loc: 2 to 0000000000465b99
  DW_CFA_restore: r12 (r12)
  DW_CFA_advance_loc: 3 to 0000000000465b9c
  DW_CFA_restore: r6 (rbp)
  DW_CFA_advance_loc: 1 to 0000000000465b9d
  DW_CFA_offset: r3 (rbx) at cfa-40
  DW_CFA_offset: r6 (rbp) at cfa-16
  DW_CFA_offset: r12 (r12) at cfa-24
  DW_CFA_offset: r15 (r15) at cfa-32
  DW_CFA_nop
  DW_CFA_nop
  DW_CFA_nop
  DW_CFA_nop
  DW_CFA_nop

00003200 000000000000010c 0000315c FDE cie=000000a8 pc=0000000000465e90..00000000004669a0
  DW_CFA_advance_loc: 1 to 0000000000465e91
  DW_CFA_def_cfa_offset: 16
  DW_CFA_advance_loc: 3 to 0000000000465e94
  DW_CFA_def_cfa: r6 (rbp) ofs 16
  DW_CFA_offset: r6 (rbp) at cfa-16
  DW_CFA_advance_loc: 13 to 0000000000465ea1
  DW_CFA_offset: r3 (rbx) at cfa-56
  DW_CFA_offset: r12 (r12) at cfa-24
  DW_CFA_offset: r13 (r13) at cfa-32
  DW_CFA_offset: r14 (r14) at cfa-40
  DW_CFA_offset: r15 (r15) at cfa-48
  DW_CFA_advance_loc2: 533 to 00000000004660b6
  DW_CFA_restore: r3 (rbx)
  DW_CFA_advance_loc: 1 to 00000000004660b7
  DW_CFA_restore: r15 (r15)
  DW_CFA_advance_loc: 2 to 00000000004660b9
  DW_CFA_restore: r14 (r14)
  DW_CFA_advance_loc: 2 to 00000000004660bb
  DW_CFA_restore: r13 (r13)
  DW_CFA_advance_loc: 2 to 00000000004660bd
  DW_CFA_restore: r12 (r12)
  DW_CFA_advance_loc: 3 to 00000000004660c0
  DW_CFA_restore: r6 (rbp)
  DW_CFA_advance_loc: 1 to 00000000004660c1
  DW_CFA_offset: r3 (rbx) at cfa-56
  DW_CFA_offset: r6 (rbp) at cfa-16
  DW_CFA_offset: r12 (r12) at cfa-24
  DW_CFA_offset: r13 (r13) at cfa-32
  DW_CFA_offset: r14 (r14) at cfa-40
  DW_CFA_offset: r15 (r15) at cfa-48
  DW_CFA_advance_loc2: 608 to 0000000000466321
  DW_CFA_restore: r3 (rbx)
  DW_CFA_advance_loc: 1 to 0000000000466322
  DW_CFA_restore: r15 (r15)
  DW_CFA_advance_loc: 2 to 0000000000466324
  DW_CFA_restore: r14 (r14)
  DW_CFA_advance_loc: 2 to 0000000000466326
  DW_CFA_restore: r13 (r13)
  DW_CFA_advance_loc: 2 to 0000000000466328
  DW_CFA_restore: r12 (r12)
  DW_CFA_advance_loc: 3 to 000000000046632b
  DW_CFA_restore: r6 (rbp)
  DW_CFA_advance_loc: 1 to 000000000046632c
  DW_CFA_offset: r3 (rbx) at cfa-56
  DW_CFA_offset: r6 (rbp) at cfa-16
  DW_CFA_offset: r12 (r12) at cfa-24
  DW_CFA_offset: r13 (r13) at cfa-32
  DW_CFA_offset: r14 (r14) at cfa-40
  DW_CFA_offset: r15 (r15) at cfa-48
  DW_CFA_advance_loc2: 268 to 0000000000466438
  DW_CFA_restore: r3 (rbx)
  DW_CFA_advance_loc: 1 to 0000000000466439
  DW_CFA_restore: r15 (r15)
  DW_CFA_advance_loc: 2 to 000000000046643b
  DW_CFA_restore: r14 (r14)
  DW_CFA_advance_loc: 2 to 000000000046643d
  DW_CFA_restore: r13 (r13)
  DW_CFA_advance_loc: 2 to 000000000046643f
  DW_CFA_restore: r12 (r12)
  DW_CFA_advance_loc: 3 to 0000000000466442
  DW_CFA_restore: r6 (rbp)
  DW_CFA_advance_loc: 1 to 0000000000466443
  DW_CFA_offset: r3 (rbx) at cfa-56
  DW_CFA_offset: r6 (rbp) at cfa-16
  DW_CFA_offset: r12 (r12) at cfa-24
  DW_CFA_offset: r13 (r13) at cfa-32
  DW_CFA_offset: r14 (r14) at cfa-40
  DW_CFA_offset: r15 (r15) at cfa-48
  DW_CFA_advance_loc: 43 to 000000000046646e
  DW_CFA_restore: r3 (rbx)
  DW_CFA_advance_loc: 1 to 000000000046646f
  DW_CFA_restore: r15 (r15)
  DW_CFA_advance_loc: 2 to 0000000000466471
  DW_CFA_restore: r14 (r14)
  DW_CFA_advance_loc: 2 to 0000000000466473
  DW_CFA_restore: r13 (r13)
  DW_CFA_advance_loc: 2 to 0000000000466475
  DW_CFA_restore: r12 (r12)
  DW_CFA_advance_loc: 3 to 0000000000466478
  DW_CFA_restore: r6 (rbp)
  DW_CFA_advance_loc: 1 to 0000000000466479
  DW_CFA_offset: r3 (rbx) at cfa-56
  DW_CFA_offset: r6 (rbp) at cfa-16
  DW_CFA_offset: r12 (r12) at cfa-24
  DW_CFA_offset: r13 (r13) at cfa-32
  DW_CFA_offset: r14 (r14) at cfa-40
  DW_CFA_offset: r15 (r15) at cfa-48
  DW_CFA_advance_loc: 7 to 0000000000466480
  DW_CFA_restore: r3 (rbx)
  DW_CFA_advance_loc: 1 to 0000000000466481
  DW_CFA_restore: r15 (r15)
  DW_CFA_advance_loc: 2 to 0000000000466483
  DW_CFA_restore: r14 (r14)
  DW_CFA_advance_loc: 2 to 0000000000466485
  DW_CFA_restore: r13 (r13)
  DW_CFA_advance_loc: 2 to 0000000000466487
  DW_CFA_restore: r12 (r12)
  DW_CFA_advance_loc: 3 to 000000000046648a
  DW_CFA_restore: r6 (rbp)
  DW_CFA_advance_loc: 1 to 000000000046648b
  DW_CFA_offset: r3 (rbx) at cfa-56
  DW_CFA_offset: r6 (rbp) at cfa-16
  DW_CFA_offset: r12 (r12) at cfa-24
  DW_CFA_offset: r13 (r13) at cfa-32
  DW_CFA_offset: r14 (r14) at cfa-40
  DW_CFA_offset: r15 (r15) at cfa-48
  DW_CFA_advance_loc1: 142 to 0000000000466519
  DW_CFA_restore: r3 (rbx)
  DW_CFA_advance_loc: 1 to 000000000046651a
  DW_CFA_restore: r15 (r15)
  DW_CFA_advance_loc: 2 to 000000000046651c
  DW_CFA_restore: r14 (r14)
  DW_CFA_advance_loc: 2 to 000000000046651e
  DW_CFA_restore: r13 (r13)
  DW_CFA_advance_loc: 2 to 0000000000466520
  DW_CFA_restore: r12 (r12)
  DW_CFA_advance_loc: 3 to 0000000000466523
  DW_CFA_restore: r6 (rbp)
  DW_CFA_advance_loc: 1 to 0000000000466524
  DW_CFA_offset: r3 (rbx) at cfa-56
  DW_CFA_offset: r6 (rbp) at cfa-16
  DW_CFA_offset: r12 (r12) at cfa-24
  DW_CFA_offset: r13 (r13) at cfa-32
  DW_CFA_offset: r14 (r14) at cfa-40
  DW_CFA_offset: r15 (r15) at cfa-48
  DW_CFA_advance_loc2: 364 to 0000000000466690
  DW_CFA_restore: r3 (rbx)
  DW_CFA_advance_loc: 1 to 0000000000466691
  DW_CFA_restore: r15 (r15)
  DW_CFA_advance_loc: 2 to 0000000000466693
  DW_CFA_restore: r14 (r14)
  DW_CFA_advance_loc: 2 to 0000000000466695
  DW_CFA_restore: r13 (r13)
  DW_CFA_advance_loc: 2 to 0000000000466697
  DW_CFA_restore: r12 (r12)
  DW_CFA_advance_loc: 3 to 000000000046669a
  DW_CFA_restore: r6 (rbp)
  DW_CFA_advance_loc: 1 to 000000000046669b
  DW_CFA_offset: r3 (rbx) at cfa-56
  DW_CFA_offset: r6 (rbp) at cfa-16
  DW_CFA_offset: r12 (r12) at cfa-24
  DW_CFA_offset: r13 (r13) at cfa-32
  DW_CFA_offset: r14 (r14) at cfa-40
  DW_CFA_offset: r15 (r15) at cfa-48
  DW_CFA_advance_loc: 51 to 00000000004666ce
  DW_CFA_restore: r3 (rbx)
  DW_CFA_advance_loc: 1 to 00000000004666cf
  DW_CFA_restore: r15 (r15)
  DW_CFA_advance_loc: 2 to 00000000004666d1
  DW_CFA_restore: r14 (r14)
  DW_CFA_advance_loc: 2 to 00000000004666d3
  DW_CFA_restore: r13 (r13)
  DW_CFA_advance_loc: 2 to 00000000004666d5
  DW_CFA_restore: r12 (r12)
  DW_CFA_advance_loc: 3 to 00000000004666d8
  DW_CFA_restore: r6 (rbp)
  DW_CFA_advance_loc: 1 to 00000000004666d9
  DW_CFA_offset: r3 (rbx) at cfa-56
  DW_CFA_offset: r6 (rbp) at cfa-16
  DW_CFA_offset: r12 (r12) at cfa-24
  DW_CFA_offset: r13 (r13) at cfa-32
  DW_CFA_offset: r14 (r14) at cfa-40
  DW_CFA_offset: r15 (r15) at cfa-48
  DW_CFA_advance_loc2: 696 to 0000000000466991
  DW_CFA_restore: r3 (rbx)
  DW_CFA_advance_loc: 1 to 0000000000466992
  DW_CFA_restore: r15 (r15)
  DW_CFA_advance_loc: 2 to 0000000000466994
  DW_CFA_restore: r14 (r14)
  DW_CFA_advance_loc: 2 to 0000000000466996
  DW_CFA_restore: r13 (r13)
  DW_CFA_advance_loc: 2 to 0000000000466998
  DW_CFA_restore: r12 (r12)
  DW_CFA_advance_loc: 3 to 000000000046699b
  DW_CFA_restore: r6 (rbp)
  DW_CFA_nop
  DW_CFA_nop
  DW_CFA_nop
  DW_CFA_nop
  DW_CFA_nop

00003310 0000000000000024 0000326c FDE cie=000000a8 pc=00000000004669a0..00000000004669f0
  DW_CFA_advance_loc: 1 to 00000000004669a1
  DW_CFA_def_cfa_offset: 16
  DW_CFA_advance_loc: 3 to 00000000004669a4
  DW_CFA_def_cfa: r6 (rbp) ofs 16
  DW_CFA_offset: r6 (rbp) at cfa-16
  DW_CFA_advance_loc: 62 to 00000000004669e2
  DW_CFA_restore: r6 (rbp)
  DW_CFA_nop
  DW_CFA_nop
  DW_CFA_nop
  DW_CFA_nop
  DW_CFA_nop

00003338 000000000000005c 00003294 FDE cie=000000a8 pc=00000000004669f0..0000000000466b70
  DW_CFA_advance_loc: 1 to 00000000004669f1
  DW_CFA_def_cfa_offset: 16
  DW_CFA_advance_loc: 3 to 00000000004669f4
  DW_CFA_def_cfa: r6 (rbp) ofs 16
  DW_CFA_offset: r6 (rbp) at cfa-16
  DW_CFA_advance_loc: 4 to 00000000004669f8
  DW_CFA_offset: r13 (r13) at cfa-24
  DW_CFA_offset: r14 (r14) at cfa-32
  DW_CFA_advance_loc1: 192 to 0000000000466ab8
  DW_CFA_restore: r14 (r14)
  DW_CFA_advance_loc: 2 to 0000000000466aba
  DW_CFA_restore: r13 (r13)
  DW_CFA_advance_loc: 3 to 0000000000466abd
  DW_CFA_restore: r6 (rbp)
  DW_CFA_advance_loc: 1 to 0000000000466abe
  DW_CFA_offset: r6 (rbp) at cfa-16
  DW_CFA_offset: r13 (r13) at cfa-24
  DW_CFA_offset: r14 (r14) at cfa-32
  DW_CFA_advance_loc: 50 to 0000000000466af0
  DW_CFA_restore: r14 (r14)
  DW_CFA_advance_loc: 2 to 0000000000466af2
  DW_CFA_restore: r13 (r13)
  DW_CFA_advance_loc: 3 to 0000000000466af5
  DW_CFA_restore: r6 (rbp)
  DW_CFA_advance_loc: 1 to 0000000000466af6
  DW_CFA_offset: r6 (rbp) at cfa-16
  DW_CFA_offset: r13 (r13) at cfa-24
  DW_CFA_offset: r14 (r14) at cfa-32
  DW_CFA_advance_loc: 28 to 0000000000466b12
  DW_CFA_restore: r14 (r14)
  DW_CFA_advance_loc: 2 to 0000000000466b14
  DW_CFA_restore: r13 (r13)
  DW_CFA_advance_loc: 3 to 0000000000466b17
  DW_CFA_restore: r6 (rbp)
  DW_CFA_advance_loc: 5 to 0000000000466b1c
  DW_CFA_offset: r6 (rbp) at cfa-16
  DW_CFA_offset: r13 (r13) at cfa-24
  DW_CFA_offset: r14 (r14) at cfa-32
  DW_CFA_advance_loc: 16 to 0000000000466b2c
  DW_CFA_restore: r14 (r14)
  DW_CFA_advance_loc: 2 to 0000000000466b2e
  DW_CFA_restore: r13 (r13)
  DW_CFA_advance_loc: 3 to 0000000000466b31
  DW_CFA_restore: r6 (rbp)
  DW_CFA_advance_loc: 5 to 0000000000466b36
  DW_CFA_offset: r6 (rbp) at cfa-16
  DW_CFA_offset: r13 (r13) at cfa-24
  DW_CFA_offset: r14 (r14) at cfa-32
  DW_CFA_nop
  DW_CFA_nop
  DW_CFA_nop
  DW_CFA_nop
  DW_CFA_nop

00003398 0000000000000074 000032f4 FDE cie=000000a8 pc=0000000000466b70..0000000000466ed0
  DW_CFA_advance_loc: 1 to 0000000000466b71
  DW_CFA_def_cfa_offset: 16
  DW_CFA_advance_loc: 3 to 0000000000466b74
  DW_CFA_def_cfa: r6 (rbp) ofs 16
  DW_CFA_offset: r6 (rbp) at cfa-16
  DW_CFA_advance_loc: 7 to 0000000000466b7b
  DW_CFA_offset: r3 (rbx) at cfa-32
  DW_CFA_offset: r15 (r15) at cfa-24
  DW_CFA_advance_loc1: 98 to 0000000000466bdd
  DW_CFA_offset: r12 (r12) at cfa-64
  DW_CFA_offset: r13 (r13) at cfa-56
  DW_CFA_offset: r14 (r14) at cfa-48
  DW_CFA_advance_loc2: 259 to 0000000000466ce0
  DW_CFA_restore: r12 (r12)
  DW_CFA_advance_loc: 4 to 0000000000466ce4
  DW_CFA_restore: r13 (r13)
  DW_CFA_advance_loc: 4 to 0000000000466ce8
  DW_CFA_restore: r14 (r14)
  DW_CFA_offset: r12 (r12) at cfa-64
  DW_CFA_offset: r13 (r13) at cfa-56
  DW_CFA_offset: r14 (r14) at cfa-48
  DW_CFA_advance_loc: 13 to 0000000000466cf5
  DW_CFA_restore: r12 (r12)
  DW_CFA_restore: r13 (r13)
  DW_CFA_restore: r14 (r14)
  DW_CFA_advance_loc: 7 to 0000000000466cfc
  DW_CFA_restore: r3 (rbx)
  DW_CFA_advance_loc: 1 to 0000000000466cfd
  DW_CFA_restore: r15 (r15)
  DW_CFA_advance_loc: 3 to 0000000000466d00
  DW_CFA_restore: r6 (rbp)
  DW_CFA_advance_loc: 1 to 0000000000466d01
  DW_CFA_offset: r3 (rbx) at cfa-32
  DW_CFA_offset: r6 (rbp) at cfa-16
  DW_CFA_offset: r12 (r12) at cfa-64
  DW_CFA_offset: r13 (r13) at cfa-56
  DW_CFA_offset: r14 (r14) at cfa-48
  DW_CFA_offset: r15 (r15) at cfa-24
  DW_CFA_advance_loc: 4 to 0000000000466d05
  DW_CFA_restore: r12 (r12)
  DW_CFA_advance_loc: 4 to 0000000000466d09
  DW_CFA_restore: r13 (r13)
  DW_CFA_advance_loc: 4 to 0000000000466d0d
  DW_CFA_restore: r14 (r14)
  DW_CFA_offset: r12 (r12) at cfa-64
  DW_CFA_offset: r13 (r13) at cfa-56
  DW_CFA_offset: r14 (r14) at cfa-48
  DW_CFA_advance_loc1: 191 to 0000000000466dcc
  DW_CFA_restore: r12 (r12)
  DW_CFA_restore: r13 (r13)
  DW_CFA_restore: r14 (r14)
  DW_CFA_advance_loc1: 223 to 0000000000466eab
  DW_CFA_restore: r3 (rbx)
  DW_CFA_advance_loc: 1 to 0000000000466eac
  DW_CFA_restore: r15 (r15)
  DW_CFA_advance_loc: 3 to 0000000000466eaf
  DW_CFA_restore: r6 (rbp)
  DW_CFA_advance_loc: 1 to 0000000000466eb0
  DW_CFA_offset: r3 (rbx) at cfa-32
  DW_CFA_offset: r6 (rbp) at cfa-16
  DW_CFA_offset: r15 (r15) at cfa-24
  DW_CFA_nop
  DW_CFA_nop
  DW_CFA_nop
  DW_CFA_nop
  DW_CFA_nop
  DW_CFA_nop

00003410 000000000000002c 0000336c FDE cie=000000a8 pc=0000000000466ed0..0000000000466f60
  DW_CFA_advance_loc: 1 to 0000000000466ed1
  DW_CFA_def_cfa_offset: 16
  DW_CFA_advance_loc: 3 to 0000000000466ed4
  DW_CFA_def_cfa: r6 (rbp) ofs 16
  DW_CFA_offset: r6 (rbp) at cfa-16
  DW_CFA_advance_loc: 3 to 0000000000466ed7
  DW_CFA_offset: r12 (r12) at cfa-24
  DW_CFA_advance_loc1: 123 to 0000000000466f52
  DW_CFA_restore: r12 (r12)
  DW_CFA_advance_loc: 3 to 0000000000466f55
  DW_CFA_restore: r6 (rbp)
  DW_CFA_nop
  DW_CFA_nop
  DW_CFA_nop
  DW_CFA_nop
  DW_CFA_nop
  DW_CFA_nop
  DW_CFA_nop

00003440 00000000000000c4 0000339c FDE cie=000000a8 pc=0000000000466f60..00000000004674d0
  DW_CFA_advance_loc: 1 to 0000000000466f61
  DW_CFA_def_cfa_offset: 16
  DW_CFA_advance_loc: 3 to 0000000000466f64
  DW_CFA_def_cfa: r6 (rbp) ofs 16
  DW_CFA_offset: r6 (rbp) at cfa-16
  DW_CFA_advance_loc: 42 to 0000000000466f8e
  DW_CFA_offset: r3 (rbx) at cfa-56
  DW_CFA_offset: r12 (r12) at cfa-24
  DW_CFA_offset: r13 (r13) at cfa-32
  DW_CFA_offset: r14 (r14) at cfa-40
  DW_CFA_offset: r15 (r15) at cfa-48
  DW_CFA_advance_loc2: 888 to 0000000000467306
  DW_CFA_restore: r3 (rbx)
  DW_CFA_advance_loc: 1 to 0000000000467307
  DW_CFA_restore: r15 (r15)
  DW_CFA_advance_loc: 2 to 0000000000467309
  DW_CFA_restore: r14 (r14)
  DW_CFA_advance_loc: 2 to 000000000046730b
  DW_CFA_restore: r13 (r13)
  DW_CFA_advance_loc: 2 to 000000000046730d
  DW_CFA_restore: r12 (r12)
  DW_CFA_advance_loc: 3 to 0000000000467310
  DW_CFA_restore: r6 (rbp)
  DW_CFA_advance_loc: 1 to 0000000000467311
  DW_CFA_offset: r3 (rbx) at cfa-56
  DW_CFA_offset: r6 (rbp) at cfa-16
  DW_CFA_offset: r12 (r12) at cfa-24
  DW_CFA_offset: r13 (r13) at cfa-32
  DW_CFA_offset: r14 (r14) at cfa-40
  DW_CFA_offset: r15 (r15) at cfa-48
  DW_CFA_advance_loc: 58 to 000000000046734b
  DW_CFA_restore: r3 (rbx)
  DW_CFA_advance_loc: 1 to 000000000046734c
  DW_CFA_restore: r15 (r15)
  DW_CFA_advance_loc: 2 to 000000000046734e
  DW_CFA_restore: r14 (r14)
  DW_CFA_advance_loc: 2 to 0000000000467350
  DW_CFA_restore: r13 (r13)
  DW_CFA_advance_loc: 2 to 0000000000467352
  DW_CFA_restore: r12 (r12)
  DW_CFA_advance_loc: 3 to 0000000000467355
  DW_CFA_restore: r6 (rbp)
  DW_CFA_advance_loc: 1 to 0000000000467356
  DW_CFA_offset: r3 (rbx) at cfa-56
  DW_CFA_offset: r6 (rbp) at cfa-16
  DW_CFA_offset: r12 (r12) at cfa-24
  DW_CFA_offset: r13 (r13) at cfa-32
  DW_CFA_offset: r14 (r14) at cfa-40
  DW_CFA_offset: r15 (r15) at cfa-48
  DW_CFA_advance_loc: 36 to 000000000046737a
  DW_CFA_restore: r3 (rbx)
  DW_CFA_advance_loc: 1 to 000000000046737b
  DW_CFA_restore: r15 (r15)
  DW_CFA_advance_loc: 2 to 000000000046737d
  DW_CFA_restore: r14 (r14)
  DW_CFA_advance_loc: 2 to 000000000046737f
  DW_CFA_restore: r13 (r13)
  DW_CFA_advance_loc: 2 to 0000000000467381
  DW_CFA_restore: r12 (r12)
  DW_CFA_advance_loc: 3 to 0000000000467384
  DW_CFA_restore: r6 (rbp)
  DW_CFA_advance_loc: 1 to 0000000000467385
  DW_CFA_offset: r3 (rbx) at cfa-56
  DW_CFA_offset: r6 (rbp) at cfa-16
  DW_CFA_offset: r12 (r12) at cfa-24
  DW_CFA_offset: r13 (r13) at cfa-32
  DW_CFA_offset: r14 (r14) at cfa-40
  DW_CFA_offset: r15 (r15) at cfa-48
  DW_CFA_advance_loc: 36 to 00000000004673a9
  DW_CFA_restore: r3 (rbx)
  DW_CFA_advance_loc: 1 to 00000000004673aa
  DW_CFA_restore: r15 (r15)
  DW_CFA_advance_loc: 2 to 00000000004673ac
  DW_CFA_restore: r14 (r14)
  DW_CFA_advance_loc: 2 to 00000000004673ae
  DW_CFA_restore: r13 (r13)
  DW_CFA_advance_loc: 2 to 00000000004673b0
  DW_CFA_restore: r12 (r12)
  DW_CFA_advance_loc: 3 to 00000000004673b3
  DW_CFA_restore: r6 (rbp)
  DW_CFA_advance_loc: 1 to 00000000004673b4
  DW_CFA_offset: r3 (rbx) at cfa-56
  DW_CFA_offset: r6 (rbp) at cfa-16
  DW_CFA_offset: r12 (r12) at cfa-24
  DW_CFA_offset: r13 (r13) at cfa-32
  DW_CFA_offset: r14 (r14) at cfa-40
  DW_CFA_offset: r15 (r15) at cfa-48
  DW_CFA_advance_loc: 26 to 00000000004673ce
  DW_CFA_restore: r3 (rbx)
  DW_CFA_advance_loc: 1 to 00000000004673cf
  DW_CFA_restore: r15 (r15)
  DW_CFA_advance_loc: 2 to 00000000004673d1
  DW_CFA_restore: r14 (r14)
  DW_CFA_advance_loc: 2 to 00000000004673d3
  DW_CFA_restore: r13 (r13)
  DW_CFA_advance_loc: 2 to 00000000004673d5
  DW_CFA_restore: r12 (r12)
  DW_CFA_advance_loc: 3 to 00000000004673d8
  DW_CFA_restore: r6 (rbp)
  DW_CFA_advance_loc: 1 to 00000000004673d9
  DW_CFA_offset: r3 (rbx) at cfa-56
  DW_CFA_offset: r6 (rbp) at cfa-16
  DW_CFA_offset: r12 (r12) at cfa-24
  DW_CFA_offset: r13 (r13) at cfa-32
  DW_CFA_offset: r14 (r14) at cfa-40
  DW_CFA_offset: r15 (r15) at cfa-48
  DW_CFA_advance_loc: 22 to 00000000004673ef
  DW_CFA_restore: r3 (rbx)
  DW_CFA_advance_loc: 1 to 00000000004673f0
  DW_CFA_restore: r15 (r15)
  DW_CFA_advance_loc: 2 to 00000000004673f2
  DW_CFA_restore: r14 (r14)
  DW_CFA_advance_loc: 2 to 00000000004673f4
  DW_CFA_restore: r13 (r13)
  DW_CFA_advance_loc: 2 to 00000000004673f6
  DW_CFA_restore: r12 (r12)
  DW_CFA_advance_loc: 3 to 00000000004673f9
  DW_CFA_restore: r6 (rbp)
  DW_CFA_advance_loc: 1 to 00000000004673fa
  DW_CFA_offset: r3 (rbx) at cfa-56
  DW_CFA_offset: r6 (rbp) at cfa-16
  DW_CFA_offset: r12 (r12) at cfa-24
  DW_CFA_offset: r13 (r13) at cfa-32
  DW_CFA_offset: r14 (r14) at cfa-40
  DW_CFA_offset: r15 (r15) at cfa-48
  DW_CFA_nop
  DW_CFA_nop
  DW_CFA_nop
  DW_CFA_nop

00003508 0000000000000064 00003464 FDE cie=000000a8 pc=00000000004674d0..0000000000467ad0
  DW_CFA_advance_loc: 1 to 00000000004674d1
  DW_CFA_def_cfa_offset: 16
  DW_CFA_advance_loc: 3 to 00000000004674d4
  DW_CFA_def_cfa: r6 (rbp) ofs 16
  DW_CFA_offset: r6 (rbp) at cfa-16
  DW_CFA_advance_loc: 16 to 00000000004674e4
  DW_CFA_offset: r3 (rbx) at cfa-56
  DW_CFA_offset: r12 (r12) at cfa-24
  DW_CFA_offset: r13 (r13) at cfa-32
  DW_CFA_offset: r14 (r14) at cfa-40
  DW_CFA_offset: r15 (r15) at cfa-48
  DW_CFA_advance_loc2: 1150 to 0000000000467962
  DW_CFA_restore: r3 (rbx)
  DW_CFA_advance_loc: 1 to 0000000000467963
  DW_CFA_restore: r15 (r15)
  DW_CFA_advance_loc: 2 to 0000000000467965
  DW_CFA_restore: r14 (r14)
  DW_CFA_advance_loc: 2 to 0000000000467967
  DW_CFA_restore: r13 (r13)
  DW_CFA_advance_loc: 2 to 0000000000467969
  DW_CFA_restore: r12 (r12)
  DW_CFA_advance_loc: 3 to 000000000046796c
  DW_CFA_restore: r6 (rbp)
  DW_CFA_advance_loc: 1 to 000000000046796d
  DW_CFA_offset: r3 (rbx) at cfa-56
  DW_CFA_offset: r6 (rbp) at cfa-16
  DW_CFA_offset: r12 (r12) at cfa-24
  DW_CFA_offset: r13 (r13) at cfa-32
  DW_CFA_offset: r14 (r14) at cfa-40
  DW_CFA_offset: r15 (r15) at cfa-48
  DW_CFA_advance_loc1: 90 to 00000000004679c7
  DW_CFA_restore: r3 (rbx)
  DW_CFA_advance_loc: 1 to 00000000004679c8
  DW_CFA_restore: r15 (r15)
  DW_CFA_advance_loc: 2 to 00000000004679ca
  DW_CFA_restore: r14 (r14)
  DW_CFA_advance_loc: 2 to 00000000004679cc
  DW_CFA_restore: r13 (r13)
  DW_CFA_advance_loc: 2 to 00000000004679ce
  DW_CFA_restore: r12 (r12)
  DW_CFA_advance_loc: 3 to 00000000004679d1
  DW_CFA_restore: r6 (rbp)
  DW_CFA_advance_loc: 1 to 00000000004679d2
  DW_CFA_offset: r3 (rbx) at cfa-56
  DW_CFA_offset: r6 (rbp) at cfa-16
  DW_CFA_offset: r12 (r12) at cfa-24
  DW_CFA_offset: r13 (r13) at cfa-32
  DW_CFA_offset: r14 (r14) at cfa-40
  DW_CFA_offset: r15 (r15) at cfa-48
  DW_CFA_nop
  DW_CFA_nop
  DW_CFA_nop
  DW_CFA_nop
  DW_CFA_nop
  DW_CFA_nop
  DW_CFA_nop

00003570 0000000000000064 000034cc FDE cie=000000a8 pc=0000000000467ad0..0000000000468040
  DW_CFA_advance_loc: 1 to 0000000000467ad1
  DW_CFA_def_cfa_offset: 16
  DW_CFA_advance_loc: 3 to 0000000000467ad4
  DW_CFA_def_cfa: r6 (rbp) ofs 16
  DW_CFA_offset: r6 (rbp) at cfa-16
  DW_CFA_advance_loc: 16 to 0000000000467ae4
  DW_CFA_offset: r3 (rbx) at cfa-56
  DW_CFA_offset: r12 (r12) at cfa-24
  DW_CFA_offset: r13 (r13) at cfa-32
  DW_CFA_offset: r14 (r14) at cfa-40
  DW_CFA_offset: r15 (r15) at cfa-48
  DW_CFA_advance_loc2: 1068 to 0000000000467f10
  DW_CFA_restore: r3 (rbx)
  DW_CFA_advance_loc: 1 to 0000000000467f11
  DW_CFA_restore: r15 (r15)
  DW_CFA_advance_loc: 2 to 0000000000467f13
  DW_CFA_restore: r14 (r14)
  DW_CFA_advance_loc: 2 to 0000000000467f15
  DW_CFA_restore: r13 (r13)
  DW_CFA_advance_loc: 2 to 0000000000467f17
  DW_CFA_restore: r12 (r12)
  DW_CFA_advance_loc: 3 to 0000000000467f1a
  DW_CFA_restore: r6 (rbp)
  DW_CFA_advance_loc: 1 to 0000000000467f1b
  DW_CFA_offset: r3 (rbx) at cfa-56
  DW_CFA_offset: r6 (rbp) at cfa-16
  DW_CFA_offset: r12 (r12) at cfa-24
  DW_CFA_offset: r13 (r13) at cfa-32
  DW_CFA_offset: r14 (r14) at cfa-40
  DW_CFA_offset: r15 (r15) at cfa-48
  DW_CFA_advance_loc1: 72 to 0000000000467f63
  DW_CFA_restore: r3 (rbx)
  DW_CFA_advance_loc: 1 to 0000000000467f64
  DW_CFA_restore: r15 (r15)
  DW_CFA_advance_loc: 2 to 0000000000467f66
  DW_CFA_restore: r14 (r14)
  DW_CFA_advance_loc: 2 to 0000000000467f68
  DW_CFA_restore: r13 (r13)
  DW_CFA_advance_loc: 2 to 0000000000467f6a
  DW_CFA_restore: r12 (r12)
  DW_CFA_advance_loc: 3 to 0000000000467f6d
  DW_CFA_restore: r6 (rbp)
  DW_CFA_advance_loc: 1 to 0000000000467f6e
  DW_CFA_offset: r3 (rbx) at cfa-56
  DW_CFA_offset: r6 (rbp) at cfa-16
  DW_CFA_offset: r12 (r12) at cfa-24
  DW_CFA_offset: r13 (r13) at cfa-32
  DW_CFA_offset: r14 (r14) at cfa-40
  DW_CFA_offset: r15 (r15) at cfa-48
  DW_CFA_nop
  DW_CFA_nop
  DW_CFA_nop
  DW_CFA_nop
  DW_CFA_nop
  DW_CFA_nop
  DW_CFA_nop

000035d8 00000000000001b4 00003534 FDE cie=000000a8 pc=0000000000468040..00000000004692b0
  DW_CFA_advance_loc: 1 to 0000000000468041
  DW_CFA_def_cfa_offset: 16
  DW_CFA_advance_loc: 3 to 0000000000468044
  DW_CFA_def_cfa: r6 (rbp) ofs 16
  DW_CFA_offset: r6 (rbp) at cfa-16
  DW_CFA_advance_loc: 12 to 0000000000468050
  DW_CFA_offset: r3 (rbx) at cfa-40
  DW_CFA_offset: r14 (r14) at cfa-24
  DW_CFA_offset: r15 (r15) at cfa-32
  DW_CFA_advance_loc1: 144 to 00000000004680e0
  DW_CFA_offset: r12 (r12) at cfa-96
  DW_CFA_offset: r13 (r13) at cfa-104
  DW_CFA_advance_loc2: 806 to 0000000000468406
  DW_CFA_restore: r12 (r12)
  DW_CFA_advance_loc: 4 to 000000000046840a
  DW_CFA_restore: r13 (r13)
  DW_CFA_offset: r12 (r12) at cfa-96
  DW_CFA_offset: r13 (r13) at cfa-104
  DW_CFA_advance_loc1: 95 to 0000000000468469
  DW_CFA_restore: r12 (r12)
  DW_CFA_advance_loc: 4 to 000000000046846d
  DW_CFA_restore: r13 (r13)
  DW_CFA_advance_loc2: 890 to 00000000004687e7
  DW_CFA_restore: r3 (rbx)
  DW_CFA_advance_loc: 1 to 00000000004687e8
  DW_CFA_restore: r15 (r15)
  DW_CFA_advance_loc: 2 to 00000000004687ea
  DW_CFA_restore: r14 (r14)
  DW_CFA_advance_loc: 3 to 00000000004687ed
  DW_CFA_restore: r6 (rbp)
  DW_CFA_advance_loc: 1 to 00000000004687ee
  DW_CFA_offset: r3 (rbx) at cfa-40
  DW_CFA_offset: r6 (rbp) at cfa-16
  DW_CFA_offset: r14 (r14) at cfa-24
  DW_CFA_offset: r15 (r15) at cfa-32
  DW_CFA_advance_loc1: 104 to 0000000000468856
  DW_CFA_restore: r3 (rbx)
  DW_CFA_advance_loc: 1 to 0000000000468857
  DW_CFA_restore: r15 (r15)
  DW_CFA_advance_loc: 2 to 0000000000468859
  DW_CFA_restore: r14 (r14)
  DW_CFA_advance_loc: 3 to 000000000046885c
  DW_CFA_restore: r6 (rbp)
  DW_CFA_advance_loc: 1 to 000000000046885d
  DW_CFA_offset: r3 (rbx) at cfa-40
  DW_CFA_offset: r6 (rbp) at cfa-16
  DW_CFA_offset: r14 (r14) at cfa-24
  DW_CFA_offset: r15 (r15) at cfa-32
  DW_CFA_advance_loc: 15 to 000000000046886c
  DW_CFA_restore: r3 (rbx)
  DW_CFA_advance_loc: 1 to 000000000046886d
  DW_CFA_restore: r15 (r15)
  DW_CFA_advance_loc: 2 to 000000000046886f
  DW_CFA_restore: r14 (r14)
  DW_CFA_advance_loc: 3 to 0000000000468872
  DW_CFA_restore: r6 (rbp)
  DW_CFA_advance_loc: 1 to 0000000000468873
  DW_CFA_offset: r3 (rbx) at cfa-40
  DW_CFA_offset: r6 (rbp) at cfa-16
  DW_CFA_offset: r14 (r14) at cfa-24
  DW_CFA_offset: r15 (r15) at cfa-32
  DW_CFA_advance_loc1: 81 to 00000000004688c4
  DW_CFA_restore: r3 (rbx)
  DW_CFA_advance_loc: 1 to 00000000004688c5
  DW_CFA_restore: r15 (r15)
  DW_CFA_advance_loc: 2 to 00000000004688c7
  DW_CFA_restore: r14 (r14)
  DW_CFA_advance_loc: 3 to 00000000004688ca
  DW_CFA_restore: r6 (rbp)
  DW_CFA_advance_loc: 1 to 00000000004688cb
  DW_CFA_offset: r3 (rbx) at cfa-40
  DW_CFA_offset: r6 (rbp) at cfa-16
  DW_CFA_offset: r14 (r14) at cfa-24
  DW_CFA_offset: r15 (r15) at cfa-32
  DW_CFA_advance_loc1: 115 to 000000000046893e
  DW_CFA_restore: r3 (rbx)
  DW_CFA_advance_loc: 1 to 000000000046893f
  DW_CFA_restore: r15 (r15)
  DW_CFA_advance_loc: 2 to 0000000000468941
  DW_CFA_restore: r14 (r14)
  DW_CFA_advance_loc: 3 to 0000000000468944
  DW_CFA_restore: r6 (rbp)
  DW_CFA_advance_loc: 1 to 0000000000468945
  DW_CFA_offset: r3 (rbx) at cfa-40
  DW_CFA_offset: r6 (rbp) at cfa-16
  DW_CFA_offset: r14 (r14) at cfa-24
  DW_CFA_offset: r15 (r15) at cfa-32
  DW_CFA_advance_loc1: 100 to 00000000004689a9
  DW_CFA_restore: r3 (rbx)
  DW_CFA_advance_loc: 1 to 00000000004689aa
  DW_CFA_restore: r15 (r15)
  DW_CFA_advance_loc: 2 to 00000000004689ac
  DW_CFA_restore: r14 (r14)
  DW_CFA_advance_loc: 3 to 00000000004689af
  DW_CFA_restore: r6 (rbp)
  DW_CFA_advance_loc: 1 to 00000000004689b0
  DW_CFA_offset: r3 (rbx) at cfa-40
  DW_CFA_offset: r6 (rbp) at cfa-16
  DW_CFA_offset: r14 (r14) at cfa-24
  DW_CFA_offset: r15 (r15) at cfa-32
  DW_CFA_advance_loc: 18 to 00000000004689c2
  DW_CFA_restore: r3 (rbx)
  DW_CFA_advance_loc: 1 to 00000000004689c3
  DW_CFA_restore: r15 (r15)
  DW_CFA_advance_loc: 2 to 00000000004689c5
  DW_CFA_restore: r14 (r14)
  DW_CFA_advance_loc: 3 to 00000000004689c8
  DW_CFA_restore: r6 (rbp)
  DW_CFA_advance_loc: 1 to 00000000004689c9
  DW_CFA_offset: r3 (rbx) at cfa-40
  DW_CFA_offset: r6 (rbp) at cfa-16
  DW_CFA_offset: r14 (r14) at cfa-24
  DW_CFA_offset: r15 (r15) at cfa-32
  DW_CFA_advance_loc1: 101 to 0000000000468a2e
  DW_CFA_restore: r3 (rbx)
  DW_CFA_advance_loc: 1 to 0000000000468a2f
  DW_CFA_restore: r15 (r15)
  DW_CFA_advance_loc: 2 to 0000000000468a31
  DW_CFA_restore: r14 (r14)
  DW_CFA_advance_loc: 3 to 0000000000468a34
  DW_CFA_restore: r6 (rbp)
  DW_CFA_advance_loc: 1 to 0000000000468a35
  DW_CFA_offset: r3 (rbx) at cfa-40
  DW_CFA_offset: r6 (rbp) at cfa-16
  DW_CFA_offset: r14 (r14) at cfa-24
  DW_CFA_offset: r15 (r15) at cfa-32
  DW_CFA_advance_loc1: 86 to 0000000000468a8b
  DW_CFA_restore: r3 (rbx)
  DW_CFA_advance_loc: 1 to 0000000000468a8c
  DW_CFA_restore: r15 (r15)
  DW_CFA_advance_loc: 2 to 0000000000468a8e
  DW_CFA_restore: r14 (r14)
  DW_CFA_advance_loc: 3 to 0000000000468a91
  DW_CFA_restore: r6 (rbp)
  DW_CFA_advance_loc: 1 to 0000000000468a92
  DW_CFA_offset: r3 (rbx) at cfa-40
  DW_CFA_offset: r6 (rbp) at cfa-16
  DW_CFA_offset: r14 (r14) at cfa-24
  DW_CFA_offset: r15 (r15) at cfa-32
  DW_CFA_advance_loc1: 103 to 0000000000468af9
  DW_CFA_restore: r3 (rbx)
  DW_CFA_advance_loc: 1 to 0000000000468afa
  DW_CFA_restore: r15 (r15)
  DW_CFA_advance_loc: 2 to 0000000000468afc
  DW_CFA_restore: r14 (r14)
  DW_CFA_advance_loc: 3 to 0000000000468aff
  DW_CFA_restore: r6 (rbp)
  DW_CFA_advance_loc: 1 to 0000000000468b00
  DW_CFA_offset: r3 (rbx) at cfa-40
  DW_CFA_offset: r6 (rbp) at cfa-16
  DW_CFA_offset: r14 (r14) at cfa-24
  DW_CFA_offset: r15 (r15) at cfa-32
  DW_CFA_advance_loc: 18 to 0000000000468b12
  DW_CFA_restore: r3 (rbx)
  DW_CFA_advance_loc: 1 to 0000000000468b13
  DW_CFA_restore: r15 (r15)
  DW_CFA_advance_loc: 2 to 0000000000468b15
  DW_CFA_restore: r14 (r14)
  DW_CFA_advance_loc: 3 to 0000000000468b18
  DW_CFA_restore: r6 (rbp)
  DW_CFA_advance_loc: 1 to 0000000000468b19
  DW_CFA_offset: r3 (rbx) at cfa-40
  DW_CFA_offset: r6 (rbp) at cfa-16
  DW_CFA_offset: r14 (r14) at cfa-24
  DW_CFA_offset: r15 (r15) at cfa-32
  DW_CFA_advance_loc2: 511 to 0000000000468d18
  DW_CFA_restore: r3 (rbx)
  DW_CFA_advance_loc: 1 to 0000000000468d19
  DW_CFA_restore: r15 (r15)
  DW_CFA_advance_loc: 2 to 0000000000468d1b
  DW_CFA_restore: r14 (r14)
  DW_CFA_advance_loc: 3 to 0000000000468d1e
  DW_CFA_restore: r6 (rbp)
  DW_CFA_advance_loc: 1 to 0000000000468d1f
  DW_CFA_offset: r3 (rbx) at cfa-40
  DW_CFA_offset: r6 (rbp) at cfa-16
  DW_CFA_offset: r14 (r14) at cfa-24
  DW_CFA_offset: r15 (r15) at cfa-32
  DW_CFA_advance_loc: 26 to 0000000000468d39
  DW_CFA_restore: r3 (rbx)
  DW_CFA_advance_loc: 1 to 0000000000468d3a
  DW_CFA_restore: r15 (r15)
  DW_CFA_advance_loc: 2 to 0000000000468d3c
  DW_CFA_restore: r14 (r14)
  DW_CFA_advance_loc: 3 to 0000000000468d3f
  DW_CFA_restore: r6 (rbp)
  DW_CFA_advance_loc: 1 to 0000000000468d40
  DW_CFA_offset: r3 (rbx) at cfa-40
  DW_CFA_offset: r6 (rbp) at cfa-16
  DW_CFA_offset: r14 (r14) at cfa-24
  DW_CFA_offset: r15 (r15) at cfa-32
  DW_CFA_advance_loc: 20 to 0000000000468d54
  DW_CFA_restore: r3 (rbx)
  DW_CFA_advance_loc: 1 to 0000000000468d55
  DW_CFA_restore: r15 (r15)
  DW_CFA_advance_loc: 2 to 0000000000468d57
  DW_CFA_restore: r14 (r14)
  DW_CFA_advance_loc: 3 to 0000000000468d5a
  DW_CFA_restore: r6 (rbp)
  DW_CFA_advance_loc: 1 to 0000000000468d5b
  DW_CFA_offset: r3 (rbx) at cfa-40
  DW_CFA_offset: r6 (rbp) at cfa-16
  DW_CFA_offset: r14 (r14) at cfa-24
  DW_CFA_offset: r15 (r15) at cfa-32
  DW_CFA_advance_loc1: 70 to 0000000000468da1
  DW_CFA_restore: r3 (rbx)
  DW_CFA_advance_loc: 1 to 0000000000468da2
  DW_CFA_restore: r15 (r15)
  DW_CFA_advance_loc: 2 to 0000000000468da4
  DW_CFA_restore: r14 (r14)
  DW_CFA_advance_loc: 3 to 0000000000468da7
  DW_CFA_restore: r6 (rbp)
  DW_CFA_advance_loc: 1 to 0000000000468da8
  DW_CFA_offset: r3 (rbx) at cfa-40
  DW_CFA_offset: r6 (rbp) at cfa-16
  DW_CFA_offset: r14 (r14) at cfa-24
  DW_CFA_offset: r15 (r15) at cfa-32
  DW_CFA_advance_loc: 28 to 0000000000468dc4
  DW_CFA_restore: r3 (rbx)
  DW_CFA_advance_loc: 1 to 0000000000468dc5
  DW_CFA_restore: r15 (r15)
  DW_CFA_advance_loc: 2 to 0000000000468dc7
  DW_CFA_restore: r14 (r14)
  DW_CFA_advance_loc: 3 to 0000000000468dca
  DW_CFA_restore: r6 (rbp)
  DW_CFA_advance_loc: 1 to 0000000000468dcb
  DW_CFA_offset: r3 (rbx) at cfa-40
  DW_CFA_offset: r6 (rbp) at cfa-16
  DW_CFA_offset: r14 (r14) at cfa-24
  DW_CFA_offset: r15 (r15) at cfa-32
  DW_CFA_advance_loc: 21 to 0000000000468de0
  DW_CFA_restore: r3 (rbx)
  DW_CFA_advance_loc: 1 to 0000000000468de1
  DW_CFA_restore: r15 (r15)
  DW_CFA_advance_loc: 2 to 0000000000468de3
  DW_CFA_restore: r14 (r14)
  DW_CFA_advance_loc: 3 to 0000000000468de6
  DW_CFA_restore: r6 (rbp)
  DW_CFA_advance_loc: 1 to 0000000000468de7
  DW_CFA_offset: r3 (rbx) at cfa-40
  DW_CFA_offset: r6 (rbp) at cfa-16
  DW_CFA_offset: r14 (r14) at cfa-24
  DW_CFA_offset: r15 (r15) at cfa-32
  DW_CFA_advance_loc1: 155 to 0000000000468e82
  DW_CFA_restore: r3 (rbx)
  DW_CFA_advance_loc: 1 to 0000000000468e83
  DW_CFA_restore: r15 (r15)
  DW_CFA_advance_loc: 2 to 0000000000468e85
  DW_CFA_restore: r14 (r14)
  DW_CFA_advance_loc: 3 to 0000000000468e88
  DW_CFA_restore: r6 (rbp)
  DW_CFA_advance_loc: 1 to 0000000000468e89
  DW_CFA_offset: r3 (rbx) at cfa-40
  DW_CFA_offset: r6 (rbp) at cfa-16
  DW_CFA_offset: r14 (r14) at cfa-24
  DW_CFA_offset: r15 (r15) at cfa-32
  DW_CFA_advance_loc: 26 to 0000000000468ea3
  DW_CFA_restore: r3 (rbx)
  DW_CFA_advance_loc: 1 to 0000000000468ea4
  DW_CFA_restore: r15 (r15)
  DW_CFA_advance_loc: 2 to 0000000000468ea6
  DW_CFA_restore: r14 (r14)
  DW_CFA_advance_loc: 3 to 0000000000468ea9
  DW_CFA_restore: r6 (rbp)
  DW_CFA_advance_loc: 1 to 0000000000468eaa
  DW_CFA_offset: r3 (rbx) at cfa-40
  DW_CFA_offset: r6 (rbp) at cfa-16
  DW_CFA_offset: r14 (r14) at cfa-24
  DW_CFA_offset: r15 (r15) at cfa-32
  DW_CFA_advance_loc: 17 to 0000000000468ebb
  DW_CFA_restore: r3 (rbx)
  DW_CFA_advance_loc: 1 to 0000000000468ebc
  DW_CFA_restore: r15 (r15)
  DW_CFA_advance_loc: 2 to 0000000000468ebe
  DW_CFA_restore: r14 (r14)
  DW_CFA_advance_loc: 3 to 0000000000468ec1
  DW_CFA_restore: r6 (rbp)
  DW_CFA_advance_loc: 1 to 0000000000468ec2
  DW_CFA_offset: r3 (rbx) at cfa-40
  DW_CFA_offset: r6 (rbp) at cfa-16
  DW_CFA_offset: r12 (r12) at cfa-96
  DW_CFA_offset: r13 (r13) at cfa-104
  DW_CFA_offset: r14 (r14) at cfa-24
  DW_CFA_offset: r15 (r15) at cfa-32
  DW_CFA_advance_loc2: 688 to 0000000000469172
  DW_CFA_restore: r12 (r12)
  DW_CFA_advance_loc: 4 to 0000000000469176
  DW_CFA_restore: r13 (r13)
  DW_CFA_offset: r12 (r12) at cfa-96
  DW_CFA_offset: r13 (r13) at cfa-104
  DW_CFA_advance_loc2: 275 to 0000000000469289
  DW_CFA_restore: r12 (r12)
  DW_CFA_advance_loc: 4 to 000000000046928d
  DW_CFA_restore: r13 (r13)
  DW_CFA_advance_loc: 5 to 0000000000469292
  DW_CFA_offset: r12 (r12) at cfa-96
  DW_CFA_offset: r13 (r13) at cfa-104
  DW_CFA_nop

00003790 0000000000000474 000036ec FDE cie=000000a8 pc=00000000004692b0..000000000046a950
  DW_CFA_advance_loc: 1 to 00000000004692b1
  DW_CFA_def_cfa_offset: 16
  DW_CFA_advance_loc: 3 to 00000000004692b4
  DW_CFA_def_cfa: r6 (rbp) ofs 16
  DW_CFA_offset: r6 (rbp) at cfa-16
  DW_CFA_advance_loc: 16 to 00000000004692c4
  DW_CFA_offset: r3 (rbx) at cfa-56
  DW_CFA_offset: r12 (r12) at cfa-24
  DW_CFA_offset: r13 (r13) at cfa-32
  DW_CFA_offset: r14 (r14) at cfa-40
  DW_CFA_offset: r15 (r15) at cfa-48
  DW_CFA_advance_loc1: 110 to 0000000000469332
  DW_CFA_restore: r3 (rbx)
  DW_CFA_advance_loc: 1 to 0000000000469333
  DW_CFA_restore: r15 (r15)
  DW_CFA_advance_loc: 2 to 0000000000469335
  DW_CFA_restore: r14 (r14)
  DW_CFA_advance_loc: 2 to 0000000000469337
  DW_CFA_restore: r13 (r13)
  DW_CFA_advance_loc: 2 to 0000000000469339
  DW_CFA_restore: r12 (r12)
  DW_CFA_advance_loc: 3 to 000000000046933c
  DW_CFA_restore: r6 (rbp)
  DW_CFA_advance_loc: 1 to 000000000046933d
  DW_CFA_offset: r3 (rbx) at cfa-56
  DW_CFA_offset: r6 (rbp) at cfa-16
  DW_CFA_offset: r12 (r12) at cfa-24
  DW_CFA_offset: r13 (r13) at cfa-32
  DW_CFA_offset: r14 (r14) at cfa-40
  DW_CFA_offset: r15 (r15) at cfa-48
  DW_CFA_advance_loc1: 216 to 0000000000469415
  DW_CFA_restore: r3 (rbx)
  DW_CFA_advance_loc: 1 to 0000000000469416
  DW_CFA_restore: r15 (r15)
  DW_CFA_advance_loc: 2 to 0000000000469418
  DW_CFA_restore: r14 (r14)
  DW_CFA_advance_loc: 2 to 000000000046941a
  DW_CFA_restore: r13 (r13)
  DW_CFA_advance_loc: 2 to 000000000046941c
  DW_CFA_restore: r12 (r12)
  DW_CFA_advance_loc: 3 to 000000000046941f
  DW_CFA_restore: r6 (rbp)
  DW_CFA_advance_loc: 1 to 0000000000469420
  DW_CFA_offset: r3 (rbx) at cfa-56
  DW_CFA_offset: r6 (rbp) at cfa-16
  DW_CFA_offset: r12 (r12) at cfa-24
  DW_CFA_offset: r13 (r13) at cfa-32
  DW_CFA_offset: r14 (r14) at cfa-40
  DW_CFA_offset: r15 (r15) at cfa-48
  DW_CFA_advance_loc1: 119 to 0000000000469497
  DW_CFA_restore: r3 (rbx)
  DW_CFA_advance_loc: 1 to 0000000000469498
  DW_CFA_restore: r15 (r15)
  DW_CFA_advance_loc: 2 to 000000000046949a
  DW_CFA_restore: r14 (r14)
  DW_CFA_advance_loc: 2 to 000000000046949c
  DW_CFA_restore: r13 (r13)
  DW_CFA_advance_loc: 2 to 000000000046949e
  DW_CFA_restore: r12 (r12)
  DW_CFA_advance_loc: 3 to 00000000004694a1
  DW_CFA_restore: r6 (rbp)
  DW_CFA_advance_loc: 1 to 00000000004694a2
  DW_CFA_offset: r3 (rbx) at cfa-56
  DW_CFA_offset: r6 (rbp) at cfa-16
  DW_CFA_offset: r12 (r12) at cfa-24
  DW_CFA_offset: r13 (r13) at cfa-32
  DW_CFA_offset: r14 (r14) at cfa-40
  DW_CFA_offset: r15 (r15) at cfa-48
  DW_CFA_advance_loc2: 1519 to 0000000000469a91
  DW_CFA_restore: r3 (rbx)
  DW_CFA_advance_loc: 1 to 0000000000469a92
  DW_CFA_restore: r15 (r15)
  DW_CFA_advance_loc: 2 to 0000000000469a94
  DW_CFA_restore: r14 (r14)
  DW_CFA_advance_loc: 2 to 0000000000469a96
  DW_CFA_restore: r13 (r13)
  DW_CFA_advance_loc: 2 to 0000000000469a98
  DW_CFA_restore: r12 (r12)
  DW_CFA_advance_loc: 3 to 0000000000469a9b
  DW_CFA_restore: r6 (rbp)
  DW_CFA_advance_loc: 1 to 0000000000469a9c
  DW_CFA_offset: r3 (rbx) at cfa-56
  DW_CFA_offset: r6 (rbp) at cfa-16
  DW_CFA_offset: r12 (r12) at cfa-24
  DW_CFA_offset: r13 (r13) at cfa-32
  DW_CFA_offset: r14 (r14) at cfa-40
  DW_CFA_offset: r15 (r15) at cfa-48
  DW_CFA_advance_loc: 56 to 0000000000469ad4
  DW_CFA_restore: r3 (rbx)
  DW_CFA_advance_loc: 1 to 0000000000469ad5
  DW_CFA_restore: r15 (r15)
  DW_CFA_advance_loc: 2 to 0000000000469ad7
  DW_CFA_restore: r14 (r14)
  DW_CFA_advance_loc: 2 to 0000000000469ad9
  DW_CFA_restore: r13 (r13)
  DW_CFA_advance_loc: 2 to 0000000000469adb
  DW_CFA_restore: r12 (r12)
  DW_CFA_advance_loc: 3 to 0000000000469ade
  DW_CFA_restore: r6 (rbp)
  DW_CFA_advance_loc: 1 to 0000000000469adf
  DW_CFA_offset: r3 (rbx) at cfa-56
  DW_CFA_offset: r6 (rbp) at cfa-16
  DW_CFA_offset: r12 (r12) at cfa-24
  DW_CFA_offset: r13 (r13) at cfa-32
  DW_CFA_offset: r14 (r14) at cfa-40
  DW_CFA_offset: r15 (r15) at cfa-48
  DW_CFA_advance_loc1: 86 to 0000000000469b35
  DW_CFA_restore: r3 (rbx)
  DW_CFA_advance_loc: 1 to 0000000000469b36
  DW_CFA_restore: r15 (r15)
  DW_CFA_advance_loc: 2 to 0000000000469b38
  DW_CFA_restore: r14 (r14)
  DW_CFA_advance_loc: 2 to 0000000000469b3a
  DW_CFA_restore: r13 (r13)
  DW_CFA_advance_loc: 2 to 0000000000469b3c
  DW_CFA_restore: r12 (r12)
  DW_CFA_advance_loc: 3 to 0000000000469b3f
  DW_CFA_restore: r6 (rbp)
  DW_CFA_advance_loc: 1 to 0000000000469b40
  DW_CFA_offset: r3 (rbx) at cfa-56
  DW_CFA_offset: r6 (rbp) at cfa-16
  DW_CFA_offset: r12 (r12) at cfa-24
  DW_CFA_offset: r13 (r13) at cfa-32
  DW_CFA_offset: r14 (r14) at cfa-40
  DW_CFA_offset: r15 (r15) at cfa-48
  DW_CFA_advance_loc: 57 to 0000000000469b79
  DW_CFA_restore: r3 (rbx)
  DW_CFA_advance_loc: 1 to 0000000000469b7a
  DW_CFA_restore: r15 (r15)
  DW_CFA_advance_loc: 2 to 0000000000469b7c
  DW_CFA_restore: r14 (r14)
  DW_CFA_advance_loc: 2 to 0000000000469b7e
  DW_CFA_restore: r13 (r13)
  DW_CFA_advance_loc: 2 to 0000000000469b80
  DW_CFA_restore: r12 (r12)
  DW_CFA_advance_loc: 3 to 0000000000469b83
  DW_CFA_restore: r6 (rbp)
  DW_CFA_advance_loc: 1 to 0000000000469b84
  DW_CFA_offset: r3 (rbx) at cfa-56
  DW_CFA_offset: r6 (rbp) at cfa-16
  DW_CFA_offset: r12 (r12) at cfa-24
  DW_CFA_offset: r13 (r13) at cfa-32
  DW_CFA_offset: r14 (r14) at cfa-40
  DW_CFA_offset: r15 (r15) at cfa-48
  DW_CFA_advance_loc: 52 to 0000000000469bb8
  DW_CFA_restore: r3 (rbx)
  DW_CFA_advance_loc: 1 to 0000000000469bb9
  DW_CFA_restore: r15 (r15)
  DW_CFA_advance_loc: 2 to 0000000000469bbb
  DW_CFA_restore: r14 (r14)
  DW_CFA_advance_loc: 2 to 0000000000469bbd
  DW_CFA_restore: r13 (r13)
  DW_CFA_advance_loc: 2 to 0000000000469bbf
  DW_CFA_restore: r12 (r12)
  DW_CFA_advance_loc: 3 to 0000000000469bc2
  DW_CFA_restore: r6 (rbp)
  DW_CFA_advance_loc: 1 to 0000000000469bc3
  DW_CFA_offset: r3 (rbx) at cfa-56
  DW_CFA_offset: r6 (rbp) at cfa-16
  DW_CFA_offset: r12 (r12) at cfa-24
  DW_CFA_offset: r13 (r13) at cfa-32
  DW_CFA_offset: r14 (r14) at cfa-40
  DW_CFA_offset: r15 (r15) at cfa-48
  DW_CFA_advance_loc: 57 to 0000000000469bfc
  DW_CFA_restore: r3 (rbx)
  DW_CFA_advance_loc: 1 to 0000000000469bfd
  DW_CFA_restore: r15 (r15)
  DW_CFA_advance_loc: 2 to 0000000000469bff
  DW_CFA_restore: r14 (r14)
  DW_CFA_advance_loc: 2 to 0000000000469c01
  DW_CFA_restore: r13 (r13)
  DW_CFA_advance_loc: 2 to 0000000000469c03
  DW_CFA_restore: r12 (r12)
  DW_CFA_advance_loc: 3 to 0000000000469c06
  DW_CFA_restore: r6 (rbp)
  DW_CFA_advance_loc: 1 to 0000000000469c07
  DW_CFA_offset: r3 (rbx) at cfa-56
  DW_CFA_offset: r6 (rbp) at cfa-16
  DW_CFA_offset: r12 (r12) at cfa-24
  DW_CFA_offset: r13 (r13) at cfa-32
  DW_CFA_offset: r14 (r14) at cfa-40
  DW_CFA_offset: r15 (r15) at cfa-48
  DW_CFA_advance_loc1: 79 to 0000000000469c56
  DW_CFA_restore: r3 (rbx)
  DW_CFA_advance_loc: 1 to 0000000000469c57
  DW_CFA_restore: r15 (r15)
  DW_CFA_advance_loc: 2 to 0000000000469c59
  DW_CFA_restore: r14 (r14)
  DW_CFA_advance_loc: 2 to 0000000000469c5b
  DW_CFA_restore: r13 (r13)
  DW_CFA_advance_loc: 2 to 0000000000469c5d
  DW_CFA_restore: r12 (r12)
  DW_CFA_advance_loc: 3 to 0000000000469c60
  DW_CFA_restore: r6 (rbp)
  DW_CFA_advance_loc: 1 to 0000000000469c61
  DW_CFA_offset: r3 (rbx) at cfa-56
  DW_CFA_offset: r6 (rbp) at cfa-16
  DW_CFA_offset: r12 (r12) at cfa-24
  DW_CFA_offset: r13 (r13) at cfa-32
  DW_CFA_offset: r14 (r14) at cfa-40
  DW_CFA_offset: r15 (r15) at cfa-48
  DW_CFA_advance_loc1: 68 to 0000000000469ca5
  DW_CFA_restore: r3 (rbx)
  DW_CFA_advance_loc: 1 to 0000000000469ca6
  DW_CFA_restore: r15 (r15)
  DW_CFA_advance_loc: 2 to 0000000000469ca8
  DW_CFA_restore: r14 (r14)
  DW_CFA_advance_loc: 2 to 0000000000469caa
  DW_CFA_restore: r13 (r13)
  DW_CFA_advance_loc: 2 to 0000000000469cac
  DW_CFA_restore: r12 (r12)
  DW_CFA_advance_loc: 3 to 0000000000469caf
  DW_CFA_restore: r6 (rbp)
  DW_CFA_advance_loc: 1 to 0000000000469cb0
  DW_CFA_offset: r3 (rbx) at cfa-56
  DW_CFA_offset: r6 (rbp) at cfa-16
  DW_CFA_offset: r12 (r12) at cfa-24
  DW_CFA_offset: r13 (r13) at cfa-32
  DW_CFA_offset: r14 (r14) at cfa-40
  DW_CFA_offset: r15 (r15) at cfa-48
  DW_CFA_advance_loc1: 189 to 0000000000469d6d
  DW_CFA_restore: r3 (rbx)
  DW_CFA_advance_loc: 1 to 0000000000469d6e
  DW_CFA_restore: r15 (r15)
  DW_CFA_advance_loc: 2 to 0000000000469d70
  DW_CFA_restore: r14 (r14)
  DW_CFA_advance_loc: 2 to 0000000000469d72
  DW_CFA_restore: r13 (r13)
  DW_CFA_advance_loc: 2 to 0000000000469d74
  DW_CFA_restore: r12 (r12)
  DW_CFA_advance_loc: 3 to 0000000000469d77
  DW_CFA_restore: r6 (rbp)
  DW_CFA_advance_loc: 1 to 0000000000469d78
  DW_CFA_offset: r3 (rbx) at cfa-56
  DW_CFA_offset: r6 (rbp) at cfa-16
  DW_CFA_offset: r12 (r12) at cfa-24
  DW_CFA_offset: r13 (r13) at cfa-32
  DW_CFA_offset: r14 (r14) at cfa-40
  DW_CFA_offset: r15 (r15) at cfa-48
  DW_CFA_advance_loc: 56 to 0000000000469db0
  DW_CFA_restore: r3 (rbx)
  DW_CFA_advance_loc: 1 to 0000000000469db1
  DW_CFA_restore: r15 (r15)
  DW_CFA_advance_loc: 2 to 0000000000469db3
  DW_CFA_restore: r14 (r14)
  DW_CFA_advance_loc: 2 to 0000000000469db5
  DW_CFA_restore: r13 (r13)
  DW_CFA_advance_loc: 2 to 0000000000469db7
  DW_CFA_restore: r12 (r12)
  DW_CFA_advance_loc: 3 to 0000000000469dba
  DW_CFA_restore: r6 (rbp)
  DW_CFA_advance_loc: 1 to 0000000000469dbb
  DW_CFA_offset: r3 (rbx) at cfa-56
  DW_CFA_offset: r6 (rbp) at cfa-16
  DW_CFA_offset: r12 (r12) at cfa-24
  DW_CFA_offset: r13 (r13) at cfa-32
  DW_CFA_offset: r14 (r14) at cfa-40
  DW_CFA_offset: r15 (r15) at cfa-48
  DW_CFA_advance_loc: 52 to 0000000000469def
  DW_CFA_restore: r3 (rbx)
  DW_CFA_advance_loc: 1 to 0000000000469df0
  DW_CFA_restore: r15 (r15)
  DW_CFA_advance_loc: 2 to 0000000000469df2
  DW_CFA_restore: r14 (r14)
  DW_CFA_advance_loc: 2 to 0000000000469df4
  DW_CFA_restore: r13 (r13)
  DW_CFA_advance_loc: 2 to 0000000000469df6
  DW_CFA_restore: r12 (r12)
  DW_CFA_advance_loc: 3 to 0000000000469df9
  DW_CFA_restore: r6 (rbp)
  DW_CFA_advance_loc: 1 to 0000000000469dfa
  DW_CFA_offset: r3 (rbx) at cfa-56
  DW_CFA_offset: r6 (rbp) at cfa-16
  DW_CFA_offset: r12 (r12) at cfa-24
  DW_CFA_offset: r13 (r13) at cfa-32
  DW_CFA_offset: r14 (r14) at cfa-40
  DW_CFA_offset: r15 (r15) at cfa-48
  DW_CFA_advance_loc: 52 to 0000000000469e2e
  DW_CFA_restore: r3 (rbx)
  DW_CFA_advance_loc: 1 to 0000000000469e2f
  DW_CFA_restore: r15 (r15)
  DW_CFA_advance_loc: 2 to 0000000000469e31
  DW_CFA_restore: r14 (r14)
  DW_CFA_advance_loc: 2 to 0000000000469e33
  DW_CFA_restore: r13 (r13)
  DW_CFA_advance_loc: 2 to 0000000000469e35
  DW_CFA_restore: r12 (r12)
  DW_CFA_advance_loc: 3 to 0000000000469e38
  DW_CFA_restore: r6 (rbp)
  DW_CFA_advance_loc: 1 to 0000000000469e39
  DW_CFA_offset: r3 (rbx) at cfa-56
  DW_CFA_offset: r6 (rbp) at cfa-16
  DW_CFA_offset: r12 (r12) at cfa-24
  DW_CFA_offset: r13 (r13) at cfa-32
  DW_CFA_offset: r14 (r14) at cfa-40
  DW_CFA_offset: r15 (r15) at cfa-48
  DW_CFA_advance_loc1: 90 to 0000000000469e93
  DW_CFA_restore: r3 (rbx)
  DW_CFA_advance_loc: 1 to 0000000000469e94
  DW_CFA_restore: r15 (r15)
  DW_CFA_advance_loc: 2 to 0000000000469e96
  DW_CFA_restore: r14 (r14)
  DW_CFA_advance_loc: 2 to 0000000000469e98
  DW_CFA_restore: r13 (r13)
  DW_CFA_advance_loc: 2 to 0000000000469e9a
  DW_CFA_restore: r12 (r12)
  DW_CFA_advance_loc: 3 to 0000000000469e9d
  DW_CFA_restore: r6 (rbp)
  DW_CFA_advance_loc: 1 to 0000000000469e9e
  DW_CFA_offset: r3 (rbx) at cfa-56
  DW_CFA_offset: r6 (rbp) at cfa-16
  DW_CFA_offset: r12 (r12) at cfa-24
  DW_CFA_offset: r13 (r13) at cfa-32
  DW_CFA_offset: r14 (r14) at cfa-40
  DW_CFA_offset: r15 (r15) at cfa-48
  DW_CFA_advance_loc: 58 to 0000000000469ed8
  DW_CFA_restore: r3 (rbx)
  DW_CFA_advance_loc: 1 to 0000000000469ed9
  DW_CFA_restore: r15 (r15)
  DW_CFA_advance_loc: 2 to 0000000000469edb
  DW_CFA_restore: r14 (r14)
  DW_CFA_advance_loc: 2 to 0000000000469edd
  DW_CFA_restore: r13 (r13)
  DW_CFA_advance_loc: 2 to 0000000000469edf
  DW_CFA_restore: r12 (r12)
  DW_CFA_advance_loc: 3 to 0000000000469ee2
  DW_CFA_restore: r6 (rbp)
  DW_CFA_advance_loc: 1 to 0000000000469ee3
  DW_CFA_offset: r3 (rbx) at cfa-56
  DW_CFA_offset: r6 (rbp) at cfa-16
  DW_CFA_offset: r12 (r12) at cfa-24
  DW_CFA_offset: r13 (r13) at cfa-32
  DW_CFA_offset: r14 (r14) at cfa-40
  DW_CFA_offset: r15 (r15) at cfa-48
  DW_CFA_advance_loc1: 74 to 0000000000469f2d
  DW_CFA_restore: r3 (rbx)
  DW_CFA_advance_loc: 1 to 0000000000469f2e
  DW_CFA_restore: r15 (r15)
  DW_CFA_advance_loc: 2 to 0000000000469f30
  DW_CFA_restore: r14 (r14)
  DW_CFA_advance_loc: 2 to 0000000000469f32
  DW_CFA_restore: r13 (r13)
  DW_CFA_advance_loc: 2 to 0000000000469f34
  DW_CFA_restore: r12 (r12)
  DW_CFA_advance_loc: 3 to 0000000000469f37
  DW_CFA_restore: r6 (rbp)
  DW_CFA_advance_loc: 1 to 0000000000469f38
  DW_CFA_offset: r3 (rbx) at cfa-56
  DW_CFA_offset: r6 (rbp) at cfa-16
  DW_CFA_offset: r12 (r12) at cfa-24
  DW_CFA_offset: r13 (r13) at cfa-32
  DW_CFA_offset: r14 (r14) at cfa-40
  DW_CFA_offset: r15 (r15) at cfa-48
  DW_CFA_advance_loc1: 79 to 0000000000469f87
  DW_CFA_restore: r3 (rbx)
  DW_CFA_advance_loc: 1 to 0000000000469f88
  DW_CFA_restore: r15 (r15)
  DW_CFA_advance_loc: 2 to 0000000000469f8a
  DW_CFA_restore: r14 (r14)
  DW_CFA_advance_loc: 2 to 0000000000469f8c
  DW_CFA_restore: r13 (r13)
  DW_CFA_advance_loc: 2 to 0000000000469f8e
  DW_CFA_restore: r12 (r12)
  DW_CFA_advance_loc: 3 to 0000000000469f91
  DW_CFA_restore: r6 (rbp)
  DW_CFA_advance_loc: 1 to 0000000000469f92
  DW_CFA_offset: r3 (rbx) at cfa-56
  DW_CFA_offset: r6 (rbp) at cfa-16
  DW_CFA_offset: r12 (r12) at cfa-24
  DW_CFA_offset: r13 (r13) at cfa-32
  DW_CFA_offset: r14 (r14) at cfa-40
  DW_CFA_offset: r15 (r15) at cfa-48
  DW_CFA_advance_loc1: 68 to 0000000000469fd6
  DW_CFA_restore: r3 (rbx)
  DW_CFA_advance_loc: 1 to 0000000000469fd7
  DW_CFA_restore: r15 (r15)
  DW_CFA_advance_loc: 2 to 0000000000469fd9
  DW_CFA_restore: r14 (r14)
  DW_CFA_advance_loc: 2 to 0000000000469fdb
  DW_CFA_restore: r13 (r13)
  DW_CFA_advance_loc: 2 to 0000000000469fdd
  DW_CFA_restore: r12 (r12)
  DW_CFA_advance_loc: 3 to 0000000000469fe0
  DW_CFA_restore: r6 (rbp)
  DW_CFA_advance_loc: 1 to 0000000000469fe1
  DW_CFA_offset: r3 (rbx) at cfa-56
  DW_CFA_offset: r6 (rbp) at cfa-16
  DW_CFA_offset: r12 (r12) at cfa-24
  DW_CFA_offset: r13 (r13) at cfa-32
  DW_CFA_offset: r14 (r14) at cfa-40
  DW_CFA_offset: r15 (r15) at cfa-48
  DW_CFA_advance_loc1: 76 to 000000000046a02d
  DW_CFA_restore: r3 (rbx)
  DW_CFA_advance_loc: 1 to 000000000046a02e
  DW_CFA_restore: r15 (r15)
  DW_CFA_advance_loc: 2 to 000000000046a030
  DW_CFA_restore: r14 (r14)
  DW_CFA_advance_loc: 2 to 000000000046a032
  DW_CFA_restore: r13 (r13)
  DW_CFA_advance_loc: 2 to 000000000046a034
  DW_CFA_restore: r12 (r12)
  DW_CFA_advance_loc: 3 to 000000000046a037
  DW_CFA_restore: r6 (rbp)
  DW_CFA_advance_loc: 1 to 000000000046a038
  DW_CFA_offset: r3 (rbx) at cfa-56
  DW_CFA_offset: r6 (rbp) at cfa-16
  DW_CFA_offset: r12 (r12) at cfa-24
  DW_CFA_offset: r13 (r13) at cfa-32
  DW_CFA_offset: r14 (r14) at cfa-40
  DW_CFA_offset: r15 (r15) at cfa-48
  DW_CFA_advance_loc1: 79 to 000000000046a087
  DW_CFA_restore: r3 (rbx)
  DW_CFA_advance_loc: 1 to 000000000046a088
  DW_CFA_restore: r15 (r15)
  DW_CFA_advance_loc: 2 to 000000000046a08a
  DW_CFA_restore: r14 (r14)
  DW_CFA_advance_loc: 2 to 000000000046a08c
  DW_CFA_restore: r13 (r13)
  DW_CFA_advance_loc: 2 to 000000000046a08e
  DW_CFA_restore: r12 (r12)
  DW_CFA_advance_loc: 3 to 000000000046a091
  DW_CFA_restore: r6 (rbp)
  DW_CFA_advance_loc: 1 to 000000000046a092
  DW_CFA_offset: r3 (rbx) at cfa-56
  DW_CFA_offset: r6 (rbp) at cfa-16
  DW_CFA_offset: r12 (r12) at cfa-24
  DW_CFA_offset: r13 (r13) at cfa-32
  DW_CFA_offset: r14 (r14) at cfa-40
  DW_CFA_offset: r15 (r15) at cfa-48
  DW_CFA_advance_loc: 58 to 000000000046a0cc
  DW_CFA_restore: r3 (rbx)
  DW_CFA_advance_loc: 1 to 000000000046a0cd
  DW_CFA_restore: r15 (r15)
  DW_CFA_advance_loc: 2 to 000000000046a0cf
  DW_CFA_restore: r14 (r14)
  DW_CFA_advance_loc: 2 to 000000000046a0d1
  DW_CFA_restore: r13 (r13)
  DW_CFA_advance_loc: 2 to 000000000046a0d3
  DW_CFA_restore: r12 (r12)
  DW_CFA_advance_loc: 3 to 000000000046a0d6
  DW_CFA_restore: r6 (rbp)
  DW_CFA_advance_loc: 1 to 000000000046a0d7
  DW_CFA_offset: r3 (rbx) at cfa-56
  DW_CFA_offset: r6 (rbp) at cfa-16
  DW_CFA_offset: r12 (r12) at cfa-24
  DW_CFA_offset: r13 (r13) at cfa-32
  DW_CFA_offset: r14 (r14) at cfa-40
  DW_CFA_offset: r15 (r15) at cfa-48
  DW_CFA_advance_loc: 52 to 000000000046a10b
  DW_CFA_restore: r3 (rbx)
  DW_CFA_advance_loc: 1 to 000000000046a10c
  DW_CFA_restore: r15 (r15)
  DW_CFA_advance_loc: 2 to 000000000046a10e
  DW_CFA_restore: r14 (r14)
  DW_CFA_advance_loc: 2 to 000000000046a110
  DW_CFA_restore: r13 (r13)
  DW_CFA_advance_loc: 2 to 000000000046a112
  DW_CFA_restore: r12 (r12)
  DW_CFA_advance_loc: 3 to 000000000046a115
  DW_CFA_restore: r6 (rbp)
  DW_CFA_advance_loc: 1 to 000000000046a116
  DW_CFA_offset: r3 (rbx) at cfa-56
  DW_CFA_offset: r6 (rbp) at cfa-16
  DW_CFA_offset: r12 (r12) at cfa-24
  DW_CFA_offset: r13 (r13) at cfa-32
  DW_CFA_offset: r14 (r14) at cfa-40
  DW_CFA_offset: r15 (r15) at cfa-48
  DW_CFA_advance_loc1: 251 to 000000000046a211
  DW_CFA_restore: r3 (rbx)
  DW_CFA_advance_loc: 1 to 000000000046a212
  DW_CFA_restore: r15 (r15)
  DW_CFA_advance_loc: 2 to 000000000046a214
  DW_CFA_restore: r14 (r14)
  DW_CFA_advance_loc: 2 to 000000000046a216
  DW_CFA_restore: r13 (r13)
  DW_CFA_advance_loc: 2 to 000000000046a218
  DW_CFA_restore: r12 (r12)
  DW_CFA_advance_loc: 3 to 000000000046a21b
  DW_CFA_restore: r6 (rbp)
  DW_CFA_advance_loc: 1 to 000000000046a21c
  DW_CFA_offset: r3 (rbx) at cfa-56
  DW_CFA_offset: r6 (rbp) at cfa-16
  DW_CFA_offset: r12 (r12) at cfa-24
  DW_CFA_offset: r13 (r13) at cfa-32
  DW_CFA_offset: r14 (r14) at cfa-40
  DW_CFA_offset: r15 (r15) at cfa-48
  DW_CFA_advance_loc: 31 to 000000000046a23b
  DW_CFA_restore: r3 (rbx)
  DW_CFA_advance_loc: 1 to 000000000046a23c
  DW_CFA_restore: r15 (r15)
  DW_CFA_advance_loc: 2 to 000000000046a23e
  DW_CFA_restore: r14 (r14)
  DW_CFA_advance_loc: 2 to 000000000046a240
  DW_CFA_restore: r13 (r13)
  DW_CFA_advance_loc: 2 to 000000000046a242
  DW_CFA_restore: r12 (r12)
  DW_CFA_advance_loc: 3 to 000000000046a245
  DW_CFA_restore: r6 (rbp)
  DW_CFA_advance_loc: 1 to 000000000046a246
  DW_CFA_offset: r3 (rbx) at cfa-56
  DW_CFA_offset: r6 (rbp) at cfa-16
  DW_CFA_offset: r12 (r12) at cfa-24
  DW_CFA_offset: r13 (r13) at cfa-32
  DW_CFA_offset: r14 (r14) at cfa-40
  DW_CFA_offset: r15 (r15) at cfa-48
  DW_CFA_advance_loc: 62 to 000000000046a284
  DW_CFA_restore: r3 (rbx)
  DW_CFA_advance_loc: 1 to 000000000046a285
  DW_CFA_restore: r15 (r15)
  DW_CFA_advance_loc: 2 to 000000000046a287
  DW_CFA_restore: r14 (r14)
  DW_CFA_advance_loc: 2 to 000000000046a289
  DW_CFA_restore: r13 (r13)
  DW_CFA_advance_loc: 2 to 000000000046a28b
  DW_CFA_restore: r12 (r12)
  DW_CFA_advance_loc: 3 to 000000000046a28e
  DW_CFA_restore: r6 (rbp)
  DW_CFA_advance_loc: 1 to 000000000046a28f
  DW_CFA_offset: r3 (rbx) at cfa-56
  DW_CFA_offset: r6 (rbp) at cfa-16
  DW_CFA_offset: r12 (r12) at cfa-24
  DW_CFA_offset: r13 (r13) at cfa-32
  DW_CFA_offset: r14 (r14) at cfa-40
  DW_CFA_offset: r15 (r15) at cfa-48
  DW_CFA_advance_loc: 63 to 000000000046a2ce
  DW_CFA_restore: r3 (rbx)
  DW_CFA_advance_loc: 1 to 000000000046a2cf
  DW_CFA_restore: r15 (r15)
  DW_CFA_advance_loc: 2 to 000000000046a2d1
  DW_CFA_restore: r14 (r14)
  DW_CFA_advance_loc: 2 to 000000000046a2d3
  DW_CFA_restore: r13 (r13)
  DW_CFA_advance_loc: 2 to 000000000046a2d5
  DW_CFA_restore: r12 (r12)
  DW_CFA_advance_loc: 3 to 000000000046a2d8
  DW_CFA_restore: r6 (rbp)
  DW_CFA_advance_loc: 1 to 000000000046a2d9
  DW_CFA_offset: r3 (rbx) at cfa-56
  DW_CFA_offset: r6 (rbp) at cfa-16
  DW_CFA_offset: r12 (r12) at cfa-24
  DW_CFA_offset: r13 (r13) at cfa-32
  DW_CFA_offset: r14 (r14) at cfa-40
  DW_CFA_offset: r15 (r15) at cfa-48
  DW_CFA_advance_loc1: 74 to 000000000046a323
  DW_CFA_restore: r3 (rbx)
  DW_CFA_advance_loc: 1 to 000000000046a324
  DW_CFA_restore: r15 (r15)
  DW_CFA_advance_loc: 2 to 000000000046a326
  DW_CFA_restore: r14 (r14)
  DW_CFA_advance_loc: 2 to 000000000046a328
  DW_CFA_restore: r13 (r13)
  DW_CFA_advance_loc: 2 to 000000000046a32a
  DW_CFA_restore: r12 (r12)
  DW_CFA_advance_loc: 3 to 000000000046a32d
  DW_CFA_restore: r6 (rbp)
  DW_CFA_advance_loc: 1 to 000000000046a32e
  DW_CFA_offset: r3 (rbx) at cfa-56
  DW_CFA_offset: r6 (rbp) at cfa-16
  DW_CFA_offset: r12 (r12) at cfa-24
  DW_CFA_offset: r13 (r13) at cfa-32
  DW_CFA_offset: r14 (r14) at cfa-40
  DW_CFA_offset: r15 (r15) at cfa-48
  DW_CFA_advance_loc: 53 to 000000000046a363
  DW_CFA_restore: r3 (rbx)
  DW_CFA_advance_loc: 1 to 000000000046a364
  DW_CFA_restore: r15 (r15)
  DW_CFA_advance_loc: 2 to 000000000046a366
  DW_CFA_restore: r14 (r14)
  DW_CFA_advance_loc: 2 to 000000000046a368
  DW_CFA_restore: r13 (r13)
  DW_CFA_advance_loc: 2 to 000000000046a36a
  DW_CFA_restore: r12 (r12)
  DW_CFA_advance_loc: 3 to 000000000046a36d
  DW_CFA_restore: r6 (rbp)
  DW_CFA_advance_loc: 1 to 000000000046a36e
  DW_CFA_offset: r3 (rbx) at cfa-56
  DW_CFA_offset: r6 (rbp) at cfa-16
  DW_CFA_offset: r12 (r12) at cfa-24
  DW_CFA_offset: r13 (r13) at cfa-32
  DW_CFA_offset: r14 (r14) at cfa-40
  DW_CFA_offset: r15 (r15) at cfa-48
  DW_CFA_advance_loc1: 116 to 000000000046a3e2
  DW_CFA_restore: r3 (rbx)
  DW_CFA_advance_loc: 1 to 000000000046a3e3
  DW_CFA_restore: r15 (r15)
  DW_CFA_advance_loc: 2 to 000000000046a3e5
  DW_CFA_restore: r14 (r14)
  DW_CFA_advance_loc: 2 to 000000000046a3e7
  DW_CFA_restore: r13 (r13)
  DW_CFA_advance_loc: 2 to 000000000046a3e9
  DW_CFA_restore: r12 (r12)
  DW_CFA_advance_loc: 3 to 000000000046a3ec
  DW_CFA_restore: r6 (rbp)
  DW_CFA_advance_loc: 1 to 000000000046a3ed
  DW_CFA_offset: r3 (rbx) at cfa-56
  DW_CFA_offset: r6 (rbp) at cfa-16
  DW_CFA_offset: r12 (r12) at cfa-24
  DW_CFA_offset: r13 (r13) at cfa-32
  DW_CFA_offset: r14 (r14) at cfa-40
  DW_CFA_offset: r15 (r15) at cfa-48
  DW_CFA_advance_loc1: 85 to 000000000046a442
  DW_CFA_restore: r3 (rbx)
  DW_CFA_advance_loc: 1 to 000000000046a443
  DW_CFA_restore: r15 (r15)
  DW_CFA_advance_loc: 2 to 000000000046a445
  DW_CFA_restore: r14 (r14)
  DW_CFA_advance_loc: 2 to 000000000046a447
  DW_CFA_restore: r13 (r13)
  DW_CFA_advance_loc: 2 to 000000000046a449
  DW_CFA_restore: r12 (r12)
  DW_CFA_advance_loc: 3 to 000000000046a44c
  DW_CFA_restore: r6 (rbp)
  DW_CFA_advance_loc: 1 to 000000000046a44d
  DW_CFA_offset: r3 (rbx) at cfa-56
  DW_CFA_offset: r6 (rbp) at cfa-16
  DW_CFA_offset: r12 (r12) at cfa-24
  DW_CFA_offset: r13 (r13) at cfa-32
  DW_CFA_offset: r14 (r14) at cfa-40
  DW_CFA_offset: r15 (r15) at cfa-48
  DW_CFA_advance_loc1: 115 to 000000000046a4c0
  DW_CFA_restore: r3 (rbx)
  DW_CFA_advance_loc: 1 to 000000000046a4c1
  DW_CFA_restore: r15 (r15)
  DW_CFA_advance_loc: 2 to 000000000046a4c3
  DW_CFA_restore: r14 (r14)
  DW_CFA_advance_loc: 2 to 000000000046a4c5
  DW_CFA_restore: r13 (r13)
  DW_CFA_advance_loc: 2 to 000000000046a4c7
  DW_CFA_restore: r12 (r12)
  DW_CFA_advance_loc: 3 to 000000000046a4ca
  DW_CFA_restore: r6 (rbp)
  DW_CFA_advance_loc: 1 to 000000000046a4cb
  DW_CFA_offset: r3 (rbx) at cfa-56
  DW_CFA_offset: r6 (rbp) at cfa-16
  DW_CFA_offset: r12 (r12) at cfa-24
  DW_CFA_offset: r13 (r13) at cfa-32
  DW_CFA_offset: r14 (r14) at cfa-40
  DW_CFA_offset: r15 (r15) at cfa-48
  DW_CFA_advance_loc1: 77 to 000000000046a518
  DW_CFA_restore: r3 (rbx)
  DW_CFA_advance_loc: 1 to 000000000046a519
  DW_CFA_restore: r15 (r15)
  DW_CFA_advance_loc: 2 to 000000000046a51b
  DW_CFA_restore: r14 (r14)
  DW_CFA_advance_loc: 2 to 000000000046a51d
  DW_CFA_restore: r13 (r13)
  DW_CFA_advance_loc: 2 to 000000000046a51f
  DW_CFA_restore: r12 (r12)
  DW_CFA_advance_loc: 3 to 000000000046a522
  DW_CFA_restore: r6 (rbp)
  DW_CFA_advance_loc: 1 to 000000000046a523
  DW_CFA_offset: r3 (rbx) at cfa-56
  DW_CFA_offset: r6 (rbp) at cfa-16
  DW_CFA_offset: r12 (r12) at cfa-24
  DW_CFA_offset: r13 (r13) at cfa-32
  DW_CFA_offset: r14 (r14) at cfa-40
  DW_CFA_offset: r15 (r15) at cfa-48
  DW_CFA_advance_loc1: 84 to 000000000046a577
  DW_CFA_restore: r3 (rbx)
  DW_CFA_advance_loc: 1 to 000000000046a578
  DW_CFA_restore: r15 (r15)
  DW_CFA_advance_loc: 2 to 000000000046a57a
  DW_CFA_restore: r14 (r14)
  DW_CFA_advance_loc: 2 to 000000000046a57c
  DW_CFA_restore: r13 (r13)
  DW_CFA_advance_loc: 2 to 000000000046a57e
  DW_CFA_restore: r12 (r12)
  DW_CFA_advance_loc: 3 to 000000000046a581
  DW_CFA_restore: r6 (rbp)
  DW_CFA_advance_loc: 1 to 000000000046a582
  DW_CFA_offset: r3 (rbx) at cfa-56
  DW_CFA_offset: r6 (rbp) at cfa-16
  DW_CFA_offset: r12 (r12) at cfa-24
  DW_CFA_offset: r13 (r13) at cfa-32
  DW_CFA_offset: r14 (r14) at cfa-40
  DW_CFA_offset: r15 (r15) at cfa-48
  DW_CFA_advance_loc: 42 to 000000000046a5ac
  DW_CFA_restore: r3 (rbx)
  DW_CFA_advance_loc: 1 to 000000000046a5ad
  DW_CFA_restore: r15 (r15)
  DW_CFA_advance_loc: 2 to 000000000046a5af
  DW_CFA_restore: r14 (r14)
  DW_CFA_advance_loc: 2 to 000000000046a5b1
  DW_CFA_restore: r13 (r13)
  DW_CFA_advance_loc: 2 to 000000000046a5b3
  DW_CFA_restore: r12 (r12)
  DW_CFA_advance_loc: 3 to 000000000046a5b6
  DW_CFA_restore: r6 (rbp)
  DW_CFA_advance_loc: 1 to 000000000046a5b7
  DW_CFA_offset: r3 (rbx) at cfa-56
  DW_CFA_offset: r6 (rbp) at cfa-16
  DW_CFA_offset: r12 (r12) at cfa-24
  DW_CFA_offset: r13 (r13) at cfa-32
  DW_CFA_offset: r14 (r14) at cfa-40
  DW_CFA_offset: r15 (r15) at cfa-48
  DW_CFA_advance_loc: 42 to 000000000046a5e1
  DW_CFA_restore: r3 (rbx)
  DW_CFA_advance_loc: 1 to 000000000046a5e2
  DW_CFA_restore: r15 (r15)
  DW_CFA_advance_loc: 2 to 000000000046a5e4
  DW_CFA_restore: r14 (r14)
  DW_CFA_advance_loc: 2 to 000000000046a5e6
  DW_CFA_restore: r13 (r13)
  DW_CFA_advance_loc: 2 to 000000000046a5e8
  DW_CFA_restore: r12 (r12)
  DW_CFA_advance_loc: 3 to 000000000046a5eb
  DW_CFA_restore: r6 (rbp)
  DW_CFA_advance_loc: 1 to 000000000046a5ec
  DW_CFA_offset: r3 (rbx) at cfa-56
  DW_CFA_offset: r6 (rbp) at cfa-16
  DW_CFA_offset: r12 (r12) at cfa-24
  DW_CFA_offset: r13 (r13) at cfa-32
  DW_CFA_offset: r14 (r14) at cfa-40
  DW_CFA_offset: r15 (r15) at cfa-48
  DW_CFA_advance_loc: 42 to 000000000046a616
  DW_CFA_restore: r3 (rbx)
  DW_CFA_advance_loc: 1 to 000000000046a617
  DW_CFA_restore: r15 (r15)
  DW_CFA_advance_loc: 2 to 000000000046a619
  DW_CFA_restore: r14 (r14)
  DW_CFA_advance_loc: 2 to 000000000046a61b
  DW_CFA_restore: r13 (r13)
  DW_CFA_advance_loc: 2 to 000000000046a61d
  DW_CFA_restore: r12 (r12)
  DW_CFA_advance_loc: 3 to 000000000046a620
  DW_CFA_restore: r6 (rbp)
  DW_CFA_advance_loc: 1 to 000000000046a621
  DW_CFA_offset: r3 (rbx) at cfa-56
  DW_CFA_offset: r6 (rbp) at cfa-16
  DW_CFA_offset: r12 (r12) at cfa-24
  DW_CFA_offset: r13 (r13) at cfa-32
  DW_CFA_offset: r14 (r14) at cfa-40
  DW_CFA_offset: r15 (r15) at cfa-48
  DW_CFA_advance_loc: 42 to 000000000046a64b
  DW_CFA_restore: r3 (rbx)
  DW_CFA_advance_loc: 1 to 000000000046a64c
  DW_CFA_restore: r15 (r15)
  DW_CFA_advance_loc: 2 to 000000000046a64e
  DW_CFA_restore: r14 (r14)
  DW_CFA_advance_loc: 2 to 000000000046a650
  DW_CFA_restore: r13 (r13)
  DW_CFA_advance_loc: 2 to 000000000046a652
  DW_CFA_restore: r12 (r12)
  DW_CFA_advance_loc: 3 to 000000000046a655
  DW_CFA_restore: r6 (rbp)
  DW_CFA_advance_loc: 1 to 000000000046a656
  DW_CFA_offset: r3 (rbx) at cfa-56
  DW_CFA_offset: r6 (rbp) at cfa-16
  DW_CFA_offset: r12 (r12) at cfa-24
  DW_CFA_offset: r13 (r13) at cfa-32
  DW_CFA_offset: r14 (r14) at cfa-40
  DW_CFA_offset: r15 (r15) at cfa-48
  DW_CFA_advance_loc: 38 to 000000000046a67c
  DW_CFA_restore: r3 (rbx)
  DW_CFA_advance_loc: 1 to 000000000046a67d
  DW_CFA_restore: r15 (r15)
  DW_CFA_advance_loc: 2 to 000000000046a67f
  DW_CFA_restore: r14 (r14)
  DW_CFA_advance_loc: 2 to 000000000046a681
  DW_CFA_restore: r13 (r13)
  DW_CFA_advance_loc: 2 to 000000000046a683
  DW_CFA_restore: r12 (r12)
  DW_CFA_advance_loc: 3 to 000000000046a686
  DW_CFA_restore: r6 (rbp)
  DW_CFA_advance_loc: 1 to 000000000046a687
  DW_CFA_offset: r3 (rbx) at cfa-56
  DW_CFA_offset: r6 (rbp) at cfa-16
  DW_CFA_offset: r12 (r12) at cfa-24
  DW_CFA_offset: r13 (r13) at cfa-32
  DW_CFA_offset: r14 (r14) at cfa-40
  DW_CFA_offset: r15 (r15) at cfa-48
  DW_CFA_advance_loc: 22 to 000000000046a69d
  DW_CFA_restore: r3 (rbx)
  DW_CFA_advance_loc: 1 to 000000000046a69e
  DW_CFA_restore: r15 (r15)
  DW_CFA_advance_loc: 2 to 000000000046a6a0
  DW_CFA_restore: r14 (r14)
  DW_CFA_advance_loc: 2 to 000000000046a6a2
  DW_CFA_restore: r13 (r13)
  DW_CFA_advance_loc: 2 to 000000000046a6a4
  DW_CFA_restore: r12 (r12)
  DW_CFA_advance_loc: 3 to 000000000046a6a7
  DW_CFA_restore: r6 (rbp)
  DW_CFA_advance_loc: 1 to 000000000046a6a8
  DW_CFA_offset: r3 (rbx) at cfa-56
  DW_CFA_offset: r6 (rbp) at cfa-16
  DW_CFA_offset: r12 (r12) at cfa-24
  DW_CFA_offset: r13 (r13) at cfa-32
  DW_CFA_offset: r14 (r14) at cfa-40
  DW_CFA_offset: r15 (r15) at cfa-48
  DW_CFA_advance_loc: 43 to 000000000046a6d3
  DW_CFA_restore: r3 (rbx)
  DW_CFA_advance_loc: 1 to 000000000046a6d4
  DW_CFA_restore: r15 (r15)
  DW_CFA_advance_loc: 2 to 000000000046a6d6
  DW_CFA_restore: r14 (r14)
  DW_CFA_advance_loc: 2 to 000000000046a6d8
  DW_CFA_restore: r13 (r13)
  DW_CFA_advance_loc: 2 to 000000000046a6da
  DW_CFA_restore: r12 (r12)
  DW_CFA_advance_loc: 3 to 000000000046a6dd
  DW_CFA_restore: r6 (rbp)
  DW_CFA_advance_loc: 1 to 000000000046a6de
  DW_CFA_offset: r3 (rbx) at cfa-56
  DW_CFA_offset: r6 (rbp) at cfa-16
  DW_CFA_offset: r12 (r12) at cfa-24
  DW_CFA_offset: r13 (r13) at cfa-32
  DW_CFA_offset: r14 (r14) at cfa-40
  DW_CFA_offset: r15 (r15) at cfa-48
  DW_CFA_advance_loc1: 231 to 000000000046a7c5
  DW_CFA_restore: r3 (rbx)
  DW_CFA_advance_loc: 1 to 000000000046a7c6
  DW_CFA_restore: r15 (r15)
  DW_CFA_advance_loc: 2 to 000000000046a7c8
  DW_CFA_restore: r14 (r14)
  DW_CFA_advance_loc: 2 to 000000000046a7ca
  DW_CFA_restore: r13 (r13)
  DW_CFA_advance_loc: 2 to 000000000046a7cc
  DW_CFA_restore: r12 (r12)
  DW_CFA_advance_loc: 3 to 000000000046a7cf
  DW_CFA_restore: r6 (rbp)
  DW_CFA_advance_loc: 1 to 000000000046a7d0
  DW_CFA_offset: r3 (rbx) at cfa-56
  DW_CFA_offset: r6 (rbp) at cfa-16
  DW_CFA_offset: r12 (r12) at cfa-24
  DW_CFA_offset: r13 (r13) at cfa-32
  DW_CFA_offset: r14 (r14) at cfa-40
  DW_CFA_offset: r15 (r15) at cfa-48
  DW_CFA_nop
  DW_CFA_nop

00003c08 00000000000000cc 00003b64 FDE cie=000000a8 pc=000000000046a950..000000000046bf60
  DW_CFA_advance_loc: 1 to 000000000046a951
  DW_CFA_def_cfa_offset: 16
  DW_CFA_advance_loc: 3 to 000000000046a954
  DW_CFA_def_cfa: r6 (rbp) ofs 16
  DW_CFA_offset: r6 (rbp) at cfa-16
  DW_CFA_advance_loc: 16 to 000000000046a964
  DW_CFA_offset: r3 (rbx) at cfa-56
  DW_CFA_offset: r12 (r12) at cfa-24
  DW_CFA_offset: r13 (r13) at cfa-32
  DW_CFA_offset: r14 (r14) at cfa-40
  DW_CFA_offset: r15 (r15) at cfa-48
  DW_CFA_advance_loc2: 2311 to 000000000046b26b
  DW_CFA_restore: r3 (rbx)
  DW_CFA_advance_loc: 1 to 000000000046b26c
  DW_CFA_restore: r15 (r15)
  DW_CFA_advance_loc: 2 to 000000000046b26e
  DW_CFA_restore: r14 (r14)
  DW_CFA_advance_loc: 2 to 000000000046b270
  DW_CFA_restore: r13 (r13)
  DW_CFA_advance_loc: 2 to 000000000046b272
  DW_CFA_restore: r12 (r12)
  DW_CFA_advance_loc: 3 to 000000000046b275
  DW_CFA_restore: r6 (rbp)
  DW_CFA_advance_loc: 1 to 000000000046b276
  DW_CFA_offset: r3 (rbx) at cfa-56
  DW_CFA_offset: r6 (rbp) at cfa-16
  DW_CFA_offset: r12 (r12) at cfa-24
  DW_CFA_offset: r13 (r13) at cfa-32
  DW_CFA_offset: r14 (r14) at cfa-40
  DW_CFA_offset: r15 (r15) at cfa-48
  DW_CFA_advance_loc2: 1545 to 000000000046b87f
  DW_CFA_restore: r3 (rbx)
  DW_CFA_advance_loc: 1 to 000000000046b880
  DW_CFA_restore: r15 (r15)
  DW_CFA_advance_loc: 2 to 000000000046b882
  DW_CFA_restore: r14 (r14)
  DW_CFA_advance_loc: 2 to 000000000046b884
  DW_CFA_restore: r13 (r13)
  DW_CFA_advance_loc: 2 to 000000000046b886
  DW_CFA_restore: r12 (r12)
  DW_CFA_advance_loc: 3 to 000000000046b889
  DW_CFA_restore: r6 (rbp)
  DW_CFA_advance_loc: 1 to 000000000046b88a
  DW_CFA_offset: r3 (rbx) at cfa-56
  DW_CFA_offset: r6 (rbp) at cfa-16
  DW_CFA_offset: r12 (r12) at cfa-24
  DW_CFA_offset: r13 (r13) at cfa-32
  DW_CFA_offset: r14 (r14) at cfa-40
  DW_CFA_offset: r15 (r15) at cfa-48
  DW_CFA_advance_loc1: 207 to 000000000046b959
  DW_CFA_restore: r3 (rbx)
  DW_CFA_advance_loc: 1 to 000000000046b95a
  DW_CFA_restore: r15 (r15)
  DW_CFA_advance_loc: 2 to 000000000046b95c
  DW_CFA_restore: r14 (r14)
  DW_CFA_advance_loc: 2 to 000000000046b95e
  DW_CFA_restore: r13 (r13)
  DW_CFA_advance_loc: 2 to 000000000046b960
  DW_CFA_restore: r12 (r12)
  DW_CFA_advance_loc: 3 to 000000000046b963
  DW_CFA_restore: r6 (rbp)
  DW_CFA_advance_loc: 1 to 000000000046b964
  DW_CFA_offset: r3 (rbx) at cfa-56
  DW_CFA_offset: r6 (rbp) at cfa-16
  DW_CFA_offset: r12 (r12) at cfa-24
  DW_CFA_offset: r13 (r13) at cfa-32
  DW_CFA_offset: r14 (r14) at cfa-40
  DW_CFA_offset: r15 (r15) at cfa-48
  DW_CFA_advance_loc2: 1048 to 000000000046bd7c
  DW_CFA_restore: r3 (rbx)
  DW_CFA_advance_loc: 1 to 000000000046bd7d
  DW_CFA_restore: r15 (r15)
  DW_CFA_advance_loc: 2 to 000000000046bd7f
  DW_CFA_restore: r14 (r14)
  DW_CFA_advance_loc: 2 to 000000000046bd81
  DW_CFA_restore: r13 (r13)
  DW_CFA_advance_loc: 2 to 000000000046bd83
  DW_CFA_restore: r12 (r12)
  DW_CFA_advance_loc: 3 to 000000000046bd86
  DW_CFA_restore: r6 (rbp)
  DW_CFA_advance_loc: 1 to 000000000046bd87
  DW_CFA_offset: r3 (rbx) at cfa-56
  DW_CFA_offset: r6 (rbp) at cfa-16
  DW_CFA_offset: r12 (r12) at cfa-24
  DW_CFA_offset: r13 (r13) at cfa-32
  DW_CFA_offset: r14 (r14) at cfa-40
  DW_CFA_offset: r15 (r15) at cfa-48
  DW_CFA_advance_loc1: 158 to 000000000046be25
  DW_CFA_restore: r3 (rbx)
  DW_CFA_advance_loc: 1 to 000000000046be26
  DW_CFA_restore: r15 (r15)
  DW_CFA_advance_loc: 2 to 000000000046be28
  DW_CFA_restore: r14 (r14)
  DW_CFA_advance_loc: 2 to 000000000046be2a
  DW_CFA_restore: r13 (r13)
  DW_CFA_advance_loc: 2 to 000000000046be2c
  DW_CFA_restore: r12 (r12)
  DW_CFA_advance_loc: 3 to 000000000046be2f
  DW_CFA_restore: r6 (rbp)
  DW_CFA_advance_loc: 1 to 000000000046be30
  DW_CFA_offset: r3 (rbx) at cfa-56
  DW_CFA_offset: r6 (rbp) at cfa-16
  DW_CFA_offset: r12 (r12) at cfa-24
  DW_CFA_offset: r13 (r13) at cfa-32
  DW_CFA_offset: r14 (r14) at cfa-40
  DW_CFA_offset: r15 (r15) at cfa-48
  DW_CFA_advance_loc: 26 to 000000000046be4a
  DW_CFA_restore: r3 (rbx)
  DW_CFA_advance_loc: 1 to 000000000046be4b
  DW_CFA_restore: r15 (r15)
  DW_CFA_advance_loc: 2 to 000000000046be4d
  DW_CFA_restore: r14 (r14)
  DW_CFA_advance_loc: 2 to 000000000046be4f
  DW_CFA_restore: r13 (r13)
  DW_CFA_advance_loc: 2 to 000000000046be51
  DW_CFA_restore: r12 (r12)
  DW_CFA_advance_loc: 3 to 000000000046be54
  DW_CFA_restore: r6 (rbp)
  DW_CFA_advance_loc: 1 to 000000000046be55
  DW_CFA_offset: r3 (rbx) at cfa-56
  DW_CFA_offset: r6 (rbp) at cfa-16
  DW_CFA_offset: r12 (r12) at cfa-24
  DW_CFA_offset: r13 (r13) at cfa-32
  DW_CFA_offset: r14 (r14) at cfa-40
  DW_CFA_offset: r15 (r15) at cfa-48
  DW_CFA_nop
  DW_CFA_nop
  DW_CFA_nop
  DW_CFA_nop
  DW_CFA_nop
  DW_CFA_nop

00003cd8 000000000000006c 00003c34 FDE cie=000000a8 pc=000000000046bf60..000000000046c210
  DW_CFA_advance_loc: 1 to 000000000046bf61
  DW_CFA_def_cfa_offset: 16
  DW_CFA_advance_loc: 3 to 000000000046bf64
  DW_CFA_def_cfa: r6 (rbp) ofs 16
  DW_CFA_offset: r6 (rbp) at cfa-16
  DW_CFA_advance_loc: 13 to 000000000046bf71
  DW_CFA_offset: r3 (rbx) at cfa-56
  DW_CFA_offset: r12 (r12) at cfa-24
  DW_CFA_offset: r13 (r13) at cfa-32
  DW_CFA_offset: r14 (r14) at cfa-40
  DW_CFA_offset: r15 (r15) at cfa-48
  DW_CFA_advance_loc2: 598 to 000000000046c1c7
  DW_CFA_restore: r3 (rbx)
  DW_CFA_advance_loc: 1 to 000000000046c1c8
  DW_CFA_restore: r15 (r15)
  DW_CFA_advance_loc: 2 to 000000000046c1ca
  DW_CFA_restore: r14 (r14)
  DW_CFA_advance_loc: 2 to 000000000046c1cc
  DW_CFA_restore: r13 (r13)
  DW_CFA_advance_loc: 2 to 000000000046c1ce
  DW_CFA_restore: r12 (r12)
  DW_CFA_advance_loc: 3 to 000000000046c1d1
  DW_CFA_restore: r6 (rbp)
  DW_CFA_advance_loc: 1 to 000000000046c1d2
  DW_CFA_offset: r3 (rbx) at cfa-56
  DW_CFA_offset: r6 (rbp) at cfa-16
  DW_CFA_offset: r12 (r12) at cfa-24
  DW_CFA_offset: r13 (r13) at cfa-32
  DW_CFA_offset: r14 (r14) at cfa-40
  DW_CFA_offset: r15 (r15) at cfa-48
  DW_CFA_advance_loc: 30 to 000000000046c1f0
  DW_CFA_restore: r3 (rbx)
  DW_CFA_advance_loc: 1 to 000000000046c1f1
  DW_CFA_restore: r15 (r15)
  DW_CFA_advance_loc: 2 to 000000000046c1f3
  DW_CFA_restore: r14 (r14)
  DW_CFA_advance_loc: 2 to 000000000046c1f5
  DW_CFA_restore: r13 (r13)
  DW_CFA_advance_loc: 2 to 000000000046c1f7
  DW_CFA_restore: r12 (r12)
  DW_CFA_advance_loc: 3 to 000000000046c1fa
  DW_CFA_restore: r6 (rbp)
  DW_CFA_advance_loc: 1 to 000000000046c1fb
  DW_CFA_offset: r3 (rbx) at cfa-56
  DW_CFA_offset: r6 (rbp) at cfa-16
  DW_CFA_offset: r12 (r12) at cfa-24
  DW_CFA_offset: r13 (r13) at cfa-32
  DW_CFA_offset: r14 (r14) at cfa-40
  DW_CFA_offset: r15 (r15) at cfa-48
  DW_CFA_advance_loc: 9 to 000000000046c204
  DW_CFA_restore: r3 (rbx)
  DW_CFA_advance_loc: 1 to 000000000046c205
  DW_CFA_restore: r15 (r15)
  DW_CFA_advance_loc: 2 to 000000000046c207
  DW_CFA_restore: r14 (r14)
  DW_CFA_advance_loc: 2 to 000000000046c209
  DW_CFA_restore: r13 (r13)
  DW_CFA_advance_loc: 2 to 000000000046c20b
  DW_CFA_restore: r12 (r12)
  DW_CFA_advance_loc: 3 to 000000000046c20e
  DW_CFA_restore: r6 (rbp)
  DW_CFA_nop
  DW_CFA_nop
  DW_CFA_nop
  DW_CFA_nop

00003d48 000000000000009c 00003ca4 FDE cie=000000a8 pc=000000000046c210..000000000046c9d0
  DW_CFA_advance_loc: 1 to 000000000046c211
  DW_CFA_def_cfa_offset: 16
  DW_CFA_advance_loc: 3 to 000000000046c214
  DW_CFA_def_cfa: r6 (rbp) ofs 16
  DW_CFA_offset: r6 (rbp) at cfa-16
  DW_CFA_advance_loc: 11 to 000000000046c21f
  DW_CFA_offset: r12 (r12) at cfa-24
  DW_CFA_offset: r13 (r13) at cfa-32
  DW_CFA_advance_loc1: 73 to 000000000046c268
  DW_CFA_offset: r3 (rbx) at cfa-72
  DW_CFA_offset: r14 (r14) at cfa-80
  DW_CFA_offset: r15 (r15) at cfa-64
  DW_CFA_advance_loc2: 787 to 000000000046c57b
  DW_CFA_restore: r14 (r14)
  DW_CFA_advance_loc: 4 to 000000000046c57f
  DW_CFA_restore: r15 (r15)
  DW_CFA_advance_loc: 4 to 000000000046c583
  DW_CFA_restore: r3 (rbx)
  DW_CFA_offset: r3 (rbx) at cfa-72
  DW_CFA_offset: r14 (r14) at cfa-80
  DW_CFA_offset: r15 (r15) at cfa-64
  DW_CFA_advance_loc: 9 to 000000000046c58c
  DW_CFA_restore: r13 (r13)
  DW_CFA_advance_loc: 2 to 000000000046c58e
  DW_CFA_restore: r12 (r12)
  DW_CFA_advance_loc: 3 to 000000000046c591
  DW_CFA_restore: r6 (rbp)
  DW_CFA_advance_loc: 1 to 000000000046c592
  DW_CFA_offset: r6 (rbp) at cfa-16
  DW_CFA_offset: r12 (r12) at cfa-24
  DW_CFA_offset: r13 (r13) at cfa-32
  DW_CFA_advance_loc: 61 to 000000000046c5cf
  DW_CFA_restore: r14 (r14)
  DW_CFA_advance_loc: 4 to 000000000046c5d3
  DW_CFA_restore: r15 (r15)
  DW_CFA_advance_loc: 4 to 000000000046c5d7
  DW_CFA_restore: r3 (rbx)
  DW_CFA_advance_loc: 4 to 000000000046c5db
  DW_CFA_restore: r13 (r13)
  DW_CFA_advance_loc: 2 to 000000000046c5dd
  DW_CFA_restore: r12 (r12)
  DW_CFA_advance_loc: 3 to 000000000046c5e0
  DW_CFA_restore: r6 (rbp)
  DW_CFA_advance_loc: 1 to 000000000046c5e1
  DW_CFA_offset: r3 (rbx) at cfa-72
  DW_CFA_offset: r6 (rbp) at cfa-16
  DW_CFA_offset: r12 (r12) at cfa-24
  DW_CFA_offset: r13 (r13) at cfa-32
  DW_CFA_offset: r14 (r14) at cfa-80
  DW_CFA_offset: r15 (r15) at cfa-64
  DW_CFA_advance_loc2: 659 to 000000000046c874
  DW_CFA_restore: r14 (r14)
  DW_CFA_advance_loc: 10 to 000000000046c87e
  DW_CFA_restore: r15 (r15)
  DW_CFA_advance_loc: 4 to 000000000046c882
  DW_CFA_restore: r3 (rbx)
  DW_CFA_offset: r3 (rbx) at cfa-72
  DW_CFA_offset: r14 (r14) at cfa-80
  DW_CFA_offset: r15 (r15) at cfa-64
  DW_CFA_advance_loc: 18 to 000000000046c894
  DW_CFA_restore: r13 (r13)
  DW_CFA_advance_loc: 2 to 000000000046c896
  DW_CFA_restore: r12 (r12)
  DW_CFA_advance_loc: 3 to 000000000046c899
  DW_CFA_restore: r6 (rbp)
  DW_CFA_advance_loc: 1 to 000000000046c89a
  DW_CFA_offset: r6 (rbp) at cfa-16
  DW_CFA_offset: r12 (r12) at cfa-24
  DW_CFA_offset: r13 (r13) at cfa-32
  DW_CFA_advance_loc1: 241 to 000000000046c98b
  DW_CFA_restore: r14 (r14)
  DW_CFA_advance_loc: 7 to 000000000046c992
  DW_CFA_restore: r15 (r15)
  DW_CFA_advance_loc: 4 to 000000000046c996
  DW_CFA_restore: r3 (rbx)
  DW_CFA_advance_loc: 5 to 000000000046c99b
  DW_CFA_offset: r3 (rbx) at cfa-72
  DW_CFA_offset: r14 (r14) at cfa-80
  DW_CFA_offset: r15 (r15) at cfa-64
  DW_CFA_advance_loc: 23 to 000000000046c9b2
  DW_CFA_restore: r14 (r14)
  DW_CFA_advance_loc: 4 to 000000000046c9b6
  DW_CFA_restore: r15 (r15)
  DW_CFA_advance_loc: 4 to 000000000046c9ba
  DW_CFA_restore: r3 (rbx)
  DW_CFA_offset: r3 (rbx) at cfa-72
  DW_CFA_offset: r14 (r14) at cfa-80
  DW_CFA_offset: r15 (r15) at cfa-64
  DW_CFA_advance_loc: 9 to 000000000046c9c3
  DW_CFA_restore: r13 (r13)
  DW_CFA_advance_loc: 2 to 000000000046c9c5
  DW_CFA_restore: r12 (r12)
  DW_CFA_advance_loc: 3 to 000000000046c9c8
  DW_CFA_restore: r6 (rbp)
  DW_CFA_nop
  DW_CFA_nop
  DW_CFA_nop

00003de8 000000000000004c 00003d44 FDE cie=000000a8 pc=000000000046c9d0..000000000046ca70
  DW_CFA_advance_loc: 1 to 000000000046c9d1
  DW_CFA_def_cfa_offset: 16
  DW_CFA_advance_loc: 3 to 000000000046c9d4
  DW_CFA_def_cfa: r6 (rbp) ofs 16
  DW_CFA_offset: r6 (rbp) at cfa-16
  DW_CFA_advance_loc: 11 to 000000000046c9df
  DW_CFA_offset: r3 (rbx) at cfa-48
  DW_CFA_offset: r13 (r13) at cfa-24
  DW_CFA_offset: r14 (r14) at cfa-32
  DW_CFA_offset: r15 (r15) at cfa-40
  DW_CFA_advance_loc1: 98 to 000000000046ca41
  DW_CFA_restore: r3 (rbx)
  DW_CFA_advance_loc: 1 to 000000000046ca42
  DW_CFA_restore: r15 (r15)
  DW_CFA_advance_loc: 2 to 000000000046ca44
  DW_CFA_restore: r14 (r14)
  DW_CFA_advance_loc: 2 to 000000000046ca46
  DW_CFA_restore: r13 (r13)
  DW_CFA_advance_loc: 3 to 000000000046ca49
  DW_CFA_restore: r6 (rbp)
  DW_CFA_advance_loc: 1 to 000000000046ca4a
  DW_CFA_offset: r3 (rbx) at cfa-48
  DW_CFA_offset: r6 (rbp) at cfa-16
  DW_CFA_offset: r13 (r13) at cfa-24
  DW_CFA_offset: r14 (r14) at cfa-32
  DW_CFA_offset: r15 (r15) at cfa-40
  DW_CFA_advance_loc: 17 to 000000000046ca5b
  DW_CFA_restore: r3 (rbx)
  DW_CFA_advance_loc: 1 to 000000000046ca5c
  DW_CFA_restore: r15 (r15)
  DW_CFA_advance_loc: 2 to 000000000046ca5e
  DW_CFA_restore: r14 (r14)
  DW_CFA_advance_loc: 2 to 000000000046ca60
  DW_CFA_restore: r13 (r13)
  DW_CFA_advance_loc: 3 to 000000000046ca63
  DW_CFA_restore: r6 (rbp)
  DW_CFA_nop
  DW_CFA_nop
  DW_CFA_nop
  DW_CFA_nop
  DW_CFA_nop
  DW_CFA_nop

00003e38 0000000000000044 00003d94 FDE cie=000000a8 pc=000000000046ca70..000000000046d070
  DW_CFA_advance_loc: 1 to 000000000046ca71
  DW_CFA_def_cfa_offset: 16
  DW_CFA_advance_loc: 3 to 000000000046ca74
  DW_CFA_def_cfa: r6 (rbp) ofs 16
  DW_CFA_offset: r6 (rbp) at cfa-16
  DW_CFA_advance_loc: 16 to 000000000046ca84
  DW_CFA_offset: r3 (rbx) at cfa-56
  DW_CFA_offset: r12 (r12) at cfa-24
  DW_CFA_offset: r13 (r13) at cfa-32
  DW_CFA_offset: r14 (r14) at cfa-40
  DW_CFA_offset: r15 (r15) at cfa-48
  DW_CFA_advance_loc2: 1278 to 000000000046cf82
  DW_CFA_restore: r3 (rbx)
  DW_CFA_advance_loc: 1 to 000000000046cf83
  DW_CFA_restore: r15 (r15)
  DW_CFA_advance_loc: 2 to 000000000046cf85
  DW_CFA_restore: r14 (r14)
  DW_CFA_advance_loc: 2 to 000000000046cf87
  DW_CFA_restore: r13 (r13)
  DW_CFA_advance_loc: 2 to 000000000046cf89
  DW_CFA_restore: r12 (r12)
  DW_CFA_advance_loc: 3 to 000000000046cf8c
  DW_CFA_restore: r6 (rbp)
  DW_CFA_advance_loc: 1 to 000000000046cf8d
  DW_CFA_offset: r3 (rbx) at cfa-56
  DW_CFA_offset: r6 (rbp) at cfa-16
  DW_CFA_offset: r12 (r12) at cfa-24
  DW_CFA_offset: r13 (r13) at cfa-32
  DW_CFA_offset: r14 (r14) at cfa-40
  DW_CFA_offset: r15 (r15) at cfa-48
  DW_CFA_nop

00003e80 000000000000002c 00003ddc FDE cie=000000a8 pc=000000000046d070..000000000046d4b0
  DW_CFA_advance_loc: 1 to 000000000046d071
  DW_CFA_def_cfa_offset: 16
  DW_CFA_advance_loc: 3 to 000000000046d074
  DW_CFA_def_cfa: r6 (rbp) ofs 16
  DW_CFA_offset: r6 (rbp) at cfa-16
  DW_CFA_advance_loc2: 915 to 000000000046d407
  DW_CFA_restore: r6 (rbp)
  DW_CFA_advance_loc: 1 to 000000000046d408
  DW_CFA_offset: r6 (rbp) at cfa-16
  DW_CFA_advance_loc1: 146 to 000000000046d49a
  DW_CFA_restore: r6 (rbp)
  DW_CFA_advance_loc: 1 to 000000000046d49b
  DW_CFA_offset: r6 (rbp) at cfa-16
  DW_CFA_nop
  DW_CFA_nop

00003eb0 0000000000000094 00003e0c FDE cie=000000a8 pc=000000000046d4b0..000000000046d6b0
  DW_CFA_advance_loc: 1 to 000000000046d4b1
  DW_CFA_def_cfa_offset: 16
  DW_CFA_advance_loc: 3 to 000000000046d4b4
  DW_CFA_def_cfa: r6 (rbp) ofs 16
  DW_CFA_offset: r6 (rbp) at cfa-16
  DW_CFA_advance_loc: 13 to 000000000046d4c1
  DW_CFA_offset: r3 (rbx) at cfa-56
  DW_CFA_offset: r12 (r12) at cfa-24
  DW_CFA_offset: r13 (r13) at cfa-32
  DW_CFA_offset: r14 (r14) at cfa-40
  DW_CFA_offset: r15 (r15) at cfa-48
  DW_CFA_advance_loc1: 147 to 000000000046d554
  DW_CFA_restore: r3 (rbx)
  DW_CFA_advance_loc: 1 to 000000000046d555
  DW_CFA_restore: r15 (r15)
  DW_CFA_advance_loc: 2 to 000000000046d557
  DW_CFA_restore: r14 (r14)
  DW_CFA_advance_loc: 2 to 000000000046d559
  DW_CFA_restore: r13 (r13)
  DW_CFA_advance_loc: 2 to 000000000046d55b
  DW_CFA_restore: r12 (r12)
  DW_CFA_advance_loc: 3 to 000000000046d55e
  DW_CFA_restore: r6 (rbp)
  DW_CFA_advance_loc: 1 to 000000000046d55f
  DW_CFA_offset: r3 (rbx) at cfa-56
  DW_CFA_offset: r6 (rbp) at cfa-16
  DW_CFA_offset: r12 (r12) at cfa-24
  DW_CFA_offset: r13 (r13) at cfa-32
  DW_CFA_offset: r14 (r14) at cfa-40
  DW_CFA_offset: r15 (r15) at cfa-48
  DW_CFA_advance_loc: 27 to 000000000046d57a
  DW_CFA_restore: r3 (rbx)
  DW_CFA_advance_loc: 1 to 000000000046d57b
  DW_CFA_restore: r15 (r15)
  DW_CFA_advance_loc: 2 to 000000000046d57d
  DW_CFA_restore: r14 (r14)
  DW_CFA_advance_loc: 2 to 000000000046d57f
  DW_CFA_restore: r13 (r13)
  DW_CFA_advance_loc: 2 to 000000000046d581
  DW_CFA_restore: r12 (r12)
  DW_CFA_advance_loc: 3 to 000000000046d584
  DW_CFA_restore: r6 (rbp)
  DW_CFA_advance_loc: 1 to 000000000046d585
  DW_CFA_offset: r3 (rbx) at cfa-56
  DW_CFA_offset: r6 (rbp) at cfa-16
  DW_CFA_offset: r12 (r12) at cfa-24
  DW_CFA_offset: r13 (r13) at cfa-32
  DW_CFA_offset: r14 (r14) at cfa-40
  DW_CFA_offset: r15 (r15) at cfa-48
  DW_CFA_advance_loc1: 176 to 000000000046d635
  DW_CFA_restore: r3 (rbx)
  DW_CFA_advance_loc: 1 to 000000000046d636
  DW_CFA_restore: r15 (r15)
  DW_CFA_advance_loc: 2 to 000000000046d638
  DW_CFA_restore: r14 (r14)
  DW_CFA_advance_loc: 2 to 000000000046d63a
  DW_CFA_restore: r13 (r13)
  DW_CFA_advance_loc: 2 to 000000000046d63c
  DW_CFA_restore: r12 (r12)
  DW_CFA_advance_loc: 3 to 000000000046d63f
  DW_CFA_restore: r6 (rbp)
  DW_CFA_advance_loc: 1 to 000000000046d640
  DW_CFA_offset: r3 (rbx) at cfa-56
  DW_CFA_offset: r6 (rbp) at cfa-16
  DW_CFA_offset: r12 (r12) at cfa-24
  DW_CFA_offset: r13 (r13) at cfa-32
  DW_CFA_offset: r14 (r14) at cfa-40
  DW_CFA_offset: r15 (r15) at cfa-48
  DW_CFA_advance_loc1: 65 to 000000000046d681
  DW_CFA_restore: r3 (rbx)
  DW_CFA_advance_loc: 1 to 000000000046d682
  DW_CFA_restore: r15 (r15)
  DW_CFA_advance_loc: 2 to 000000000046d684
  DW_CFA_restore: r14 (r14)
  DW_CFA_advance_loc: 2 to 000000000046d686
  DW_CFA_restore: r13 (r13)
  DW_CFA_advance_loc: 2 to 000000000046d688
  DW_CFA_restore: r12 (r12)
  DW_CFA_advance_loc: 3 to 000000000046d68b
  DW_CFA_restore: r6 (rbp)
  DW_CFA_advance_loc: 1 to 000000000046d68c
  DW_CFA_offset: r3 (rbx) at cfa-56
  DW_CFA_offset: r6 (rbp) at cfa-16
  DW_CFA_offset: r12 (r12) at cfa-24
  DW_CFA_offset: r13 (r13) at cfa-32
  DW_CFA_offset: r14 (r14) at cfa-40
  DW_CFA_offset: r15 (r15) at cfa-48
  DW_CFA_nop
  DW_CFA_nop
  DW_CFA_nop
  DW_CFA_nop
  DW_CFA_nop

00003f48 0000000000000054 00003ea4 FDE cie=000000a8 pc=000000000046d6b0..000000000046db40
  DW_CFA_advance_loc: 1 to 000000000046d6b1
  DW_CFA_def_cfa_offset: 16
  DW_CFA_advance_loc: 3 to 000000000046d6b4
  DW_CFA_def_cfa: r6 (rbp) ofs 16
  DW_CFA_offset: r6 (rbp) at cfa-16
  DW_CFA_advance_loc: 16 to 000000000046d6c4
  DW_CFA_offset: r3 (rbx) at cfa-56
  DW_CFA_offset: r12 (r12) at cfa-24
  DW_CFA_offset: r13 (r13) at cfa-32
  DW_CFA_offset: r14 (r14) at cfa-40
  DW_CFA_offset: r15 (r15) at cfa-48
  DW_CFA_advance_loc2: 1104 to 000000000046db14
  DW_CFA_restore: r3 (rbx)
  DW_CFA_advance_loc: 1 to 000000000046db15
  DW_CFA_restore: r15 (r15)
  DW_CFA_advance_loc: 2 to 000000000046db17
  DW_CFA_restore: r14 (r14)
  DW_CFA_advance_loc: 2 to 000000000046db19
  DW_CFA_restore: r13 (r13)
  DW_CFA_advance_loc: 2 to 000000000046db1b
  DW_CFA_restore: r12 (r12)
  DW_CFA_advance_loc: 3 to 000000000046db1e
  DW_CFA_restore: r6 (rbp)
  DW_CFA_advance_loc: 1 to 000000000046db1f
  DW_CFA_offset: r3 (rbx) at cfa-56
  DW_CFA_offset: r6 (rbp) at cfa-16
  DW_CFA_offset: r12 (r12) at cfa-24
  DW_CFA_offset: r13 (r13) at cfa-32
  DW_CFA_offset: r14 (r14) at cfa-40
  DW_CFA_offset: r15 (r15) at cfa-48
  DW_CFA_advance_loc: 16 to 000000000046db2f
  DW_CFA_restore: r3 (rbx)
  DW_CFA_advance_loc: 1 to 000000000046db30
  DW_CFA_restore: r15 (r15)
  DW_CFA_advance_loc: 2 to 000000000046db32
  DW_CFA_restore: r14 (r14)
  DW_CFA_advance_loc: 2 to 000000000046db34
  DW_CFA_restore: r13 (r13)
  DW_CFA_advance_loc: 2 to 000000000046db36
  DW_CFA_restore: r12 (r12)
  DW_CFA_advance_loc: 3 to 000000000046db39
  DW_CFA_restore: r6 (rbp)
  DW_CFA_nop
  DW_CFA_nop
  DW_CFA_nop
  DW_CFA_nop
  DW_CFA_nop

00003fa0 0000000000000024 00003efc FDE cie=000000a8 pc=000000000046db40..000000000046de40
  DW_CFA_advance_loc: 1 to 000000000046db41
  DW_CFA_def_cfa_offset: 16
  DW_CFA_advance_loc: 3 to 000000000046db44
  DW_CFA_def_cfa: r6 (rbp) ofs 16
  DW_CFA_offset: r6 (rbp) at cfa-16
  DW_CFA_advance_loc2: 754 to 000000000046de36
  DW_CFA_restore: r6 (rbp)
  DW_CFA_advance_loc: 1 to 000000000046de37
  DW_CFA_offset: r6 (rbp) at cfa-16

00003fc8 000000000000007c 00003f24 FDE cie=000000a8 pc=000000000046de40..000000000046e540
  DW_CFA_advance_loc: 1 to 000000000046de41
  DW_CFA_def_cfa_offset: 16
  DW_CFA_advance_loc: 3 to 000000000046de44
  DW_CFA_def_cfa: r6 (rbp) ofs 16
  DW_CFA_offset: r6 (rbp) at cfa-16
  DW_CFA_advance_loc: 8 to 000000000046de4c
  DW_CFA_offset: r14 (r14) at cfa-24
  DW_CFA_offset: r15 (r15) at cfa-32
  DW_CFA_advance_loc2: 746 to 000000000046e136
  DW_CFA_restore: r15 (r15)
  DW_CFA_advance_loc: 2 to 000000000046e138
  DW_CFA_restore: r14 (r14)
  DW_CFA_advance_loc: 3 to 000000000046e13b
  DW_CFA_restore: r6 (rbp)
  DW_CFA_advance_loc: 1 to 000000000046e13c
  DW_CFA_offset: r6 (rbp) at cfa-16
  DW_CFA_offset: r14 (r14) at cfa-24
  DW_CFA_offset: r15 (r15) at cfa-32
  DW_CFA_advance_loc: 6 to 000000000046e142
  DW_CFA_restore: r15 (r15)
  DW_CFA_advance_loc: 2 to 000000000046e144
  DW_CFA_restore: r14 (r14)
  DW_CFA_advance_loc: 3 to 000000000046e147
  DW_CFA_restore: r6 (rbp)
  DW_CFA_advance_loc: 1 to 000000000046e148
  DW_CFA_offset: r6 (rbp) at cfa-16
  DW_CFA_offset: r14 (r14) at cfa-24
  DW_CFA_offset: r15 (r15) at cfa-32
  DW_CFA_advance_loc: 42 to 000000000046e172
  DW_CFA_restore: r15 (r15)
  DW_CFA_advance_loc: 2 to 000000000046e174
  DW_CFA_restore: r14 (r14)
  DW_CFA_advance_loc: 3 to 000000000046e177
  DW_CFA_restore: r6 (rbp)
  DW_CFA_advance_loc: 1 to 000000000046e178
  DW_CFA_offset: r6 (rbp) at cfa-16
  DW_CFA_offset: r14 (r14) at cfa-24
  DW_CFA_offset: r15 (r15) at cfa-32
  DW_CFA_advance_loc2: 850 to 000000000046e4ca
  DW_CFA_restore: r15 (r15)
  DW_CFA_advance_loc: 2 to 000000000046e4cc
  DW_CFA_restore: r14 (r14)
  DW_CFA_advance_loc: 3 to 000000000046e4cf
  DW_CFA_restore: r6 (rbp)
  DW_CFA_advance_loc: 1 to 000000000046e4d0
  DW_CFA_offset: r6 (rbp) at cfa-16
  DW_CFA_offset: r14 (r14) at cfa-24
  DW_CFA_offset: r15 (r15) at cfa-32
  DW_CFA_advance_loc: 31 to 000000000046e4ef
  DW_CFA_restore: r15 (r15)
  DW_CFA_advance_loc: 2 to 000000000046e4f1
  DW_CFA_restore: r14 (r14)
  DW_CFA_advance_loc: 3 to 000000000046e4f4
  DW_CFA_restore: r6 (rbp)
  DW_CFA_advance_loc: 5 to 000000000046e4f9
  DW_CFA_offset: r6 (rbp) at cfa-16
  DW_CFA_offset: r14 (r14) at cfa-24
  DW_CFA_offset: r15 (r15) at cfa-32
  DW_CFA_advance_loc: 19 to 000000000046e50c
  DW_CFA_restore: r15 (r15)
  DW_CFA_advance_loc: 2 to 000000000046e50e
  DW_CFA_restore: r14 (r14)
  DW_CFA_advance_loc: 3 to 000000000046e511
  DW_CFA_restore: r6 (rbp)
  DW_CFA_advance_loc: 5 to 000000000046e516
  DW_CFA_offset: r6 (rbp) at cfa-16
  DW_CFA_offset: r14 (r14) at cfa-24
  DW_CFA_offset: r15 (r15) at cfa-32
  DW_CFA_advance_loc: 24 to 000000000046e52e
  DW_CFA_restore: r15 (r15)
  DW_CFA_advance_loc: 2 to 000000000046e530
  DW_CFA_restore: r14 (r14)
  DW_CFA_advance_loc: 3 to 000000000046e533
  DW_CFA_restore: r6 (rbp)
  DW_CFA_nop
  DW_CFA_nop

00004048 0000000000000044 00003fa4 FDE cie=000000a8 pc=000000000046e540..000000000046ebb0
  DW_CFA_advance_loc: 1 to 000000000046e541
  DW_CFA_def_cfa_offset: 16
  DW_CFA_advance_loc: 3 to 000000000046e544
  DW_CFA_def_cfa: r6 (rbp) ofs 16
  DW_CFA_offset: r6 (rbp) at cfa-16
  DW_CFA_advance_loc: 13 to 000000000046e551
  DW_CFA_offset: r3 (rbx) at cfa-56
  DW_CFA_offset: r12 (r12) at cfa-24
  DW_CFA_offset: r13 (r13) at cfa-32
  DW_CFA_offset: r14 (r14) at cfa-40
  DW_CFA_offset: r15 (r15) at cfa-48
  DW_CFA_advance_loc2: 1043 to 000000000046e964
  DW_CFA_restore: r3 (rbx)
  DW_CFA_advance_loc: 1 to 000000000046e965
  DW_CFA_restore: r15 (r15)
  DW_CFA_advance_loc: 2 to 000000000046e967
  DW_CFA_restore: r14 (r14)
  DW_CFA_advance_loc: 2 to 000000000046e969
  DW_CFA_restore: r13 (r13)
  DW_CFA_advance_loc: 2 to 000000000046e96b
  DW_CFA_restore: r12 (r12)
  DW_CFA_advance_loc: 3 to 000000000046e96e
  DW_CFA_restore: r6 (rbp)
  DW_CFA_advance_loc: 1 to 000000000046e96f
  DW_CFA_offset: r3 (rbx) at cfa-56
  DW_CFA_offset: r6 (rbp) at cfa-16
  DW_CFA_offset: r12 (r12) at cfa-24
  DW_CFA_offset: r13 (r13) at cfa-32
  DW_CFA_offset: r14 (r14) at cfa-40
  DW_CFA_offset: r15 (r15) at cfa-48
  DW_CFA_nop

00004090 00000000000000a4 00003fec FDE cie=000000a8 pc=000000000046ebb0..000000000046fc60
  DW_CFA_advance_loc: 1 to 000000000046ebb1
  DW_CFA_def_cfa_offset: 16
  DW_CFA_advance_loc: 3 to 000000000046ebb4
  DW_CFA_def_cfa: r6 (rbp) ofs 16
  DW_CFA_offset: r6 (rbp) at cfa-16
  DW_CFA_advance_loc: 12 to 000000000046ebc0
  DW_CFA_offset: r12 (r12) at cfa-24
  DW_CFA_offset: r13 (r13) at cfa-32
  DW_CFA_offset: r14 (r14) at cfa-40
  DW_CFA_offset: r15 (r15) at cfa-48
  DW_CFA_advance_loc2: 2835 to 000000000046f6d3
  DW_CFA_restore: r15 (r15)
  DW_CFA_advance_loc: 2 to 000000000046f6d5
  DW_CFA_restore: r14 (r14)
  DW_CFA_advance_loc: 2 to 000000000046f6d7
  DW_CFA_restore: r13 (r13)
  DW_CFA_advance_loc: 2 to 000000000046f6d9
  DW_CFA_restore: r12 (r12)
  DW_CFA_advance_loc: 3 to 000000000046f6dc
  DW_CFA_restore: r6 (rbp)
  DW_CFA_advance_loc: 1 to 000000000046f6dd
  DW_CFA_offset: r6 (rbp) at cfa-16
  DW_CFA_offset: r12 (r12) at cfa-24
  DW_CFA_offset: r13 (r13) at cfa-32
  DW_CFA_offset: r14 (r14) at cfa-40
  DW_CFA_offset: r15 (r15) at cfa-48
  DW_CFA_advance_loc: 6 to 000000000046f6e3
  DW_CFA_restore: r15 (r15)
  DW_CFA_advance_loc: 2 to 000000000046f6e5
  DW_CFA_restore: r14 (r14)
  DW_CFA_advance_loc: 2 to 000000000046f6e7
  DW_CFA_restore: r13 (r13)
  DW_CFA_advance_loc: 2 to 000000000046f6e9
  DW_CFA_restore: r12 (r12)
  DW_CFA_advance_loc: 3 to 000000000046f6ec
  DW_CFA_restore: r6 (rbp)
  DW_CFA_advance_loc: 1 to 000000000046f6ed
  DW_CFA_offset: r6 (rbp) at cfa-16
  DW_CFA_offset: r12 (r12) at cfa-24
  DW_CFA_offset: r13 (r13) at cfa-32
  DW_CFA_offset: r14 (r14) at cfa-40
  DW_CFA_offset: r15 (r15) at cfa-48
  DW_CFA_advance_loc2: 1256 to 000000000046fbd5
  DW_CFA_restore: r15 (r15)
  DW_CFA_advance_loc: 2 to 000000000046fbd7
  DW_CFA_restore: r14 (r14)
  DW_CFA_advance_loc: 2 to 000000000046fbd9
  DW_CFA_restore: r13 (r13)
  DW_CFA_advance_loc: 2 to 000000000046fbdb
  DW_CFA_restore: r12 (r12)
  DW_CFA_advance_loc: 3 to 000000000046fbde
  DW_CFA_restore: r6 (rbp)
  DW_CFA_advance_loc: 1 to 000000000046fbdf
  DW_CFA_offset: r6 (rbp) at cfa-16
  DW_CFA_offset: r12 (r12) at cfa-24
  DW_CFA_offset: r13 (r13) at cfa-32
  DW_CFA_offset: r14 (r14) at cfa-40
  DW_CFA_offset: r15 (r15) at cfa-48
  DW_CFA_advance_loc: 36 to 000000000046fc03
  DW_CFA_restore: r15 (r15)
  DW_CFA_advance_loc: 2 to 000000000046fc05
  DW_CFA_restore: r14 (r14)
  DW_CFA_advance_loc: 2 to 000000000046fc07
  DW_CFA_restore: r13 (r13)
  DW_CFA_advance_loc: 2 to 000000000046fc09
  DW_CFA_restore: r12 (r12)
  DW_CFA_advance_loc: 3 to 000000000046fc0c
  DW_CFA_restore: r6 (rbp)
  DW_CFA_advance_loc: 1 to 000000000046fc0d
  DW_CFA_offset: r6 (rbp) at cfa-16
  DW_CFA_offset: r12 (r12) at cfa-24
  DW_CFA_offset: r13 (r13) at cfa-32
  DW_CFA_offset: r14 (r14) at cfa-40
  DW_CFA_offset: r15 (r15) at cfa-48
  DW_CFA_advance_loc: 24 to 000000000046fc25
  DW_CFA_restore: r15 (r15)
  DW_CFA_advance_loc: 2 to 000000000046fc27
  DW_CFA_restore: r14 (r14)
  DW_CFA_advance_loc: 2 to 000000000046fc29
  DW_CFA_restore: r13 (r13)
  DW_CFA_advance_loc: 2 to 000000000046fc2b
  DW_CFA_restore: r12 (r12)
  DW_CFA_advance_loc: 3 to 000000000046fc2e
  DW_CFA_restore: r6 (rbp)
  DW_CFA_advance_loc: 1 to 000000000046fc2f
  DW_CFA_offset: r6 (rbp) at cfa-16
  DW_CFA_offset: r12 (r12) at cfa-24
  DW_CFA_offset: r13 (r13) at cfa-32
  DW_CFA_offset: r14 (r14) at cfa-40
  DW_CFA_offset: r15 (r15) at cfa-48
  DW_CFA_advance_loc: 24 to 000000000046fc47
  DW_CFA_restore: r15 (r15)
  DW_CFA_advance_loc: 2 to 000000000046fc49
  DW_CFA_restore: r14 (r14)
  DW_CFA_advance_loc: 2 to 000000000046fc4b
  DW_CFA_restore: r13 (r13)
  DW_CFA_advance_loc: 2 to 000000000046fc4d
  DW_CFA_restore: r12 (r12)
  DW_CFA_advance_loc: 3 to 000000000046fc50
  DW_CFA_restore: r6 (rbp)
  DW_CFA_nop
  DW_CFA_nop
  DW_CFA_nop
  DW_CFA_nop
  DW_CFA_nop
  DW_CFA_nop
  DW_CFA_nop

00004138 000000000000005c 00004094 FDE cie=000000a8 pc=000000000046fc60..000000000046fef0
  DW_CFA_advance_loc: 1 to 000000000046fc61
  DW_CFA_def_cfa_offset: 16
  DW_CFA_advance_loc: 3 to 000000000046fc64
  DW_CFA_def_cfa: r6 (rbp) ofs 16
  DW_CFA_offset: r6 (rbp) at cfa-16
  DW_CFA_advance_loc: 8 to 000000000046fc6c
  DW_CFA_offset: r14 (r14) at cfa-24
  DW_CFA_offset: r15 (r15) at cfa-32
  DW_CFA_advance_loc2: 277 to 000000000046fd81
  DW_CFA_restore: r15 (r15)
  DW_CFA_advance_loc: 2 to 000000000046fd83
  DW_CFA_restore: r14 (r14)
  DW_CFA_advance_loc: 3 to 000000000046fd86
  DW_CFA_restore: r6 (rbp)
  DW_CFA_advance_loc: 1 to 000000000046fd87
  DW_CFA_offset: r6 (rbp) at cfa-16
  DW_CFA_offset: r14 (r14) at cfa-24
  DW_CFA_offset: r15 (r15) at cfa-32
  DW_CFA_advance_loc1: 109 to 000000000046fdf4
  DW_CFA_offset: r12 (r12) at cfa-40
  DW_CFA_advance_loc: 7 to 000000000046fdfb
  DW_CFA_offset: r13 (r13) at cfa-48
  DW_CFA_advance_loc: 7 to 000000000046fe02
  DW_CFA_offset: r3 (rbx) at cfa-56
  DW_CFA_advance_loc: 42 to 000000000046fe2c
  DW_CFA_restore: r12 (r12)
  DW_CFA_advance_loc: 4 to 000000000046fe30
  DW_CFA_restore: r13 (r13)
  DW_CFA_advance_loc: 4 to 000000000046fe34
  DW_CFA_restore: r3 (rbx)
  DW_CFA_advance_loc: 2 to 000000000046fe36
  DW_CFA_offset: r3 (rbx) at cfa-56
  DW_CFA_offset: r12 (r12) at cfa-40
  DW_CFA_offset: r13 (r13) at cfa-48
  DW_CFA_advance_loc: 50 to 000000000046fe68
  DW_CFA_restore: r12 (r12)
  DW_CFA_advance_loc: 4 to 000000000046fe6c
  DW_CFA_restore: r13 (r13)
  DW_CFA_advance_loc: 4 to 000000000046fe70
  DW_CFA_restore: r3 (rbx)
  DW_CFA_advance_loc1: 107 to 000000000046fedb
  DW_CFA_restore: r15 (r15)
  DW_CFA_advance_loc: 2 to 000000000046fedd
  DW_CFA_restore: r14 (r14)
  DW_CFA_advance_loc: 3 to 000000000046fee0
  DW_CFA_restore: r6 (rbp)
  DW_CFA_nop
  DW_CFA_nop
  DW_CFA_nop
  DW_CFA_nop
  DW_CFA_nop
  DW_CFA_nop
  DW_CFA_nop

00004198 0000000000000054 000040f4 FDE cie=000000a8 pc=000000000046fef0..0000000000470160
  DW_CFA_advance_loc: 1 to 000000000046fef1
  DW_CFA_def_cfa_offset: 16
  DW_CFA_advance_loc: 3 to 000000000046fef4
  DW_CFA_def_cfa: r6 (rbp) ofs 16
  DW_CFA_offset: r6 (rbp) at cfa-16
  DW_CFA_advance_loc: 13 to 000000000046ff01
  DW_CFA_offset: r3 (rbx) at cfa-56
  DW_CFA_offset: r12 (r12) at cfa-24
  DW_CFA_offset: r13 (r13) at cfa-32
  DW_CFA_offset: r14 (r14) at cfa-40
  DW_CFA_offset: r15 (r15) at cfa-48
  DW_CFA_advance_loc2: 420 to 00000000004700a5
  DW_CFA_restore: r3 (rbx)
  DW_CFA_advance_loc: 1 to 00000000004700a6
  DW_CFA_restore: r15 (r15)
  DW_CFA_advance_loc: 2 to 00000000004700a8
  DW_CFA_restore: r14 (r14)
  DW_CFA_advance_loc: 2 to 00000000004700aa
  DW_CFA_restore: r13 (r13)
  DW_CFA_advance_loc: 2 to 00000000004700ac
  DW_CFA_restore: r12 (r12)
  DW_CFA_advance_loc: 3 to 00000000004700af
  DW_CFA_restore: r6 (rbp)
  DW_CFA_advance_loc: 1 to 00000000004700b0
  DW_CFA_offset: r3 (rbx) at cfa-56
  DW_CFA_offset: r6 (rbp) at cfa-16
  DW_CFA_offset: r12 (r12) at cfa-24
  DW_CFA_offset: r13 (r13) at cfa-32
  DW_CFA_offset: r14 (r14) at cfa-40
  DW_CFA_offset: r15 (r15) at cfa-48
  DW_CFA_advance_loc1: 155 to 000000000047014b
  DW_CFA_restore: r3 (rbx)
  DW_CFA_advance_loc: 1 to 000000000047014c
  DW_CFA_restore: r15 (r15)
  DW_CFA_advance_loc: 2 to 000000000047014e
  DW_CFA_restore: r14 (r14)
  DW_CFA_advance_loc: 2 to 0000000000470150
  DW_CFA_restore: r13 (r13)
  DW_CFA_advance_loc: 2 to 0000000000470152
  DW_CFA_restore: r12 (r12)
  DW_CFA_advance_loc: 3 to 0000000000470155
  DW_CFA_restore: r6 (rbp)
  DW_CFA_nop
  DW_CFA_nop
  DW_CFA_nop
  DW_CFA_nop

000041f0 0000000000000024 0000414c FDE cie=000000a8 pc=0000000000470160..0000000000470180
  DW_CFA_advance_loc: 1 to 0000000000470161
  DW_CFA_def_cfa_offset: 16
  DW_CFA_advance_loc: 3 to 0000000000470164
  DW_CFA_def_cfa: r6 (rbp) ofs 16
  DW_CFA_offset: r6 (rbp) at cfa-16
  DW_CFA_advance_loc: 23 to 000000000047017b
  DW_CFA_restore: r6 (rbp)
  DW_CFA_nop
  DW_CFA_nop
  DW_CFA_nop
  DW_CFA_nop
  DW_CFA_nop

00004218 0000000000000034 00004174 FDE cie=000000a8 pc=0000000000470180..0000000000470300
  DW_CFA_advance_loc: 1 to 0000000000470181
  DW_CFA_def_cfa_offset: 16
  DW_CFA_advance_loc: 3 to 0000000000470184
  DW_CFA_def_cfa: r6 (rbp) ofs 16
  DW_CFA_offset: r6 (rbp) at cfa-16
  DW_CFA_advance_loc1: 67 to 00000000004701c7
  DW_CFA_offset: r12 (r12) at cfa-304
  DW_CFA_advance_loc1: 124 to 0000000000470243
  DW_CFA_restore: r12 (r12)
  DW_CFA_offset: r12 (r12) at cfa-304
  DW_CFA_advance_loc: 7 to 000000000047024a
  DW_CFA_restore: r12 (r12)
  DW_CFA_advance_loc1: 73 to 0000000000470293
  DW_CFA_restore: r6 (rbp)
  DW_CFA_advance_loc: 1 to 0000000000470294
  DW_CFA_offset: r6 (rbp) at cfa-16
  DW_CFA_nop
  DW_CFA_nop
  DW_CFA_nop
  DW_CFA_nop
  DW_CFA_nop
  DW_CFA_nop

00004250 0000000000000034 000041ac FDE cie=000000a8 pc=0000000000470300..0000000000470360
  DW_CFA_advance_loc: 1 to 0000000000470301
  DW_CFA_def_cfa_offset: 16
  DW_CFA_advance_loc: 3 to 0000000000470304
  DW_CFA_def_cfa: r6 (rbp) ofs 16
  DW_CFA_offset: r6 (rbp) at cfa-16
  DW_CFA_advance_loc: 34 to 0000000000470326
  DW_CFA_offset: r12 (r12) at cfa-24
  DW_CFA_offset: r13 (r13) at cfa-32
  DW_CFA_offset: r14 (r14) at cfa-40
  DW_CFA_offset: r15 (r15) at cfa-48
  DW_CFA_advance_loc: 42 to 0000000000470350
  DW_CFA_restore: r15 (r15)
  DW_CFA_advance_loc: 2 to 0000000000470352
  DW_CFA_restore: r14 (r14)
  DW_CFA_advance_loc: 2 to 0000000000470354
  DW_CFA_restore: r13 (r13)
  DW_CFA_advance_loc: 2 to 0000000000470356
  DW_CFA_restore: r12 (r12)
  DW_CFA_advance_loc: 3 to 0000000000470359
  DW_CFA_restore: r6 (rbp)
  DW_CFA_nop
  DW_CFA_nop
  DW_CFA_nop
  DW_CFA_nop

00004288 0000000000000014 000041e4 FDE cie=000000a8 pc=0000000000470360..0000000000470370

000042a0 0000000000000024 000041fc FDE cie=000000a8 pc=0000000000470370..0000000000470390
  DW_CFA_advance_loc: 1 to 0000000000470371
  DW_CFA_def_cfa_offset: 16
  DW_CFA_advance_loc: 3 to 0000000000470374
  DW_CFA_def_cfa: r6 (rbp) ofs 16
  DW_CFA_offset: r6 (rbp) at cfa-16
  DW_CFA_advance_loc: 19 to 0000000000470387
  DW_CFA_restore: r6 (rbp)
  DW_CFA_nop
  DW_CFA_nop
  DW_CFA_nop
  DW_CFA_nop
  DW_CFA_nop

000042c8 0000000000000024 00004224 FDE cie=000000a8 pc=0000000000470390..00000000004703b0
  DW_CFA_advance_loc: 1 to 0000000000470391
  DW_CFA_def_cfa_offset: 16
  DW_CFA_advance_loc: 3 to 0000000000470394
  DW_CFA_def_cfa: r6 (rbp) ofs 16
  DW_CFA_offset: r6 (rbp) at cfa-16
  DW_CFA_advance_loc: 9 to 000000000047039d
  DW_CFA_restore: r6 (rbp)
  DW_CFA_advance_loc: 5 to 00000000004703a2
  DW_CFA_offset: r6 (rbp) at cfa-16
  DW_CFA_advance_loc: 4 to 00000000004703a6
  DW_CFA_restore: r6 (rbp)

000042f0 0000000000000044 0000424c FDE cie=000000a8 pc=00000000004703b0..00000000004705f0
  DW_CFA_advance_loc: 1 to 00000000004703b1
  DW_CFA_def_cfa_offset: 16
  DW_CFA_advance_loc: 3 to 00000000004703b4
  DW_CFA_def_cfa: r6 (rbp) ofs 16
  DW_CFA_offset: r6 (rbp) at cfa-16
  DW_CFA_advance_loc: 8 to 00000000004703bc
  DW_CFA_offset: r3 (rbx) at cfa-24
  DW_CFA_advance_loc1: 68 to 0000000000470400
  DW_CFA_offset: r12 (r12) at cfa-40
  DW_CFA_advance_loc1: 121 to 0000000000470479
  DW_CFA_restore: r12 (r12)
  DW_CFA_offset: r12 (r12) at cfa-40
  DW_CFA_advance_loc: 7 to 0000000000470480
  DW_CFA_restore: r12 (r12)
  DW_CFA_advance_loc1: 102 to 00000000004704e6
  DW_CFA_restore: r3 (rbx)
  DW_CFA_advance_loc: 2 to 00000000004704e8
  DW_CFA_restore: r6 (rbp)
  DW_CFA_advance_loc: 1 to 00000000004704e9
  DW_CFA_offset: r3 (rbx) at cfa-24
  DW_CFA_offset: r6 (rbp) at cfa-16
  DW_CFA_advance_loc: 35 to 000000000047050c
  DW_CFA_restore: r3 (rbx)
  DW_CFA_advance_loc: 2 to 000000000047050e
  DW_CFA_restore: r6 (rbp)
  DW_CFA_advance_loc: 1 to 000000000047050f
  DW_CFA_offset: r3 (rbx) at cfa-24
  DW_CFA_offset: r6 (rbp) at cfa-16
  DW_CFA_nop
  DW_CFA_nop
  DW_CFA_nop
  DW_CFA_nop
  DW_CFA_nop
  DW_CFA_nop

00004338 0000000000000024 00004294 FDE cie=000000a8 pc=00000000004705f0..0000000000470610
  DW_CFA_advance_loc: 1 to 00000000004705f1
  DW_CFA_def_cfa_offset: 16
  DW_CFA_advance_loc: 3 to 00000000004705f4
  DW_CFA_def_cfa: r6 (rbp) ofs 16
  DW_CFA_offset: r6 (rbp) at cfa-16
  DW_CFA_advance_loc: 14 to 0000000000470602
  DW_CFA_restore: r6 (rbp)
  DW_CFA_nop
  DW_CFA_nop
  DW_CFA_nop
  DW_CFA_nop
  DW_CFA_nop

00004360 0000000000000044 000042bc FDE cie=000000a8 pc=0000000000470610..0000000000470870
  DW_CFA_advance_loc: 1 to 0000000000470611
  DW_CFA_def_cfa_offset: 16
  DW_CFA_advance_loc: 3 to 0000000000470614
  DW_CFA_def_cfa: r6 (rbp) ofs 16
  DW_CFA_offset: r6 (rbp) at cfa-16
  DW_CFA_advance_loc: 9 to 000000000047061d
  DW_CFA_offset: r13 (r13) at cfa-24
  DW_CFA_advance_loc1: 68 to 0000000000470661
  DW_CFA_offset: r12 (r12) at cfa-40
  DW_CFA_advance_loc1: 121 to 00000000004706da
  DW_CFA_restore: r12 (r12)
  DW_CFA_offset: r12 (r12) at cfa-40
  DW_CFA_advance_loc: 7 to 00000000004706e1
  DW_CFA_restore: r12 (r12)
  DW_CFA_advance_loc1: 116 to 0000000000470755
  DW_CFA_restore: r13 (r13)
  DW_CFA_advance_loc: 3 to 0000000000470758
  DW_CFA_restore: r6 (rbp)
  DW_CFA_advance_loc: 1 to 0000000000470759
  DW_CFA_offset: r6 (rbp) at cfa-16
  DW_CFA_offset: r13 (r13) at cfa-24
  DW_CFA_advance_loc: 53 to 000000000047078e
  DW_CFA_restore: r13 (r13)
  DW_CFA_advance_loc: 3 to 0000000000470791
  DW_CFA_restore: r6 (rbp)
  DW_CFA_advance_loc: 1 to 0000000000470792
  DW_CFA_offset: r6 (rbp) at cfa-16
  DW_CFA_offset: r13 (r13) at cfa-24
  DW_CFA_nop
  DW_CFA_nop
  DW_CFA_nop
  DW_CFA_nop
  DW_CFA_nop
  DW_CFA_nop

000043a8 0000000000000024 00004304 FDE cie=000000a8 pc=0000000000470870..0000000000470890
  DW_CFA_advance_loc: 1 to 0000000000470871
  DW_CFA_def_cfa_offset: 16
  DW_CFA_advance_loc: 3 to 0000000000470874
  DW_CFA_def_cfa: r6 (rbp) ofs 16
  DW_CFA_offset: r6 (rbp) at cfa-16
  DW_CFA_advance_loc: 14 to 0000000000470882
  DW_CFA_restore: r6 (rbp)
  DW_CFA_nop
  DW_CFA_nop
  DW_CFA_nop
  DW_CFA_nop
  DW_CFA_nop

000043d0 0000000000000024 0000432c FDE cie=000000a8 pc=0000000000470890..00000000004708b0
  DW_CFA_advance_loc: 1 to 0000000000470891
  DW_CFA_def_cfa_offset: 16
  DW_CFA_advance_loc: 3 to 0000000000470894
  DW_CFA_def_cfa: r6 (rbp) ofs 16
  DW_CFA_offset: r6 (rbp) at cfa-16
  DW_CFA_advance_loc: 15 to 00000000004708a3
  DW_CFA_restore: r6 (rbp)
  DW_CFA_nop
  DW_CFA_nop
  DW_CFA_nop
  DW_CFA_nop
  DW_CFA_nop

000043f8 000000000000002c 00004354 FDE cie=000000a8 pc=00000000004708b0..0000000000470960
  DW_CFA_advance_loc: 1 to 00000000004708b1
  DW_CFA_def_cfa_offset: 16
  DW_CFA_advance_loc: 3 to 00000000004708b4
  DW_CFA_def_cfa: r6 (rbp) ofs 16
  DW_CFA_offset: r6 (rbp) at cfa-16
  DW_CFA_advance_loc: 15 to 00000000004708c3
  DW_CFA_offset: r12 (r12) at cfa-24
  DW_CFA_offset: r13 (r13) at cfa-32
  DW_CFA_advance_loc1: 143 to 0000000000470952
  DW_CFA_restore: r13 (r13)
  DW_CFA_advance_loc: 2 to 0000000000470954
  DW_CFA_restore: r12 (r12)
  DW_CFA_advance_loc: 3 to 0000000000470957
  DW_CFA_restore: r6 (rbp)
  DW_CFA_nop
  DW_CFA_nop
  DW_CFA_nop

00004428 0000000000000024 00004384 FDE cie=000000a8 pc=0000000000470960..0000000000470980
  DW_CFA_advance_loc: 1 to 0000000000470961
  DW_CFA_def_cfa_offset: 16
  DW_CFA_advance_loc: 3 to 0000000000470964
  DW_CFA_def_cfa: r6 (rbp) ofs 16
  DW_CFA_offset: r6 (rbp) at cfa-16
  DW_CFA_advance_loc: 14 to 0000000000470972
  DW_CFA_restore: r6 (rbp)
  DW_CFA_nop
  DW_CFA_nop
  DW_CFA_nop
  DW_CFA_nop
  DW_CFA_nop

00004450 000000000000003c 000043ac FDE cie=000000a8 pc=0000000000470980..0000000000470b00
  DW_CFA_advance_loc: 1 to 0000000000470981
  DW_CFA_def_cfa_offset: 16
  DW_CFA_advance_loc: 3 to 0000000000470984
  DW_CFA_def_cfa: r6 (rbp) ofs 16
  DW_CFA_offset: r6 (rbp) at cfa-16
  DW_CFA_advance_loc: 10 to 000000000047098e
  DW_CFA_offset: r3 (rbx) at cfa-32
  DW_CFA_offset: r15 (r15) at cfa-24
  DW_CFA_advance_loc: 58 to 00000000004709c8
  DW_CFA_offset: r12 (r12) at cfa-320
  DW_CFA_advance_loc1: 122 to 0000000000470a42
  DW_CFA_restore: r12 (r12)
  DW_CFA_offset: r12 (r12) at cfa-320
  DW_CFA_advance_loc: 7 to 0000000000470a49
  DW_CFA_restore: r12 (r12)
  DW_CFA_advance_loc: 61 to 0000000000470a86
  DW_CFA_restore: r3 (rbx)
  DW_CFA_advance_loc: 1 to 0000000000470a87
  DW_CFA_restore: r15 (r15)
  DW_CFA_advance_loc: 3 to 0000000000470a8a
  DW_CFA_restore: r6 (rbp)
  DW_CFA_advance_loc: 1 to 0000000000470a8b
  DW_CFA_offset: r3 (rbx) at cfa-32
  DW_CFA_offset: r6 (rbp) at cfa-16
  DW_CFA_offset: r15 (r15) at cfa-24
  DW_CFA_nop
  DW_CFA_nop
  DW_CFA_nop

00004490 0000000000000034 000043ec FDE cie=000000a8 pc=0000000000470b00..0000000000470c80
  DW_CFA_advance_loc: 1 to 0000000000470b01
  DW_CFA_def_cfa_offset: 16
  DW_CFA_advance_loc: 3 to 0000000000470b04
  DW_CFA_def_cfa: r6 (rbp) ofs 16
  DW_CFA_offset: r6 (rbp) at cfa-16
  DW_CFA_advance_loc1: 67 to 0000000000470b47
  DW_CFA_offset: r12 (r12) at cfa-304
  DW_CFA_advance_loc1: 124 to 0000000000470bc3
  DW_CFA_restore: r12 (r12)
  DW_CFA_offset: r12 (r12) at cfa-304
  DW_CFA_advance_loc: 7 to 0000000000470bca
  DW_CFA_restore: r12 (r12)
  DW_CFA_advance_loc1: 73 to 0000000000470c13
  DW_CFA_restore: r6 (rbp)
  DW_CFA_advance_loc: 1 to 0000000000470c14
  DW_CFA_offset: r6 (rbp) at cfa-16
  DW_CFA_nop
  DW_CFA_nop
  DW_CFA_nop
  DW_CFA_nop
  DW_CFA_nop
  DW_CFA_nop

000044c8 000000000000003c 00004424 FDE cie=000000a8 pc=0000000000470c80..0000000000470d40
  DW_CFA_advance_loc: 1 to 0000000000470c81
  DW_CFA_def_cfa_offset: 16
  DW_CFA_advance_loc: 3 to 0000000000470c84
  DW_CFA_def_cfa: r6 (rbp) ofs 16
  DW_CFA_offset: r6 (rbp) at cfa-16
  DW_CFA_advance_loc: 20 to 0000000000470c98
  DW_CFA_offset: r3 (rbx) at cfa-64
  DW_CFA_offset: r12 (r12) at cfa-24
  DW_CFA_offset: r13 (r13) at cfa-32
  DW_CFA_offset: r14 (r14) at cfa-40
  DW_CFA_offset: r15 (r15) at cfa-48
  DW_CFA_advance_loc1: 101 to 0000000000470cfd
  DW_CFA_restore: r3 (rbx)
  DW_CFA_advance_loc: 4 to 0000000000470d01
  DW_CFA_offset: r3 (rbx) at cfa-64
  DW_CFA_advance_loc: 48 to 0000000000470d31
  DW_CFA_restore: r15 (r15)
  DW_CFA_advance_loc: 2 to 0000000000470d33
  DW_CFA_restore: r14 (r14)
  DW_CFA_advance_loc: 2 to 0000000000470d35
  DW_CFA_restore: r13 (r13)
  DW_CFA_advance_loc: 2 to 0000000000470d37
  DW_CFA_restore: r12 (r12)
  DW_CFA_advance_loc: 3 to 0000000000470d3a
  DW_CFA_restore: r6 (rbp)
  DW_CFA_nop
  DW_CFA_nop
  DW_CFA_nop
  DW_CFA_nop

00004508 0000000000000024 00004464 FDE cie=000000a8 pc=0000000000470d40..0000000000470d70
  DW_CFA_advance_loc: 1 to 0000000000470d41
  DW_CFA_def_cfa_offset: 16
  DW_CFA_advance_loc: 3 to 0000000000470d44
  DW_CFA_def_cfa: r6 (rbp) ofs 16
  DW_CFA_offset: r6 (rbp) at cfa-16
  DW_CFA_advance_loc: 30 to 0000000000470d62
  DW_CFA_restore: r6 (rbp)
  DW_CFA_nop
  DW_CFA_nop
  DW_CFA_nop
  DW_CFA_nop
  DW_CFA_nop

00004530 0000000000000024 0000448c FDE cie=000000a8 pc=0000000000470d70..0000000000470d90
  DW_CFA_advance_loc: 1 to 0000000000470d71
  DW_CFA_def_cfa_offset: 16
  DW_CFA_advance_loc: 3 to 0000000000470d74
  DW_CFA_def_cfa: r6 (rbp) ofs 16
  DW_CFA_offset: r6 (rbp) at cfa-16
  DW_CFA_advance_loc: 19 to 0000000000470d87
  DW_CFA_restore: r6 (rbp)
  DW_CFA_nop
  DW_CFA_nop
  DW_CFA_nop
  DW_CFA_nop
  DW_CFA_nop

00004558 0000000000000034 000044b4 FDE cie=000000a8 pc=0000000000470d90..0000000000470e30
  DW_CFA_advance_loc: 1 to 0000000000470d91
  DW_CFA_def_cfa_offset: 16
  DW_CFA_advance_loc: 3 to 0000000000470d94
  DW_CFA_def_cfa: r6 (rbp) ofs 16
  DW_CFA_offset: r6 (rbp) at cfa-16
  DW_CFA_advance_loc: 5 to 0000000000470d99
  DW_CFA_offset: r3 (rbx) at cfa-24
  DW_CFA_advance_loc1: 129 to 0000000000470e1a
  DW_CFA_restore: r3 (rbx)
  DW_CFA_advance_loc: 2 to 0000000000470e1c
  DW_CFA_restore: r6 (rbp)
  DW_CFA_advance_loc: 1 to 0000000000470e1d
  DW_CFA_offset: r3 (rbx) at cfa-24
  DW_CFA_offset: r6 (rbp) at cfa-16
  DW_CFA_advance_loc: 8 to 0000000000470e25
  DW_CFA_restore: r3 (rbx)
  DW_CFA_advance_loc: 2 to 0000000000470e27
  DW_CFA_restore: r6 (rbp)
  DW_CFA_nop
  DW_CFA_nop
  DW_CFA_nop
  DW_CFA_nop
  DW_CFA_nop
  DW_CFA_nop

00004590 0000000000000034 000044ec FDE cie=000000a8 pc=0000000000470e30..0000000000470ed0
  DW_CFA_advance_loc: 1 to 0000000000470e31
  DW_CFA_def_cfa_offset: 16
  DW_CFA_advance_loc: 3 to 0000000000470e34
  DW_CFA_def_cfa: r6 (rbp) ofs 16
  DW_CFA_offset: r6 (rbp) at cfa-16
  DW_CFA_advance_loc: 6 to 0000000000470e3a
  DW_CFA_offset: r13 (r13) at cfa-24
  DW_CFA_advance_loc1: 120 to 0000000000470eb2
  DW_CFA_restore: r13 (r13)
  DW_CFA_advance_loc: 3 to 0000000000470eb5
  DW_CFA_restore: r6 (rbp)
  DW_CFA_advance_loc: 1 to 0000000000470eb6
  DW_CFA_offset: r6 (rbp) at cfa-16
  DW_CFA_offset: r13 (r13) at cfa-24
  DW_CFA_advance_loc: 8 to 0000000000470ebe
  DW_CFA_restore: r13 (r13)
  DW_CFA_advance_loc: 3 to 0000000000470ec1
  DW_CFA_restore: r6 (rbp)
  DW_CFA_nop
  DW_CFA_nop
  DW_CFA_nop
  DW_CFA_nop
  DW_CFA_nop
  DW_CFA_nop

000045c8 0000000000000034 00004524 FDE cie=000000a8 pc=0000000000470ed0..0000000000470fd0
  DW_CFA_advance_loc: 1 to 0000000000470ed1
  DW_CFA_def_cfa_offset: 16
  DW_CFA_advance_loc: 3 to 0000000000470ed4
  DW_CFA_def_cfa: r6 (rbp) ofs 16
  DW_CFA_offset: r6 (rbp) at cfa-16
  DW_CFA_advance_loc: 11 to 0000000000470edf
  DW_CFA_offset: r13 (r13) at cfa-24
  DW_CFA_offset: r14 (r14) at cfa-32
  DW_CFA_advance_loc1: 215 to 0000000000470fb6
  DW_CFA_restore: r14 (r14)
  DW_CFA_advance_loc: 2 to 0000000000470fb8
  DW_CFA_restore: r13 (r13)
  DW_CFA_advance_loc: 3 to 0000000000470fbb
  DW_CFA_restore: r6 (rbp)
  DW_CFA_advance_loc: 1 to 0000000000470fbc
  DW_CFA_offset: r6 (rbp) at cfa-16
  DW_CFA_offset: r13 (r13) at cfa-24
  DW_CFA_offset: r14 (r14) at cfa-32
  DW_CFA_nop
  DW_CFA_nop
  DW_CFA_nop
  DW_CFA_nop

00004600 0000000000000034 0000455c FDE cie=000000a8 pc=0000000000470fd0..00000000004710c0
  DW_CFA_advance_loc: 1 to 0000000000470fd1
  DW_CFA_def_cfa_offset: 16
  DW_CFA_advance_loc: 3 to 0000000000470fd4
  DW_CFA_def_cfa: r6 (rbp) ofs 16
  DW_CFA_offset: r6 (rbp) at cfa-16
  DW_CFA_advance_loc: 6 to 0000000000470fda
  DW_CFA_offset: r14 (r14) at cfa-24
  DW_CFA_advance_loc1: 213 to 00000000004710af
  DW_CFA_restore: r14 (r14)
  DW_CFA_advance_loc: 3 to 00000000004710b2
  DW_CFA_restore: r6 (rbp)
  DW_CFA_advance_loc: 1 to 00000000004710b3
  DW_CFA_offset: r6 (rbp) at cfa-16
  DW_CFA_offset: r14 (r14) at cfa-24
  DW_CFA_advance_loc: 8 to 00000000004710bb
  DW_CFA_restore: r14 (r14)
  DW_CFA_advance_loc: 3 to 00000000004710be
  DW_CFA_restore: r6 (rbp)
  DW_CFA_nop
  DW_CFA_nop
  DW_CFA_nop
  DW_CFA_nop
  DW_CFA_nop
  DW_CFA_nop

00004638 0000000000000034 00004594 FDE cie=000000a8 pc=00000000004710c0..00000000004711b0
  DW_CFA_advance_loc: 1 to 00000000004710c1
  DW_CFA_def_cfa_offset: 16
  DW_CFA_advance_loc: 3 to 00000000004710c4
  DW_CFA_def_cfa: r6 (rbp) ofs 16
  DW_CFA_offset: r6 (rbp) at cfa-16
  DW_CFA_advance_loc: 6 to 00000000004710ca
  DW_CFA_offset: r14 (r14) at cfa-24
  DW_CFA_advance_loc1: 200 to 0000000000471192
  DW_CFA_restore: r14 (r14)
  DW_CFA_advance_loc: 3 to 0000000000471195
  DW_CFA_restore: r6 (rbp)
  DW_CFA_advance_loc: 1 to 0000000000471196
  DW_CFA_offset: r6 (rbp) at cfa-16
  DW_CFA_offset: r14 (r14) at cfa-24
  DW_CFA_advance_loc: 8 to 000000000047119e
  DW_CFA_restore: r14 (r14)
  DW_CFA_advance_loc: 3 to 00000000004711a1
  DW_CFA_restore: r6 (rbp)
  DW_CFA_nop
  DW_CFA_nop
  DW_CFA_nop
  DW_CFA_nop
  DW_CFA_nop
  DW_CFA_nop

00004670 0000000000000034 000045cc FDE cie=000000a8 pc=00000000004711b0..00000000004713a0
  DW_CFA_advance_loc: 1 to 00000000004711b1
  DW_CFA_def_cfa_offset: 16
  DW_CFA_advance_loc: 3 to 00000000004711b4
  DW_CFA_def_cfa: r6 (rbp) ofs 16
  DW_CFA_offset: r6 (rbp) at cfa-16
  DW_CFA_advance_loc: 11 to 00000000004711bf
  DW_CFA_offset: r12 (r12) at cfa-24
  DW_CFA_offset: r13 (r13) at cfa-32
  DW_CFA_advance_loc2: 357 to 0000000000471324
  DW_CFA_restore: r13 (r13)
  DW_CFA_advance_loc: 2 to 0000000000471326
  DW_CFA_restore: r12 (r12)
  DW_CFA_advance_loc: 3 to 0000000000471329
  DW_CFA_restore: r6 (rbp)
  DW_CFA_advance_loc: 1 to 000000000047132a
  DW_CFA_offset: r6 (rbp) at cfa-16
  DW_CFA_offset: r12 (r12) at cfa-24
  DW_CFA_offset: r13 (r13) at cfa-32
  DW_CFA_nop
  DW_CFA_nop
  DW_CFA_nop

000046a8 000000000000002c 00004604 FDE cie=000000a8 pc=00000000004713a0..0000000000471430
  DW_CFA_advance_loc: 1 to 00000000004713a1
  DW_CFA_def_cfa_offset: 16
  DW_CFA_advance_loc: 3 to 00000000004713a4
  DW_CFA_def_cfa: r6 (rbp) ofs 16
  DW_CFA_offset: r6 (rbp) at cfa-16
  DW_CFA_advance_loc: 9 to 00000000004713ad
  DW_CFA_offset: r15 (r15) at cfa-24
  DW_CFA_advance_loc1: 117 to 0000000000471422
  DW_CFA_restore: r15 (r15)
  DW_CFA_advance_loc: 3 to 0000000000471425
  DW_CFA_restore: r6 (rbp)
  DW_CFA_nop
  DW_CFA_nop
  DW_CFA_nop
  DW_CFA_nop
  DW_CFA_nop
  DW_CFA_nop
  DW_CFA_nop

000046d8 000000000000002c 00004634 FDE cie=000000a8 pc=0000000000471430..00000000004714b0
  DW_CFA_advance_loc: 1 to 0000000000471431
  DW_CFA_def_cfa_offset: 16
  DW_CFA_advance_loc: 3 to 0000000000471434
  DW_CFA_def_cfa: r6 (rbp) ofs 16
  DW_CFA_offset: r6 (rbp) at cfa-16
  DW_CFA_advance_loc: 9 to 000000000047143d
  DW_CFA_offset: r13 (r13) at cfa-24
  DW_CFA_advance_loc1: 106 to 00000000004714a7
  DW_CFA_restore: r13 (r13)
  DW_CFA_advance_loc: 3 to 00000000004714aa
  DW_CFA_restore: r6 (rbp)
  DW_CFA_nop
  DW_CFA_nop
  DW_CFA_nop
  DW_CFA_nop
  DW_CFA_nop
  DW_CFA_nop
  DW_CFA_nop

00004708 0000000000000034 00004664 FDE cie=000000a8 pc=00000000004714b0..0000000000471550
  DW_CFA_advance_loc: 1 to 00000000004714b1
  DW_CFA_def_cfa_offset: 16
  DW_CFA_advance_loc: 3 to 00000000004714b4
  DW_CFA_def_cfa: r6 (rbp) ofs 16
  DW_CFA_offset: r6 (rbp) at cfa-16
  DW_CFA_advance_loc: 13 to 00000000004714c1
  DW_CFA_offset: r12 (r12) at cfa-24
  DW_CFA_offset: r13 (r13) at cfa-32
  DW_CFA_offset: r14 (r14) at cfa-40
  DW_CFA_advance_loc1: 126 to 000000000047153f
  DW_CFA_restore: r14 (r14)
  DW_CFA_advance_loc: 2 to 0000000000471541
  DW_CFA_restore: r13 (r13)
  DW_CFA_advance_loc: 2 to 0000000000471543
  DW_CFA_restore: r12 (r12)
  DW_CFA_advance_loc: 3 to 0000000000471546
  DW_CFA_restore: r6 (rbp)
  DW_CFA_nop
  DW_CFA_nop
  DW_CFA_nop
  DW_CFA_nop
  DW_CFA_nop
  DW_CFA_nop
  DW_CFA_nop

00004740 0000000000000044 0000469c FDE cie=000000a8 pc=0000000000471550..0000000000471f80
  DW_CFA_advance_loc: 1 to 0000000000471551
  DW_CFA_def_cfa_offset: 16
  DW_CFA_advance_loc: 3 to 0000000000471554
  DW_CFA_def_cfa: r6 (rbp) ofs 16
  DW_CFA_offset: r6 (rbp) at cfa-16
  DW_CFA_advance_loc: 13 to 0000000000471561
  DW_CFA_offset: r3 (rbx) at cfa-56
  DW_CFA_offset: r12 (r12) at cfa-24
  DW_CFA_offset: r13 (r13) at cfa-32
  DW_CFA_offset: r14 (r14) at cfa-40
  DW_CFA_offset: r15 (r15) at cfa-48
  DW_CFA_advance_loc2: 1858 to 0000000000471ca3
  DW_CFA_restore: r3 (rbx)
  DW_CFA_advance_loc: 1 to 0000000000471ca4
  DW_CFA_restore: r15 (r15)
  DW_CFA_advance_loc: 2 to 0000000000471ca6
  DW_CFA_restore: r14 (r14)
  DW_CFA_advance_loc: 2 to 0000000000471ca8
  DW_CFA_restore: r13 (r13)
  DW_CFA_advance_loc: 2 to 0000000000471caa
  DW_CFA_restore: r12 (r12)
  DW_CFA_advance_loc: 3 to 0000000000471cad
  DW_CFA_restore: r6 (rbp)
  DW_CFA_advance_loc: 1 to 0000000000471cae
  DW_CFA_offset: r3 (rbx) at cfa-56
  DW_CFA_offset: r6 (rbp) at cfa-16
  DW_CFA_offset: r12 (r12) at cfa-24
  DW_CFA_offset: r13 (r13) at cfa-32
  DW_CFA_offset: r14 (r14) at cfa-40
  DW_CFA_offset: r15 (r15) at cfa-48
  DW_CFA_nop

00004788 0000000000000164 000046e4 FDE cie=000000a8 pc=0000000000471f80..0000000000472ab0
  DW_CFA_advance_loc: 1 to 0000000000471f81
  DW_CFA_def_cfa_offset: 16
  DW_CFA_advance_loc: 3 to 0000000000471f84
  DW_CFA_def_cfa: r6 (rbp) ofs 16
  DW_CFA_offset: r6 (rbp) at cfa-16
  DW_CFA_advance_loc: 23 to 0000000000471f9b
  DW_CFA_offset: r3 (rbx) at cfa-56
  DW_CFA_offset: r12 (r12) at cfa-24
  DW_CFA_offset: r13 (r13) at cfa-32
  DW_CFA_offset: r14 (r14) at cfa-40
  DW_CFA_offset: r15 (r15) at cfa-48
  DW_CFA_advance_loc2: 691 to 000000000047224e
  DW_CFA_restore: r3 (rbx)
  DW_CFA_advance_loc: 1 to 000000000047224f
  DW_CFA_restore: r15 (r15)
  DW_CFA_advance_loc: 2 to 0000000000472251
  DW_CFA_restore: r14 (r14)
  DW_CFA_advance_loc: 2 to 0000000000472253
  DW_CFA_restore: r13 (r13)
  DW_CFA_advance_loc: 2 to 0000000000472255
  DW_CFA_restore: r12 (r12)
  DW_CFA_advance_loc: 3 to 0000000000472258
  DW_CFA_restore: r6 (rbp)
  DW_CFA_advance_loc: 1 to 0000000000472259
  DW_CFA_offset: r3 (rbx) at cfa-56
  DW_CFA_offset: r6 (rbp) at cfa-16
  DW_CFA_offset: r12 (r12) at cfa-24
  DW_CFA_offset: r13 (r13) at cfa-32
  DW_CFA_offset: r14 (r14) at cfa-40
  DW_CFA_offset: r15 (r15) at cfa-48
  DW_CFA_advance_loc1: 151 to 00000000004722f0
  DW_CFA_restore: r3 (rbx)
  DW_CFA_advance_loc: 1 to 00000000004722f1
  DW_CFA_restore: r15 (r15)
  DW_CFA_advance_loc: 2 to 00000000004722f3
  DW_CFA_restore: r14 (r14)
  DW_CFA_advance_loc: 2 to 00000000004722f5
  DW_CFA_restore: r13 (r13)
  DW_CFA_advance_loc: 2 to 00000000004722f7
  DW_CFA_restore: r12 (r12)
  DW_CFA_advance_loc: 3 to 00000000004722fa
  DW_CFA_restore: r6 (rbp)
  DW_CFA_advance_loc: 1 to 00000000004722fb
  DW_CFA_offset: r3 (rbx) at cfa-56
  DW_CFA_offset: r6 (rbp) at cfa-16
  DW_CFA_offset: r12 (r12) at cfa-24
  DW_CFA_offset: r13 (r13) at cfa-32
  DW_CFA_offset: r14 (r14) at cfa-40
  DW_CFA_offset: r15 (r15) at cfa-48
  DW_CFA_advance_loc2: 468 to 00000000004724cf
  DW_CFA_restore: r3 (rbx)
  DW_CFA_advance_loc: 1 to 00000000004724d0
  DW_CFA_restore: r15 (r15)
  DW_CFA_advance_loc: 2 to 00000000004724d2
  DW_CFA_restore: r14 (r14)
  DW_CFA_advance_loc: 2 to 00000000004724d4
  DW_CFA_restore: r13 (r13)
  DW_CFA_advance_loc: 2 to 00000000004724d6
  DW_CFA_restore: r12 (r12)
  DW_CFA_advance_loc: 3 to 00000000004724d9
  DW_CFA_restore: r6 (rbp)
  DW_CFA_advance_loc: 1 to 00000000004724da
  DW_CFA_offset: r3 (rbx) at cfa-56
  DW_CFA_offset: r6 (rbp) at cfa-16
  DW_CFA_offset: r12 (r12) at cfa-24
  DW_CFA_offset: r13 (r13) at cfa-32
  DW_CFA_offset: r14 (r14) at cfa-40
  DW_CFA_offset: r15 (r15) at cfa-48
  DW_CFA_advance_loc2: 687 to 0000000000472789
  DW_CFA_restore: r3 (rbx)
  DW_CFA_advance_loc: 1 to 000000000047278a
  DW_CFA_restore: r15 (r15)
  DW_CFA_advance_loc: 2 to 000000000047278c
  DW_CFA_restore: r14 (r14)
  DW_CFA_advance_loc: 2 to 000000000047278e
  DW_CFA_restore: r13 (r13)
  DW_CFA_advance_loc: 2 to 0000000000472790
  DW_CFA_restore: r12 (r12)
  DW_CFA_advance_loc: 3 to 0000000000472793
  DW_CFA_restore: r6 (rbp)
  DW_CFA_advance_loc: 1 to 0000000000472794
  DW_CFA_offset: r3 (rbx) at cfa-56
  DW_CFA_offset: r6 (rbp) at cfa-16
  DW_CFA_offset: r12 (r12) at cfa-24
  DW_CFA_offset: r13 (r13) at cfa-32
  DW_CFA_offset: r14 (r14) at cfa-40
  DW_CFA_offset: r15 (r15) at cfa-48
  DW_CFA_advance_loc: 35 to 00000000004727b7
  DW_CFA_restore: r3 (rbx)
  DW_CFA_advance_loc: 1 to 00000000004727b8
  DW_CFA_restore: r15 (r15)
  DW_CFA_advance_loc: 2 to 00000000004727ba
  DW_CFA_restore: r14 (r14)
  DW_CFA_advance_loc: 2 to 00000000004727bc
  DW_CFA_restore: r13 (r13)
  DW_CFA_advance_loc: 2 to 00000000004727be
  DW_CFA_restore: r12 (r12)
  DW_CFA_advance_loc: 3 to 00000000004727c1
  DW_CFA_restore: r6 (rbp)
  DW_CFA_advance_loc: 1 to 00000000004727c2
  DW_CFA_offset: r3 (rbx) at cfa-56
  DW_CFA_offset: r6 (rbp) at cfa-16
  DW_CFA_offset: r12 (r12) at cfa-24
  DW_CFA_offset: r13 (r13) at cfa-32
  DW_CFA_offset: r14 (r14) at cfa-40
  DW_CFA_offset: r15 (r15) at cfa-48
  DW_CFA_advance_loc: 24 to 00000000004727da
  DW_CFA_restore: r3 (rbx)
  DW_CFA_advance_loc: 1 to 00000000004727db
  DW_CFA_restore: r15 (r15)
  DW_CFA_advance_loc: 2 to 00000000004727dd
  DW_CFA_restore: r14 (r14)
  DW_CFA_advance_loc: 2 to 00000000004727df
  DW_CFA_restore: r13 (r13)
  DW_CFA_advance_loc: 2 to 00000000004727e1
  DW_CFA_restore: r12 (r12)
  DW_CFA_advance_loc: 3 to 00000000004727e4
  DW_CFA_restore: r6 (rbp)
  DW_CFA_advance_loc: 1 to 00000000004727e5
  DW_CFA_offset: r3 (rbx) at cfa-56
  DW_CFA_offset: r6 (rbp) at cfa-16
  DW_CFA_offset: r12 (r12) at cfa-24
  DW_CFA_offset: r13 (r13) at cfa-32
  DW_CFA_offset: r14 (r14) at cfa-40
  DW_CFA_offset: r15 (r15) at cfa-48
  DW_CFA_advance_loc: 35 to 0000000000472808
  DW_CFA_restore: r3 (rbx)
  DW_CFA_advance_loc: 1 to 0000000000472809
  DW_CFA_restore: r15 (r15)
  DW_CFA_advance_loc: 2 to 000000000047280b
  DW_CFA_restore: r14 (r14)
  DW_CFA_advance_loc: 2 to 000000000047280d
  DW_CFA_restore: r13 (r13)
  DW_CFA_advance_loc: 2 to 000000000047280f
  DW_CFA_restore: r12 (r12)
  DW_CFA_advance_loc: 3 to 0000000000472812
  DW_CFA_restore: r6 (rbp)
  DW_CFA_advance_loc: 1 to 0000000000472813
  DW_CFA_offset: r3 (rbx) at cfa-56
  DW_CFA_offset: r6 (rbp) at cfa-16
  DW_CFA_offset: r12 (r12) at cfa-24
  DW_CFA_offset: r13 (r13) at cfa-32
  DW_CFA_offset: r14 (r14) at cfa-40
  DW_CFA_offset: r15 (r15) at cfa-48
  DW_CFA_advance_loc: 24 to 000000000047282b
  DW_CFA_restore: r3 (rbx)
  DW_CFA_advance_loc: 1 to 000000000047282c
  DW_CFA_restore: r15 (r15)
  DW_CFA_advance_loc: 2 to 000000000047282e
  DW_CFA_restore: r14 (r14)
  DW_CFA_advance_loc: 2 to 0000000000472830
  DW_CFA_restore: r13 (r13)
  DW_CFA_advance_loc: 2 to 0000000000472832
  DW_CFA_restore: r12 (r12)
  DW_CFA_advance_loc: 3 to 0000000000472835
  DW_CFA_restore: r6 (rbp)
  DW_CFA_advance_loc: 1 to 0000000000472836
  DW_CFA_offset: r3 (rbx) at cfa-56
  DW_CFA_offset: r6 (rbp) at cfa-16
  DW_CFA_offset: r12 (r12) at cfa-24
  DW_CFA_offset: r13 (r13) at cfa-32
  DW_CFA_offset: r14 (r14) at cfa-40
  DW_CFA_offset: r15 (r15) at cfa-48
  DW_CFA_advance_loc1: 77 to 0000000000472883
  DW_CFA_restore: r3 (rbx)
  DW_CFA_advance_loc: 1 to 0000000000472884
  DW_CFA_restore: r15 (r15)
  DW_CFA_advance_loc: 2 to 0000000000472886
  DW_CFA_restore: r14 (r14)
  DW_CFA_advance_loc: 2 to 0000000000472888
  DW_CFA_restore: r13 (r13)
  DW_CFA_advance_loc: 2 to 000000000047288a
  DW_CFA_restore: r12 (r12)
  DW_CFA_advance_loc: 3 to 000000000047288d
  DW_CFA_restore: r6 (rbp)
  DW_CFA_advance_loc: 1 to 000000000047288e
  DW_CFA_offset: r3 (rbx) at cfa-56
  DW_CFA_offset: r6 (rbp) at cfa-16
  DW_CFA_offset: r12 (r12) at cfa-24
  DW_CFA_offset: r13 (r13) at cfa-32
  DW_CFA_offset: r14 (r14) at cfa-40
  DW_CFA_offset: r15 (r15) at cfa-48
  DW_CFA_advance_loc: 18 to 00000000004728a0
  DW_CFA_restore: r3 (rbx)
  DW_CFA_advance_loc: 1 to 00000000004728a1
  DW_CFA_restore: r15 (r15)
  DW_CFA_advance_loc: 2 to 00000000004728a3
  DW_CFA_restore: r14 (r14)
  DW_CFA_advance_loc: 2 to 00000000004728a5
  DW_CFA_restore: r13 (r13)
  DW_CFA_advance_loc: 2 to 00000000004728a7
  DW_CFA_restore: r12 (r12)
  DW_CFA_advance_loc: 3 to 00000000004728aa
  DW_CFA_restore: r6 (rbp)
  DW_CFA_advance_loc: 1 to 00000000004728ab
  DW_CFA_offset: r3 (rbx) at cfa-56
  DW_CFA_offset: r6 (rbp) at cfa-16
  DW_CFA_offset: r12 (r12) at cfa-24
  DW_CFA_offset: r13 (r13) at cfa-32
  DW_CFA_offset: r14 (r14) at cfa-40
  DW_CFA_offset: r15 (r15) at cfa-48
  DW_CFA_advance_loc2: 449 to 0000000000472a6c
  DW_CFA_restore: r3 (rbx)
  DW_CFA_advance_loc: 1 to 0000000000472a6d
  DW_CFA_restore: r15 (r15)
  DW_CFA_advance_loc: 2 to 0000000000472a6f
  DW_CFA_restore: r14 (r14)
  DW_CFA_advance_loc: 2 to 0000000000472a71
  DW_CFA_restore: r13 (r13)
  DW_CFA_advance_loc: 2 to 0000000000472a73
  DW_CFA_restore: r12 (r12)
  DW_CFA_advance_loc: 3 to 0000000000472a76
  DW_CFA_restore: r6 (rbp)
  DW_CFA_advance_loc: 1 to 0000000000472a77
  DW_CFA_offset: r3 (rbx) at cfa-56
  DW_CFA_offset: r6 (rbp) at cfa-16
  DW_CFA_offset: r12 (r12) at cfa-24
  DW_CFA_offset: r13 (r13) at cfa-32
  DW_CFA_offset: r14 (r14) at cfa-40
  DW_CFA_offset: r15 (r15) at cfa-48
  DW_CFA_advance_loc: 27 to 0000000000472a92
  DW_CFA_restore: r3 (rbx)
  DW_CFA_advance_loc: 1 to 0000000000472a93
  DW_CFA_restore: r15 (r15)
  DW_CFA_advance_loc: 2 to 0000000000472a95
  DW_CFA_restore: r14 (r14)
  DW_CFA_advance_loc: 2 to 0000000000472a97
  DW_CFA_restore: r13 (r13)
  DW_CFA_advance_loc: 2 to 0000000000472a99
  DW_CFA_restore: r12 (r12)
  DW_CFA_advance_loc: 3 to 0000000000472a9c
  DW_CFA_restore: r6 (rbp)
  DW_CFA_advance_loc: 1 to 0000000000472a9d
  DW_CFA_offset: r3 (rbx) at cfa-56
  DW_CFA_offset: r6 (rbp) at cfa-16
  DW_CFA_offset: r12 (r12) at cfa-24
  DW_CFA_offset: r13 (r13) at cfa-32
  DW_CFA_offset: r14 (r14) at cfa-40
  DW_CFA_offset: r15 (r15) at cfa-48
  DW_CFA_nop
  DW_CFA_nop
  DW_CFA_nop
  DW_CFA_nop
  DW_CFA_nop
  DW_CFA_nop

000048f0 0000000000000044 0000484c FDE cie=000000a8 pc=0000000000472ab0..0000000000473550
  DW_CFA_advance_loc: 1 to 0000000000472ab1
  DW_CFA_def_cfa_offset: 16
  DW_CFA_advance_loc: 3 to 0000000000472ab4
  DW_CFA_def_cfa: r6 (rbp) ofs 16
  DW_CFA_offset: r6 (rbp) at cfa-16
  DW_CFA_advance_loc: 20 to 0000000000472ac8
  DW_CFA_offset: r3 (rbx) at cfa-56
  DW_CFA_offset: r12 (r12) at cfa-24
  DW_CFA_offset: r13 (r13) at cfa-32
  DW_CFA_offset: r14 (r14) at cfa-40
  DW_CFA_offset: r15 (r15) at cfa-48
  DW_CFA_advance_loc2: 1994 to 0000000000473292
  DW_CFA_restore: r3 (rbx)
  DW_CFA_advance_loc: 1 to 0000000000473293
  DW_CFA_restore: r15 (r15)
  DW_CFA_advance_loc: 2 to 0000000000473295
  DW_CFA_restore: r14 (r14)
  DW_CFA_advance_loc: 2 to 0000000000473297
  DW_CFA_restore: r13 (r13)
  DW_CFA_advance_loc: 2 to 0000000000473299
  DW_CFA_restore: r12 (r12)
  DW_CFA_advance_loc: 3 to 000000000047329c
  DW_CFA_restore: r6 (rbp)
  DW_CFA_advance_loc: 1 to 000000000047329d
  DW_CFA_offset: r3 (rbx) at cfa-56
  DW_CFA_offset: r6 (rbp) at cfa-16
  DW_CFA_offset: r12 (r12) at cfa-24
  DW_CFA_offset: r13 (r13) at cfa-32
  DW_CFA_offset: r14 (r14) at cfa-40
  DW_CFA_offset: r15 (r15) at cfa-48
  DW_CFA_nop

00004938 000000000000003c 00004894 FDE cie=000000a8 pc=0000000000473550..0000000000473ed0
  DW_CFA_advance_loc: 1 to 0000000000473551
  DW_CFA_def_cfa_offset: 16
  DW_CFA_advance_loc: 3 to 0000000000473554
  DW_CFA_def_cfa: r6 (rbp) ofs 16
  DW_CFA_offset: r6 (rbp) at cfa-16
  DW_CFA_advance_loc: 10 to 000000000047355e
  DW_CFA_offset: r13 (r13) at cfa-24
  DW_CFA_offset: r14 (r14) at cfa-32
  DW_CFA_offset: r15 (r15) at cfa-40
  DW_CFA_advance_loc2: 1698 to 0000000000473c00
  DW_CFA_restore: r15 (r15)
  DW_CFA_advance_loc: 2 to 0000000000473c02
  DW_CFA_restore: r14 (r14)
  DW_CFA_advance_loc: 2 to 0000000000473c04
  DW_CFA_restore: r13 (r13)
  DW_CFA_advance_loc: 3 to 0000000000473c07
  DW_CFA_restore: r6 (rbp)
  DW_CFA_advance_loc: 1 to 0000000000473c08
  DW_CFA_offset: r6 (rbp) at cfa-16
  DW_CFA_offset: r13 (r13) at cfa-24
  DW_CFA_offset: r14 (r14) at cfa-32
  DW_CFA_offset: r15 (r15) at cfa-40
  DW_CFA_nop
  DW_CFA_nop
  DW_CFA_nop
  DW_CFA_nop
  DW_CFA_nop

00004978 0000000000000024 000048d4 FDE cie=000000a8 pc=0000000000473ed0..0000000000473f10
  DW_CFA_advance_loc: 1 to 0000000000473ed1
  DW_CFA_def_cfa_offset: 16
  DW_CFA_advance_loc: 3 to 0000000000473ed4
  DW_CFA_def_cfa: r6 (rbp) ofs 16
  DW_CFA_offset: r6 (rbp) at cfa-16
  DW_CFA_advance_loc: 30 to 0000000000473ef2
  DW_CFA_restore: r6 (rbp)
  DW_CFA_advance_loc: 1 to 0000000000473ef3
  DW_CFA_offset: r6 (rbp) at cfa-16
  DW_CFA_nop
  DW_CFA_nop

000049a0 0000000000000024 000048fc FDE cie=000000a8 pc=0000000000473f10..0000000000473f40
  DW_CFA_advance_loc: 1 to 0000000000473f11
  DW_CFA_def_cfa_offset: 16
  DW_CFA_advance_loc: 3 to 0000000000473f14
  DW_CFA_def_cfa: r6 (rbp) ofs 16
  DW_CFA_offset: r6 (rbp) at cfa-16
  DW_CFA_advance_loc: 29 to 0000000000473f31
  DW_CFA_restore: r6 (rbp)
  DW_CFA_nop
  DW_CFA_nop
  DW_CFA_nop
  DW_CFA_nop
  DW_CFA_nop

000049c8 000000000000003c 00004924 FDE cie=000000a8 pc=0000000000473f40..0000000000474050
  DW_CFA_advance_loc: 1 to 0000000000473f41
  DW_CFA_def_cfa_offset: 16
  DW_CFA_advance_loc: 3 to 0000000000473f44
  DW_CFA_def_cfa: r6 (rbp) ofs 16
  DW_CFA_offset: r6 (rbp) at cfa-16
  DW_CFA_advance_loc: 3 to 0000000000473f47
  DW_CFA_offset: r14 (r14) at cfa-24
  DW_CFA_advance_loc1: 93 to 0000000000473fa4
  DW_CFA_restore: r14 (r14)
  DW_CFA_advance_loc: 3 to 0000000000473fa7
  DW_CFA_restore: r6 (rbp)
  DW_CFA_advance_loc: 1 to 0000000000473fa8
  DW_CFA_offset: r6 (rbp) at cfa-16
  DW_CFA_offset: r14 (r14) at cfa-24
  DW_CFA_advance_loc1: 81 to 0000000000473ff9
  DW_CFA_restore: r14 (r14)
  DW_CFA_advance_loc: 3 to 0000000000473ffc
  DW_CFA_restore: r6 (rbp)
  DW_CFA_advance_loc: 1 to 0000000000473ffd
  DW_CFA_offset: r6 (rbp) at cfa-16
  DW_CFA_offset: r14 (r14) at cfa-24
  DW_CFA_advance_loc1: 71 to 0000000000474044
  DW_CFA_restore: r14 (r14)
  DW_CFA_advance_loc: 3 to 0000000000474047
  DW_CFA_restore: r6 (rbp)
  DW_CFA_nop
  DW_CFA_nop
  DW_CFA_nop

00004a08 000000000000004c 00004964 FDE cie=000000a8 pc=0000000000474050..00000000004741b0
  DW_CFA_advance_loc: 1 to 0000000000474051
  DW_CFA_def_cfa_offset: 16
  DW_CFA_advance_loc: 3 to 0000000000474054
  DW_CFA_def_cfa: r6 (rbp) ofs 16
  DW_CFA_offset: r6 (rbp) at cfa-16
  DW_CFA_advance_loc: 8 to 000000000047405c
  DW_CFA_offset: r12 (r12) at cfa-24
  DW_CFA_offset: r13 (r13) at cfa-32
  DW_CFA_offset: r14 (r14) at cfa-40
  DW_CFA_offset: r15 (r15) at cfa-48
  DW_CFA_advance_loc1: 183 to 0000000000474113
  DW_CFA_restore: r15 (r15)
  DW_CFA_advance_loc: 2 to 0000000000474115
  DW_CFA_restore: r14 (r14)
  DW_CFA_advance_loc: 2 to 0000000000474117
  DW_CFA_restore: r13 (r13)
  DW_CFA_advance_loc: 2 to 0000000000474119
  DW_CFA_restore: r12 (r12)
  DW_CFA_advance_loc: 3 to 000000000047411c
  DW_CFA_restore: r6 (rbp)
  DW_CFA_advance_loc: 1 to 000000000047411d
  DW_CFA_offset: r6 (rbp) at cfa-16
  DW_CFA_offset: r12 (r12) at cfa-24
  DW_CFA_offset: r13 (r13) at cfa-32
  DW_CFA_offset: r14 (r14) at cfa-40
  DW_CFA_offset: r15 (r15) at cfa-48
  DW_CFA_advance_loc1: 122 to 0000000000474197
  DW_CFA_restore: r15 (r15)
  DW_CFA_advance_loc: 2 to 0000000000474199
  DW_CFA_restore: r14 (r14)
  DW_CFA_advance_loc: 2 to 000000000047419b
  DW_CFA_restore: r13 (r13)
  DW_CFA_advance_loc: 2 to 000000000047419d
  DW_CFA_restore: r12 (r12)
  DW_CFA_advance_loc: 3 to 00000000004741a0
  DW_CFA_restore: r6 (rbp)
  DW_CFA_nop
  DW_CFA_nop
  DW_CFA_nop
  DW_CFA_nop
  DW_CFA_nop

00004a58 000000000000002c 000049b4 FDE cie=000000a8 pc=00000000004741b0..0000000000474210
  DW_CFA_advance_loc: 1 to 00000000004741b1
  DW_CFA_def_cfa_offset: 16
  DW_CFA_advance_loc: 3 to 00000000004741b4
  DW_CFA_def_cfa: r6 (rbp) ofs 16
  DW_CFA_offset: r6 (rbp) at cfa-16
  DW_CFA_advance_loc: 18 to 00000000004741c6
  DW_CFA_offset: r14 (r14) at cfa-24
  DW_CFA_advance_loc1: 68 to 000000000047420a
  DW_CFA_restore: r14 (r14)
  DW_CFA_advance_loc: 3 to 000000000047420d
  DW_CFA_restore: r6 (rbp)
  DW_CFA_nop
  DW_CFA_nop
  DW_CFA_nop
  DW_CFA_nop
  DW_CFA_nop
  DW_CFA_nop
  DW_CFA_nop

00004a88 000000000000007c 000049e4 FDE cie=000000a8 pc=0000000000474210..0000000000474680
  DW_CFA_advance_loc: 1 to 0000000000474211
  DW_CFA_def_cfa_offset: 16
  DW_CFA_advance_loc: 3 to 0000000000474214
  DW_CFA_def_cfa: r6 (rbp) ofs 16
  DW_CFA_offset: r6 (rbp) at cfa-16
  DW_CFA_advance_loc: 13 to 0000000000474221
  DW_CFA_offset: r3 (rbx) at cfa-56
  DW_CFA_offset: r12 (r12) at cfa-24
  DW_CFA_offset: r13 (r13) at cfa-32
  DW_CFA_offset: r14 (r14) at cfa-40
  DW_CFA_offset: r15 (r15) at cfa-48
  DW_CFA_advance_loc2: 292 to 0000000000474345
  DW_CFA_restore: r3 (rbx)
  DW_CFA_advance_loc: 1 to 0000000000474346
  DW_CFA_restore: r15 (r15)
  DW_CFA_advance_loc: 2 to 0000000000474348
  DW_CFA_restore: r14 (r14)
  DW_CFA_advance_loc: 2 to 000000000047434a
  DW_CFA_restore: r13 (r13)
  DW_CFA_advance_loc: 2 to 000000000047434c
  DW_CFA_restore: r12 (r12)
  DW_CFA_advance_loc: 3 to 000000000047434f
  DW_CFA_restore: r6 (rbp)
  DW_CFA_advance_loc: 1 to 0000000000474350
  DW_CFA_offset: r3 (rbx) at cfa-56
  DW_CFA_offset: r6 (rbp) at cfa-16
  DW_CFA_offset: r12 (r12) at cfa-24
  DW_CFA_offset: r13 (r13) at cfa-32
  DW_CFA_offset: r14 (r14) at cfa-40
  DW_CFA_offset: r15 (r15) at cfa-48
  DW_CFA_advance_loc2: 388 to 00000000004744d4
  DW_CFA_restore: r3 (rbx)
  DW_CFA_advance_loc: 1 to 00000000004744d5
  DW_CFA_restore: r15 (r15)
  DW_CFA_advance_loc: 2 to 00000000004744d7
  DW_CFA_restore: r14 (r14)
  DW_CFA_advance_loc: 2 to 00000000004744d9
  DW_CFA_restore: r13 (r13)
  DW_CFA_advance_loc: 2 to 00000000004744db
  DW_CFA_restore: r12 (r12)
  DW_CFA_advance_loc: 3 to 00000000004744de
  DW_CFA_restore: r6 (rbp)
  DW_CFA_advance_loc: 1 to 00000000004744df
  DW_CFA_offset: r3 (rbx) at cfa-56
  DW_CFA_offset: r6 (rbp) at cfa-16
  DW_CFA_offset: r12 (r12) at cfa-24
  DW_CFA_offset: r13 (r13) at cfa-32
  DW_CFA_offset: r14 (r14) at cfa-40
  DW_CFA_offset: r15 (r15) at cfa-48
  DW_CFA_advance_loc1: 92 to 000000000047453b
  DW_CFA_restore: r3 (rbx)
  DW_CFA_advance_loc: 1 to 000000000047453c
  DW_CFA_restore: r15 (r15)
  DW_CFA_advance_loc: 2 to 000000000047453e
  DW_CFA_restore: r14 (r14)
  DW_CFA_advance_loc: 2 to 0000000000474540
  DW_CFA_restore: r13 (r13)
  DW_CFA_advance_loc: 2 to 0000000000474542
  DW_CFA_restore: r12 (r12)
  DW_CFA_advance_loc: 3 to 0000000000474545
  DW_CFA_restore: r6 (rbp)
  DW_CFA_advance_loc: 1 to 0000000000474546
  DW_CFA_offset: r3 (rbx) at cfa-56
  DW_CFA_offset: r6 (rbp) at cfa-16
  DW_CFA_offset: r12 (r12) at cfa-24
  DW_CFA_offset: r13 (r13) at cfa-32
  DW_CFA_offset: r14 (r14) at cfa-40
  DW_CFA_offset: r15 (r15) at cfa-48
  DW_CFA_nop
  DW_CFA_nop
  DW_CFA_nop
  DW_CFA_nop

00004b08 000000000000005c 00004a64 FDE cie=000000a8 pc=0000000000474680..0000000000474b10
  DW_CFA_advance_loc: 1 to 0000000000474681
  DW_CFA_def_cfa_offset: 16
  DW_CFA_advance_loc: 3 to 0000000000474684
  DW_CFA_def_cfa: r6 (rbp) ofs 16
  DW_CFA_offset: r6 (rbp) at cfa-16
  DW_CFA_advance_loc: 13 to 0000000000474691
  DW_CFA_offset: r3 (rbx) at cfa-56
  DW_CFA_offset: r12 (r12) at cfa-24
  DW_CFA_offset: r13 (r13) at cfa-32
  DW_CFA_offset: r14 (r14) at cfa-40
  DW_CFA_offset: r15 (r15) at cfa-48
  DW_CFA_advance_loc: 34 to 00000000004746b3
  DW_CFA_restore: r3 (rbx)
  DW_CFA_advance_loc: 1 to 00000000004746b4
  DW_CFA_restore: r15 (r15)
  DW_CFA_advance_loc: 2 to 00000000004746b6
  DW_CFA_restore: r14 (r14)
  DW_CFA_advance_loc: 2 to 00000000004746b8
  DW_CFA_restore: r13 (r13)
  DW_CFA_advance_loc: 2 to 00000000004746ba
  DW_CFA_restore: r12 (r12)
  DW_CFA_advance_loc: 3 to 00000000004746bd
  DW_CFA_restore: r6 (rbp)
  DW_CFA_advance_loc: 1 to 00000000004746be
  DW_CFA_offset: r3 (rbx) at cfa-56
  DW_CFA_offset: r6 (rbp) at cfa-16
  DW_CFA_offset: r12 (r12) at cfa-24
  DW_CFA_offset: r13 (r13) at cfa-32
  DW_CFA_offset: r14 (r14) at cfa-40
  DW_CFA_offset: r15 (r15) at cfa-48
  DW_CFA_advance_loc2: 774 to 00000000004749c4
  DW_CFA_restore: r3 (rbx)
  DW_CFA_advance_loc: 1 to 00000000004749c5
  DW_CFA_restore: r15 (r15)
  DW_CFA_advance_loc: 2 to 00000000004749c7
  DW_CFA_restore: r14 (r14)
  DW_CFA_advance_loc: 2 to 00000000004749c9
  DW_CFA_restore: r13 (r13)
  DW_CFA_advance_loc: 2 to 00000000004749cb
  DW_CFA_restore: r12 (r12)
  DW_CFA_advance_loc: 3 to 00000000004749ce
  DW_CFA_restore: r6 (rbp)
  DW_CFA_advance_loc: 1 to 00000000004749cf
  DW_CFA_offset: r3 (rbx) at cfa-56
  DW_CFA_offset: r6 (rbp) at cfa-16
  DW_CFA_offset: r12 (r12) at cfa-24
  DW_CFA_offset: r13 (r13) at cfa-32
  DW_CFA_offset: r14 (r14) at cfa-40
  DW_CFA_offset: r15 (r15) at cfa-48

00004b68 0000000000000064 00004ac4 FDE cie=000000a8 pc=0000000000474b10..0000000000474d40
  DW_CFA_advance_loc: 1 to 0000000000474b11
  DW_CFA_def_cfa_offset: 16
  DW_CFA_advance_loc: 3 to 0000000000474b14
  DW_CFA_def_cfa: r6 (rbp) ofs 16
  DW_CFA_offset: r6 (rbp) at cfa-16
  DW_CFA_advance_loc: 10 to 0000000000474b1e
  DW_CFA_offset: r3 (rbx) at cfa-56
  DW_CFA_offset: r12 (r12) at cfa-24
  DW_CFA_offset: r13 (r13) at cfa-32
  DW_CFA_offset: r14 (r14) at cfa-40
  DW_CFA_offset: r15 (r15) at cfa-48
  DW_CFA_advance_loc2: 267 to 0000000000474c29
  DW_CFA_restore: r3 (rbx)
  DW_CFA_advance_loc: 1 to 0000000000474c2a
  DW_CFA_restore: r15 (r15)
  DW_CFA_advance_loc: 2 to 0000000000474c2c
  DW_CFA_restore: r14 (r14)
  DW_CFA_advance_loc: 2 to 0000000000474c2e
  DW_CFA_restore: r13 (r13)
  DW_CFA_advance_loc: 2 to 0000000000474c30
  DW_CFA_restore: r12 (r12)
  DW_CFA_advance_loc: 3 to 0000000000474c33
  DW_CFA_restore: r6 (rbp)
  DW_CFA_advance_loc: 1 to 0000000000474c34
  DW_CFA_offset: r3 (rbx) at cfa-56
  DW_CFA_offset: r6 (rbp) at cfa-16
  DW_CFA_offset: r12 (r12) at cfa-24
  DW_CFA_offset: r13 (r13) at cfa-32
  DW_CFA_offset: r14 (r14) at cfa-40
  DW_CFA_offset: r15 (r15) at cfa-48
  DW_CFA_advance_loc1: 195 to 0000000000474cf7
  DW_CFA_restore: r3 (rbx)
  DW_CFA_advance_loc: 1 to 0000000000474cf8
  DW_CFA_restore: r15 (r15)
  DW_CFA_advance_loc: 2 to 0000000000474cfa
  DW_CFA_restore: r14 (r14)
  DW_CFA_advance_loc: 2 to 0000000000474cfc
  DW_CFA_restore: r13 (r13)
  DW_CFA_advance_loc: 2 to 0000000000474cfe
  DW_CFA_restore: r12 (r12)
  DW_CFA_advance_loc: 3 to 0000000000474d01
  DW_CFA_restore: r6 (rbp)
  DW_CFA_advance_loc: 1 to 0000000000474d02
  DW_CFA_offset: r3 (rbx) at cfa-56
  DW_CFA_offset: r6 (rbp) at cfa-16
  DW_CFA_offset: r12 (r12) at cfa-24
  DW_CFA_offset: r13 (r13) at cfa-32
  DW_CFA_offset: r14 (r14) at cfa-40
  DW_CFA_offset: r15 (r15) at cfa-48
  DW_CFA_nop
  DW_CFA_nop
  DW_CFA_nop
  DW_CFA_nop
  DW_CFA_nop
  DW_CFA_nop
  DW_CFA_nop

00004bd0 000000000000007c 00004b2c FDE cie=000000a8 pc=0000000000474d40..0000000000474fd0
  DW_CFA_advance_loc: 1 to 0000000000474d41
  DW_CFA_def_cfa_offset: 16
  DW_CFA_advance_loc: 3 to 0000000000474d44
  DW_CFA_def_cfa: r6 (rbp) ofs 16
  DW_CFA_offset: r6 (rbp) at cfa-16
  DW_CFA_advance_loc: 10 to 0000000000474d4e
  DW_CFA_offset: r3 (rbx) at cfa-56
  DW_CFA_offset: r12 (r12) at cfa-24
  DW_CFA_offset: r13 (r13) at cfa-32
  DW_CFA_offset: r14 (r14) at cfa-40
  DW_CFA_offset: r15 (r15) at cfa-48
  DW_CFA_advance_loc: 33 to 0000000000474d6f
  DW_CFA_restore: r3 (rbx)
  DW_CFA_advance_loc: 1 to 0000000000474d70
  DW_CFA_restore: r15 (r15)
  DW_CFA_advance_loc: 2 to 0000000000474d72
  DW_CFA_restore: r14 (r14)
  DW_CFA_advance_loc: 2 to 0000000000474d74
  DW_CFA_restore: r13 (r13)
  DW_CFA_advance_loc: 2 to 0000000000474d76
  DW_CFA_restore: r12 (r12)
  DW_CFA_advance_loc: 3 to 0000000000474d79
  DW_CFA_restore: r6 (rbp)
  DW_CFA_advance_loc: 1 to 0000000000474d7a
  DW_CFA_offset: r3 (rbx) at cfa-56
  DW_CFA_offset: r6 (rbp) at cfa-16
  DW_CFA_offset: r12 (r12) at cfa-24
  DW_CFA_offset: r13 (r13) at cfa-32
  DW_CFA_offset: r14 (r14) at cfa-40
  DW_CFA_offset: r15 (r15) at cfa-48
  DW_CFA_advance_loc: 37 to 0000000000474d9f
  DW_CFA_restore: r3 (rbx)
  DW_CFA_advance_loc: 1 to 0000000000474da0
  DW_CFA_restore: r15 (r15)
  DW_CFA_advance_loc: 2 to 0000000000474da2
  DW_CFA_restore: r14 (r14)
  DW_CFA_advance_loc: 2 to 0000000000474da4
  DW_CFA_restore: r13 (r13)
  DW_CFA_advance_loc: 2 to 0000000000474da6
  DW_CFA_restore: r12 (r12)
  DW_CFA_advance_loc: 3 to 0000000000474da9
  DW_CFA_restore: r6 (rbp)
  DW_CFA_advance_loc: 1 to 0000000000474daa
  DW_CFA_offset: r3 (rbx) at cfa-56
  DW_CFA_offset: r6 (rbp) at cfa-16
  DW_CFA_offset: r12 (r12) at cfa-24
  DW_CFA_offset: r13 (r13) at cfa-32
  DW_CFA_offset: r14 (r14) at cfa-40
  DW_CFA_offset: r15 (r15) at cfa-48
  DW_CFA_advance_loc2: 480 to 0000000000474f8a
  DW_CFA_restore: r3 (rbx)
  DW_CFA_advance_loc: 1 to 0000000000474f8b
  DW_CFA_restore: r15 (r15)
  DW_CFA_advance_loc: 2 to 0000000000474f8d
  DW_CFA_restore: r14 (r14)
  DW_CFA_advance_loc: 2 to 0000000000474f8f
  DW_CFA_restore: r13 (r13)
  DW_CFA_advance_loc: 2 to 0000000000474f91
  DW_CFA_restore: r12 (r12)
  DW_CFA_advance_loc: 3 to 0000000000474f94
  DW_CFA_restore: r6 (rbp)
  DW_CFA_advance_loc: 1 to 0000000000474f95
  DW_CFA_offset: r3 (rbx) at cfa-56
  DW_CFA_offset: r6 (rbp) at cfa-16
  DW_CFA_offset: r12 (r12) at cfa-24
  DW_CFA_offset: r13 (r13) at cfa-32
  DW_CFA_offset: r14 (r14) at cfa-40
  DW_CFA_offset: r15 (r15) at cfa-48
  DW_CFA_nop
  DW_CFA_nop
  DW_CFA_nop
  DW_CFA_nop
  DW_CFA_nop
  DW_CFA_nop
  DW_CFA_nop

00004c50 000000000000002c 00004bac FDE cie=000000a8 pc=0000000000474fd0..00000000004750f0
  DW_CFA_advance_loc: 1 to 0000000000474fd1
  DW_CFA_def_cfa_offset: 16
  DW_CFA_advance_loc: 3 to 0000000000474fd4
  DW_CFA_def_cfa: r6 (rbp) ofs 16
  DW_CFA_offset: r6 (rbp) at cfa-16
  DW_CFA_advance_loc1: 112 to 0000000000475044
  DW_CFA_restore: r6 (rbp)
  DW_CFA_advance_loc: 1 to 0000000000475045
  DW_CFA_offset: r6 (rbp) at cfa-16
  DW_CFA_advance_loc1: 159 to 00000000004750e4
  DW_CFA_restore: r6 (rbp)
  DW_CFA_advance_loc: 1 to 00000000004750e5
  DW_CFA_offset: r6 (rbp) at cfa-16
  DW_CFA_advance_loc: 9 to 00000000004750ee
  DW_CFA_restore: r6 (rbp)
  DW_CFA_nop

00004c80 000000000000002c 00004bdc FDE cie=000000a8 pc=00000000004750f0..0000000000475270
  DW_CFA_advance_loc: 1 to 00000000004750f1
  DW_CFA_def_cfa_offset: 16
  DW_CFA_advance_loc: 3 to 00000000004750f4
  DW_CFA_def_cfa: r6 (rbp) ofs 16
  DW_CFA_offset: r6 (rbp) at cfa-16
  DW_CFA_advance_loc1: 116 to 0000000000475168
  DW_CFA_restore: r6 (rbp)
  DW_CFA_advance_loc: 1 to 0000000000475169
  DW_CFA_offset: r6 (rbp) at cfa-16
  DW_CFA_advance_loc1: 250 to 0000000000475263
  DW_CFA_restore: r6 (rbp)
  DW_CFA_advance_loc: 1 to 0000000000475264
  DW_CFA_offset: r6 (rbp) at cfa-16
  DW_CFA_advance_loc: 9 to 000000000047526d
  DW_CFA_restore: r6 (rbp)
  DW_CFA_nop

00004cb0 0000000000000024 00004c0c FDE cie=000000a8 pc=0000000000475270..0000000000475290
  DW_CFA_advance_loc: 1 to 0000000000475271
  DW_CFA_def_cfa_offset: 16
  DW_CFA_advance_loc: 3 to 0000000000475274
  DW_CFA_def_cfa: r6 (rbp) ofs 16
  DW_CFA_offset: r6 (rbp) at cfa-16
  DW_CFA_advance_loc: 14 to 0000000000475282
  DW_CFA_restore: r6 (rbp)
  DW_CFA_advance_loc: 5 to 0000000000475287
  DW_CFA_offset: r6 (rbp) at cfa-16
  DW_CFA_advance_loc: 4 to 000000000047528b
  DW_CFA_restore: r6 (rbp)

00004cd8 0000000000000024 00004c34 FDE cie=000000a8 pc=0000000000475290..00000000004752b0
  DW_CFA_advance_loc: 1 to 0000000000475291
  DW_CFA_def_cfa_offset: 16
  DW_CFA_advance_loc: 3 to 0000000000475294
  DW_CFA_def_cfa: r6 (rbp) ofs 16
  DW_CFA_offset: r6 (rbp) at cfa-16
  DW_CFA_advance_loc: 24 to 00000000004752ac
  DW_CFA_restore: r6 (rbp)
  DW_CFA_nop
  DW_CFA_nop
  DW_CFA_nop
  DW_CFA_nop
  DW_CFA_nop

00004d00 0000000000000024 00004c5c FDE cie=000000a8 pc=00000000004752b0..0000000000475300
  DW_CFA_advance_loc: 1 to 00000000004752b1
  DW_CFA_def_cfa_offset: 16
  DW_CFA_advance_loc: 3 to 00000000004752b4
  DW_CFA_def_cfa: r6 (rbp) ofs 16
  DW_CFA_offset: r6 (rbp) at cfa-16
  DW_CFA_advance_loc: 16 to 00000000004752c4
  DW_CFA_restore: r6 (rbp)
  DW_CFA_advance_loc: 1 to 00000000004752c5
  DW_CFA_offset: r6 (rbp) at cfa-16
  DW_CFA_nop
  DW_CFA_nop

00004d28 00000000000004d4 00004c84 FDE cie=000000a8 pc=0000000000475300..0000000000477070
  DW_CFA_advance_loc: 1 to 0000000000475301
  DW_CFA_def_cfa_offset: 16
  DW_CFA_advance_loc: 3 to 0000000000475304
  DW_CFA_def_cfa: r6 (rbp) ofs 16
  DW_CFA_offset: r6 (rbp) at cfa-16
  DW_CFA_advance_loc1: 77 to 0000000000475351
  DW_CFA_offset: r3 (rbx) at cfa-56
  DW_CFA_offset: r12 (r12) at cfa-24
  DW_CFA_offset: r13 (r13) at cfa-32
  DW_CFA_offset: r14 (r14) at cfa-40
  DW_CFA_offset: r15 (r15) at cfa-48
  DW_CFA_advance_loc2: 297 to 000000000047547a
  DW_CFA_restore: r3 (rbx)
  DW_CFA_advance_loc: 1 to 000000000047547b
  DW_CFA_restore: r15 (r15)
  DW_CFA_advance_loc: 2 to 000000000047547d
  DW_CFA_restore: r14 (r14)
  DW_CFA_advance_loc: 2 to 000000000047547f
  DW_CFA_restore: r13 (r13)
  DW_CFA_advance_loc: 2 to 0000000000475481
  DW_CFA_restore: r12 (r12)
  DW_CFA_advance_loc: 3 to 0000000000475484
  DW_CFA_restore: r6 (rbp)
  DW_CFA_advance_loc: 1 to 0000000000475485
  DW_CFA_offset: r3 (rbx) at cfa-56
  DW_CFA_offset: r6 (rbp) at cfa-16
  DW_CFA_offset: r12 (r12) at cfa-24
  DW_CFA_offset: r13 (r13) at cfa-32
  DW_CFA_offset: r14 (r14) at cfa-40
  DW_CFA_offset: r15 (r15) at cfa-48
  DW_CFA_advance_loc2: 981 to 000000000047585a
  DW_CFA_restore: r3 (rbx)
  DW_CFA_advance_loc: 1 to 000000000047585b
  DW_CFA_restore: r15 (r15)
  DW_CFA_advance_loc: 2 to 000000000047585d
  DW_CFA_restore: r14 (r14)
  DW_CFA_advance_loc: 2 to 000000000047585f
  DW_CFA_restore: r13 (r13)
  DW_CFA_advance_loc: 2 to 0000000000475861
  DW_CFA_restore: r12 (r12)
  DW_CFA_advance_loc: 3 to 0000000000475864
  DW_CFA_restore: r6 (rbp)
  DW_CFA_advance_loc: 1 to 0000000000475865
  DW_CFA_offset: r3 (rbx) at cfa-56
  DW_CFA_offset: r6 (rbp) at cfa-16
  DW_CFA_offset: r12 (r12) at cfa-24
  DW_CFA_offset: r13 (r13) at cfa-32
  DW_CFA_offset: r14 (r14) at cfa-40
  DW_CFA_offset: r15 (r15) at cfa-48
  DW_CFA_advance_loc1: 82 to 00000000004758b7
  DW_CFA_restore: r3 (rbx)
  DW_CFA_advance_loc: 1 to 00000000004758b8
  DW_CFA_restore: r15 (r15)
  DW_CFA_advance_loc: 2 to 00000000004758ba
  DW_CFA_restore: r14 (r14)
  DW_CFA_advance_loc: 2 to 00000000004758bc
  DW_CFA_restore: r13 (r13)
  DW_CFA_advance_loc: 2 to 00000000004758be
  DW_CFA_restore: r12 (r12)
  DW_CFA_advance_loc: 3 to 00000000004758c1
  DW_CFA_restore: r6 (rbp)
  DW_CFA_advance_loc: 1 to 00000000004758c2
  DW_CFA_offset: r3 (rbx) at cfa-56
  DW_CFA_offset: r6 (rbp) at cfa-16
  DW_CFA_offset: r12 (r12) at cfa-24
  DW_CFA_offset: r13 (r13) at cfa-32
  DW_CFA_offset: r14 (r14) at cfa-40
  DW_CFA_offset: r15 (r15) at cfa-48
  DW_CFA_advance_loc1: 103 to 0000000000475929
  DW_CFA_restore: r3 (rbx)
  DW_CFA_advance_loc: 1 to 000000000047592a
  DW_CFA_restore: r15 (r15)
  DW_CFA_advance_loc: 2 to 000000000047592c
  DW_CFA_restore: r14 (r14)
  DW_CFA_advance_loc: 2 to 000000000047592e
  DW_CFA_restore: r13 (r13)
  DW_CFA_advance_loc: 2 to 0000000000475930
  DW_CFA_restore: r12 (r12)
  DW_CFA_advance_loc: 3 to 0000000000475933
  DW_CFA_restore: r6 (rbp)
  DW_CFA_advance_loc: 1 to 0000000000475934
  DW_CFA_offset: r3 (rbx) at cfa-56
  DW_CFA_offset: r6 (rbp) at cfa-16
  DW_CFA_offset: r12 (r12) at cfa-24
  DW_CFA_offset: r13 (r13) at cfa-32
  DW_CFA_offset: r14 (r14) at cfa-40
  DW_CFA_offset: r15 (r15) at cfa-48
  DW_CFA_advance_loc1: 101 to 0000000000475999
  DW_CFA_restore: r3 (rbx)
  DW_CFA_advance_loc: 1 to 000000000047599a
  DW_CFA_restore: r15 (r15)
  DW_CFA_advance_loc: 2 to 000000000047599c
  DW_CFA_restore: r14 (r14)
  DW_CFA_advance_loc: 2 to 000000000047599e
  DW_CFA_restore: r13 (r13)
  DW_CFA_advance_loc: 2 to 00000000004759a0
  DW_CFA_restore: r12 (r12)
  DW_CFA_advance_loc: 3 to 00000000004759a3
  DW_CFA_restore: r6 (rbp)
  DW_CFA_advance_loc: 1 to 00000000004759a4
  DW_CFA_offset: r3 (rbx) at cfa-56
  DW_CFA_offset: r6 (rbp) at cfa-16
  DW_CFA_offset: r12 (r12) at cfa-24
  DW_CFA_offset: r13 (r13) at cfa-32
  DW_CFA_offset: r14 (r14) at cfa-40
  DW_CFA_offset: r15 (r15) at cfa-48
  DW_CFA_advance_loc2: 426 to 0000000000475b4e
  DW_CFA_restore: r3 (rbx)
  DW_CFA_advance_loc: 1 to 0000000000475b4f
  DW_CFA_restore: r15 (r15)
  DW_CFA_advance_loc: 2 to 0000000000475b51
  DW_CFA_restore: r14 (r14)
  DW_CFA_advance_loc: 2 to 0000000000475b53
  DW_CFA_restore: r13 (r13)
  DW_CFA_advance_loc: 2 to 0000000000475b55
  DW_CFA_restore: r12 (r12)
  DW_CFA_advance_loc: 3 to 0000000000475b58
  DW_CFA_restore: r6 (rbp)
  DW_CFA_advance_loc: 1 to 0000000000475b59
  DW_CFA_offset: r3 (rbx) at cfa-56
  DW_CFA_offset: r6 (rbp) at cfa-16
  DW_CFA_offset: r12 (r12) at cfa-24
  DW_CFA_offset: r13 (r13) at cfa-32
  DW_CFA_offset: r14 (r14) at cfa-40
  DW_CFA_offset: r15 (r15) at cfa-48
  DW_CFA_advance_loc2: 346 to 0000000000475cb3
  DW_CFA_restore: r3 (rbx)
  DW_CFA_advance_loc: 1 to 0000000000475cb4
  DW_CFA_restore: r15 (r15)
  DW_CFA_advance_loc: 2 to 0000000000475cb6
  DW_CFA_restore: r14 (r14)
  DW_CFA_advance_loc: 2 to 0000000000475cb8
  DW_CFA_restore: r13 (r13)
  DW_CFA_advance_loc: 2 to 0000000000475cba
  DW_CFA_restore: r12 (r12)
  DW_CFA_advance_loc: 3 to 0000000000475cbd
  DW_CFA_restore: r6 (rbp)
  DW_CFA_advance_loc: 1 to 0000000000475cbe
  DW_CFA_offset: r3 (rbx) at cfa-56
  DW_CFA_offset: r6 (rbp) at cfa-16
  DW_CFA_offset: r12 (r12) at cfa-24
  DW_CFA_offset: r13 (r13) at cfa-32
  DW_CFA_offset: r14 (r14) at cfa-40
  DW_CFA_offset: r15 (r15) at cfa-48
  DW_CFA_advance_loc1: 150 to 0000000000475d54
  DW_CFA_restore: r3 (rbx)
  DW_CFA_advance_loc: 1 to 0000000000475d55
  DW_CFA_restore: r15 (r15)
  DW_CFA_advance_loc: 2 to 0000000000475d57
  DW_CFA_restore: r14 (r14)
  DW_CFA_advance_loc: 2 to 0000000000475d59
  DW_CFA_restore: r13 (r13)
  DW_CFA_advance_loc: 2 to 0000000000475d5b
  DW_CFA_restore: r12 (r12)
  DW_CFA_advance_loc: 3 to 0000000000475d5e
  DW_CFA_restore: r6 (rbp)
  DW_CFA_advance_loc: 1 to 0000000000475d5f
  DW_CFA_offset: r3 (rbx) at cfa-56
  DW_CFA_offset: r6 (rbp) at cfa-16
  DW_CFA_offset: r12 (r12) at cfa-24
  DW_CFA_offset: r13 (r13) at cfa-32
  DW_CFA_offset: r14 (r14) at cfa-40
  DW_CFA_offset: r15 (r15) at cfa-48
  DW_CFA_advance_loc2: 1081 to 0000000000476198
  DW_CFA_restore: r3 (rbx)
  DW_CFA_advance_loc: 1 to 0000000000476199
  DW_CFA_restore: r15 (r15)
  DW_CFA_advance_loc: 2 to 000000000047619b
  DW_CFA_restore: r14 (r14)
  DW_CFA_advance_loc: 2 to 000000000047619d
  DW_CFA_restore: r13 (r13)
  DW_CFA_advance_loc: 2 to 000000000047619f
  DW_CFA_restore: r12 (r12)
  DW_CFA_advance_loc: 3 to 00000000004761a2
  DW_CFA_restore: r6 (rbp)
  DW_CFA_advance_loc: 1 to 00000000004761a3
  DW_CFA_offset: r3 (rbx) at cfa-56
  DW_CFA_offset: r6 (rbp) at cfa-16
  DW_CFA_offset: r12 (r12) at cfa-24
  DW_CFA_offset: r13 (r13) at cfa-32
  DW_CFA_offset: r14 (r14) at cfa-40
  DW_CFA_offset: r15 (r15) at cfa-48
  DW_CFA_advance_loc: 62 to 00000000004761e1
  DW_CFA_restore: r3 (rbx)
  DW_CFA_advance_loc: 1 to 00000000004761e2
  DW_CFA_restore: r15 (r15)
  DW_CFA_advance_loc: 2 to 00000000004761e4
  DW_CFA_restore: r14 (r14)
  DW_CFA_advance_loc: 2 to 00000000004761e6
  DW_CFA_restore: r13 (r13)
  DW_CFA_advance_loc: 2 to 00000000004761e8
  DW_CFA_restore: r12 (r12)
  DW_CFA_advance_loc: 3 to 00000000004761eb
  DW_CFA_restore: r6 (rbp)
  DW_CFA_advance_loc: 1 to 00000000004761ec
  DW_CFA_offset: r3 (rbx) at cfa-56
  DW_CFA_offset: r6 (rbp) at cfa-16
  DW_CFA_offset: r12 (r12) at cfa-24
  DW_CFA_offset: r13 (r13) at cfa-32
  DW_CFA_offset: r14 (r14) at cfa-40
  DW_CFA_offset: r15 (r15) at cfa-48
  DW_CFA_advance_loc1: 148 to 0000000000476280
  DW_CFA_restore: r3 (rbx)
  DW_CFA_advance_loc: 1 to 0000000000476281
  DW_CFA_restore: r15 (r15)
  DW_CFA_advance_loc: 2 to 0000000000476283
  DW_CFA_restore: r14 (r14)
  DW_CFA_advance_loc: 2 to 0000000000476285
  DW_CFA_restore: r13 (r13)
  DW_CFA_advance_loc: 2 to 0000000000476287
  DW_CFA_restore: r12 (r12)
  DW_CFA_advance_loc: 3 to 000000000047628a
  DW_CFA_restore: r6 (rbp)
  DW_CFA_advance_loc: 1 to 000000000047628b
  DW_CFA_offset: r3 (rbx) at cfa-56
  DW_CFA_offset: r6 (rbp) at cfa-16
  DW_CFA_offset: r12 (r12) at cfa-24
  DW_CFA_offset: r13 (r13) at cfa-32
  DW_CFA_offset: r14 (r14) at cfa-40
  DW_CFA_offset: r15 (r15) at cfa-48
  DW_CFA_advance_loc: 26 to 00000000004762a5
  DW_CFA_restore: r3 (rbx)
  DW_CFA_advance_loc: 1 to 00000000004762a6
  DW_CFA_restore: r15 (r15)
  DW_CFA_advance_loc: 2 to 00000000004762a8
  DW_CFA_restore: r14 (r14)
  DW_CFA_advance_loc: 2 to 00000000004762aa
  DW_CFA_restore: r13 (r13)
  DW_CFA_advance_loc: 2 to 00000000004762ac
  DW_CFA_restore: r12 (r12)
  DW_CFA_advance_loc: 3 to 00000000004762af
  DW_CFA_restore: r6 (rbp)
  DW_CFA_advance_loc: 1 to 00000000004762b0
  DW_CFA_offset: r3 (rbx) at cfa-56
  DW_CFA_offset: r6 (rbp) at cfa-16
  DW_CFA_offset: r12 (r12) at cfa-24
  DW_CFA_offset: r13 (r13) at cfa-32
  DW_CFA_offset: r14 (r14) at cfa-40
  DW_CFA_offset: r15 (r15) at cfa-48
  DW_CFA_advance_loc: 17 to 00000000004762c1
  DW_CFA_restore: r3 (rbx)
  DW_CFA_advance_loc: 1 to 00000000004762c2
  DW_CFA_restore: r15 (r15)
  DW_CFA_advance_loc: 2 to 00000000004762c4
  DW_CFA_restore: r14 (r14)
  DW_CFA_advance_loc: 2 to 00000000004762c6
  DW_CFA_restore: r13 (r13)
  DW_CFA_advance_loc: 2 to 00000000004762c8
  DW_CFA_restore: r12 (r12)
  DW_CFA_advance_loc: 3 to 00000000004762cb
  DW_CFA_restore: r6 (rbp)
  DW_CFA_advance_loc: 1 to 00000000004762cc
  DW_CFA_offset: r3 (rbx) at cfa-56
  DW_CFA_offset: r6 (rbp) at cfa-16
  DW_CFA_offset: r12 (r12) at cfa-24
  DW_CFA_offset: r13 (r13) at cfa-32
  DW_CFA_offset: r14 (r14) at cfa-40
  DW_CFA_offset: r15 (r15) at cfa-48
  DW_CFA_advance_loc: 32 to 00000000004762ec
  DW_CFA_restore: r3 (rbx)
  DW_CFA_advance_loc: 1 to 00000000004762ed
  DW_CFA_restore: r15 (r15)
  DW_CFA_advance_loc: 2 to 00000000004762ef
  DW_CFA_restore: r14 (r14)
  DW_CFA_advance_loc: 2 to 00000000004762f1
  DW_CFA_restore: r13 (r13)
  DW_CFA_advance_loc: 2 to 00000000004762f3
  DW_CFA_restore: r12 (r12)
  DW_CFA_advance_loc: 3 to 00000000004762f6
  DW_CFA_restore: r6 (rbp)
  DW_CFA_advance_loc: 1 to 00000000004762f7
  DW_CFA_offset: r3 (rbx) at cfa-56
  DW_CFA_offset: r6 (rbp) at cfa-16
  DW_CFA_offset: r12 (r12) at cfa-24
  DW_CFA_offset: r13 (r13) at cfa-32
  DW_CFA_offset: r14 (r14) at cfa-40
  DW_CFA_offset: r15 (r15) at cfa-48
  DW_CFA_advance_loc: 18 to 0000000000476309
  DW_CFA_restore: r3 (rbx)
  DW_CFA_advance_loc: 1 to 000000000047630a
  DW_CFA_restore: r15 (r15)
  DW_CFA_advance_loc: 2 to 000000000047630c
  DW_CFA_restore: r14 (r14)
  DW_CFA_advance_loc: 2 to 000000000047630e
  DW_CFA_restore: r13 (r13)
  DW_CFA_advance_loc: 2 to 0000000000476310
  DW_CFA_restore: r12 (r12)
  DW_CFA_advance_loc: 3 to 0000000000476313
  DW_CFA_restore: r6 (rbp)
  DW_CFA_advance_loc: 1 to 0000000000476314
  DW_CFA_offset: r3 (rbx) at cfa-56
  DW_CFA_offset: r6 (rbp) at cfa-16
  DW_CFA_offset: r12 (r12) at cfa-24
  DW_CFA_offset: r13 (r13) at cfa-32
  DW_CFA_offset: r14 (r14) at cfa-40
  DW_CFA_offset: r15 (r15) at cfa-48
  DW_CFA_advance_loc: 35 to 0000000000476337
  DW_CFA_restore: r3 (rbx)
  DW_CFA_advance_loc: 1 to 0000000000476338
  DW_CFA_restore: r15 (r15)
  DW_CFA_advance_loc: 2 to 000000000047633a
  DW_CFA_restore: r14 (r14)
  DW_CFA_advance_loc: 2 to 000000000047633c
  DW_CFA_restore: r13 (r13)
  DW_CFA_advance_loc: 2 to 000000000047633e
  DW_CFA_restore: r12 (r12)
  DW_CFA_advance_loc: 3 to 0000000000476341
  DW_CFA_restore: r6 (rbp)
  DW_CFA_advance_loc: 1 to 0000000000476342
  DW_CFA_offset: r3 (rbx) at cfa-56
  DW_CFA_offset: r6 (rbp) at cfa-16
  DW_CFA_offset: r12 (r12) at cfa-24
  DW_CFA_offset: r13 (r13) at cfa-32
  DW_CFA_offset: r14 (r14) at cfa-40
  DW_CFA_offset: r15 (r15) at cfa-48
  DW_CFA_advance_loc: 21 to 0000000000476357
  DW_CFA_restore: r3 (rbx)
  DW_CFA_advance_loc: 1 to 0000000000476358
  DW_CFA_restore: r15 (r15)
  DW_CFA_advance_loc: 2 to 000000000047635a
  DW_CFA_restore: r14 (r14)
  DW_CFA_advance_loc: 2 to 000000000047635c
  DW_CFA_restore: r13 (r13)
  DW_CFA_advance_loc: 2 to 000000000047635e
  DW_CFA_restore: r12 (r12)
  DW_CFA_advance_loc: 3 to 0000000000476361
  DW_CFA_restore: r6 (rbp)
  DW_CFA_advance_loc: 1 to 0000000000476362
  DW_CFA_offset: r3 (rbx) at cfa-56
  DW_CFA_offset: r6 (rbp) at cfa-16
  DW_CFA_offset: r12 (r12) at cfa-24
  DW_CFA_offset: r13 (r13) at cfa-32
  DW_CFA_offset: r14 (r14) at cfa-40
  DW_CFA_offset: r15 (r15) at cfa-48
  DW_CFA_advance_loc: 38 to 0000000000476388
  DW_CFA_restore: r3 (rbx)
  DW_CFA_advance_loc: 1 to 0000000000476389
  DW_CFA_restore: r15 (r15)
  DW_CFA_advance_loc: 2 to 000000000047638b
  DW_CFA_restore: r14 (r14)
  DW_CFA_advance_loc: 2 to 000000000047638d
  DW_CFA_restore: r13 (r13)
  DW_CFA_advance_loc: 2 to 000000000047638f
  DW_CFA_restore: r12 (r12)
  DW_CFA_advance_loc: 3 to 0000000000476392
  DW_CFA_restore: r6 (rbp)
  DW_CFA_advance_loc: 1 to 0000000000476393
  DW_CFA_offset: r3 (rbx) at cfa-56
  DW_CFA_offset: r6 (rbp) at cfa-16
  DW_CFA_offset: r12 (r12) at cfa-24
  DW_CFA_offset: r13 (r13) at cfa-32
  DW_CFA_offset: r14 (r14) at cfa-40
  DW_CFA_offset: r15 (r15) at cfa-48
  DW_CFA_advance_loc: 24 to 00000000004763ab
  DW_CFA_restore: r3 (rbx)
  DW_CFA_advance_loc: 1 to 00000000004763ac
  DW_CFA_restore: r15 (r15)
  DW_CFA_advance_loc: 2 to 00000000004763ae
  DW_CFA_restore: r14 (r14)
  DW_CFA_advance_loc: 2 to 00000000004763b0
  DW_CFA_restore: r13 (r13)
  DW_CFA_advance_loc: 2 to 00000000004763b2
  DW_CFA_restore: r12 (r12)
  DW_CFA_advance_loc: 3 to 00000000004763b5
  DW_CFA_restore: r6 (rbp)
  DW_CFA_advance_loc: 1 to 00000000004763b6
  DW_CFA_offset: r3 (rbx) at cfa-56
  DW_CFA_offset: r6 (rbp) at cfa-16
  DW_CFA_offset: r12 (r12) at cfa-24
  DW_CFA_offset: r13 (r13) at cfa-32
  DW_CFA_offset: r14 (r14) at cfa-40
  DW_CFA_offset: r15 (r15) at cfa-48
  DW_CFA_advance_loc: 38 to 00000000004763dc
  DW_CFA_restore: r3 (rbx)
  DW_CFA_advance_loc: 1 to 00000000004763dd
  DW_CFA_restore: r15 (r15)
  DW_CFA_advance_loc: 2 to 00000000004763df
  DW_CFA_restore: r14 (r14)
  DW_CFA_advance_loc: 2 to 00000000004763e1
  DW_CFA_restore: r13 (r13)
  DW_CFA_advance_loc: 2 to 00000000004763e3
  DW_CFA_restore: r12 (r12)
  DW_CFA_advance_loc: 3 to 00000000004763e6
  DW_CFA_restore: r6 (rbp)
  DW_CFA_advance_loc: 1 to 00000000004763e7
  DW_CFA_offset: r3 (rbx) at cfa-56
  DW_CFA_offset: r6 (rbp) at cfa-16
  DW_CFA_offset: r12 (r12) at cfa-24
  DW_CFA_offset: r13 (r13) at cfa-32
  DW_CFA_offset: r14 (r14) at cfa-40
  DW_CFA_offset: r15 (r15) at cfa-48
  DW_CFA_advance_loc: 24 to 00000000004763ff
  DW_CFA_restore: r3 (rbx)
  DW_CFA_advance_loc: 1 to 0000000000476400
  DW_CFA_restore: r15 (r15)
  DW_CFA_advance_loc: 2 to 0000000000476402
  DW_CFA_restore: r14 (r14)
  DW_CFA_advance_loc: 2 to 0000000000476404
  DW_CFA_restore: r13 (r13)
  DW_CFA_advance_loc: 2 to 0000000000476406
  DW_CFA_restore: r12 (r12)
  DW_CFA_advance_loc: 3 to 0000000000476409
  DW_CFA_restore: r6 (rbp)
  DW_CFA_advance_loc: 1 to 000000000047640a
  DW_CFA_offset: r3 (rbx) at cfa-56
  DW_CFA_offset: r6 (rbp) at cfa-16
  DW_CFA_offset: r12 (r12) at cfa-24
  DW_CFA_offset: r13 (r13) at cfa-32
  DW_CFA_offset: r14 (r14) at cfa-40
  DW_CFA_offset: r15 (r15) at cfa-48
  DW_CFA_advance_loc: 18 to 000000000047641c
  DW_CFA_restore: r3 (rbx)
  DW_CFA_advance_loc: 1 to 000000000047641d
  DW_CFA_restore: r15 (r15)
  DW_CFA_advance_loc: 2 to 000000000047641f
  DW_CFA_restore: r14 (r14)
  DW_CFA_advance_loc: 2 to 0000000000476421
  DW_CFA_restore: r13 (r13)
  DW_CFA_advance_loc: 2 to 0000000000476423
  DW_CFA_restore: r12 (r12)
  DW_CFA_advance_loc: 3 to 0000000000476426
  DW_CFA_restore: r6 (rbp)
  DW_CFA_advance_loc: 1 to 0000000000476427
  DW_CFA_offset: r3 (rbx) at cfa-56
  DW_CFA_offset: r6 (rbp) at cfa-16
  DW_CFA_offset: r12 (r12) at cfa-24
  DW_CFA_offset: r13 (r13) at cfa-32
  DW_CFA_offset: r14 (r14) at cfa-40
  DW_CFA_offset: r15 (r15) at cfa-48
  DW_CFA_advance_loc1: 80 to 0000000000476477
  DW_CFA_restore: r3 (rbx)
  DW_CFA_advance_loc: 1 to 0000000000476478
  DW_CFA_restore: r15 (r15)
  DW_CFA_advance_loc: 2 to 000000000047647a
  DW_CFA_restore: r14 (r14)
  DW_CFA_advance_loc: 2 to 000000000047647c
  DW_CFA_restore: r13 (r13)
  DW_CFA_advance_loc: 2 to 000000000047647e
  DW_CFA_restore: r12 (r12)
  DW_CFA_advance_loc: 3 to 0000000000476481
  DW_CFA_restore: r6 (rbp)
  DW_CFA_advance_loc: 1 to 0000000000476482
  DW_CFA_offset: r3 (rbx) at cfa-56
  DW_CFA_offset: r6 (rbp) at cfa-16
  DW_CFA_offset: r12 (r12) at cfa-24
  DW_CFA_offset: r13 (r13) at cfa-32
  DW_CFA_offset: r14 (r14) at cfa-40
  DW_CFA_offset: r15 (r15) at cfa-48
  DW_CFA_advance_loc: 35 to 00000000004764a5
  DW_CFA_restore: r3 (rbx)
  DW_CFA_advance_loc: 1 to 00000000004764a6
  DW_CFA_restore: r15 (r15)
  DW_CFA_advance_loc: 2 to 00000000004764a8
  DW_CFA_restore: r14 (r14)
  DW_CFA_advance_loc: 2 to 00000000004764aa
  DW_CFA_restore: r13 (r13)
  DW_CFA_advance_loc: 2 to 00000000004764ac
  DW_CFA_restore: r12 (r12)
  DW_CFA_advance_loc: 3 to 00000000004764af
  DW_CFA_restore: r6 (rbp)
  DW_CFA_advance_loc: 1 to 00000000004764b0
  DW_CFA_offset: r3 (rbx) at cfa-56
  DW_CFA_offset: r6 (rbp) at cfa-16
  DW_CFA_offset: r12 (r12) at cfa-24
  DW_CFA_offset: r13 (r13) at cfa-32
  DW_CFA_offset: r14 (r14) at cfa-40
  DW_CFA_offset: r15 (r15) at cfa-48
  DW_CFA_advance_loc: 21 to 00000000004764c5
  DW_CFA_restore: r3 (rbx)
  DW_CFA_advance_loc: 1 to 00000000004764c6
  DW_CFA_restore: r15 (r15)
  DW_CFA_advance_loc: 2 to 00000000004764c8
  DW_CFA_restore: r14 (r14)
  DW_CFA_advance_loc: 2 to 00000000004764ca
  DW_CFA_restore: r13 (r13)
  DW_CFA_advance_loc: 2 to 00000000004764cc
  DW_CFA_restore: r12 (r12)
  DW_CFA_advance_loc: 3 to 00000000004764cf
  DW_CFA_restore: r6 (rbp)
  DW_CFA_advance_loc: 1 to 00000000004764d0
  DW_CFA_offset: r3 (rbx) at cfa-56
  DW_CFA_offset: r6 (rbp) at cfa-16
  DW_CFA_offset: r12 (r12) at cfa-24
  DW_CFA_offset: r13 (r13) at cfa-32
  DW_CFA_offset: r14 (r14) at cfa-40
  DW_CFA_offset: r15 (r15) at cfa-48
  DW_CFA_advance_loc2: 456 to 0000000000476698
  DW_CFA_restore: r3 (rbx)
  DW_CFA_advance_loc: 1 to 0000000000476699
  DW_CFA_restore: r15 (r15)
  DW_CFA_advance_loc: 2 to 000000000047669b
  DW_CFA_restore: r14 (r14)
  DW_CFA_advance_loc: 2 to 000000000047669d
  DW_CFA_restore: r13 (r13)
  DW_CFA_advance_loc: 2 to 000000000047669f
  DW_CFA_restore: r12 (r12)
  DW_CFA_advance_loc: 3 to 00000000004766a2
  DW_CFA_restore: r6 (rbp)
  DW_CFA_advance_loc: 1 to 00000000004766a3
  DW_CFA_offset: r3 (rbx) at cfa-56
  DW_CFA_offset: r6 (rbp) at cfa-16
  DW_CFA_offset: r12 (r12) at cfa-24
  DW_CFA_offset: r13 (r13) at cfa-32
  DW_CFA_offset: r14 (r14) at cfa-40
  DW_CFA_offset: r15 (r15) at cfa-48
  DW_CFA_advance_loc: 36 to 00000000004766c7
  DW_CFA_restore: r3 (rbx)
  DW_CFA_advance_loc: 1 to 00000000004766c8
  DW_CFA_restore: r15 (r15)
  DW_CFA_advance_loc: 2 to 00000000004766ca
  DW_CFA_restore: r14 (r14)
  DW_CFA_advance_loc: 2 to 00000000004766cc
  DW_CFA_restore: r13 (r13)
  DW_CFA_advance_loc: 2 to 00000000004766ce
  DW_CFA_restore: r12 (r12)
  DW_CFA_advance_loc: 3 to 00000000004766d1
  DW_CFA_restore: r6 (rbp)
  DW_CFA_advance_loc: 1 to 00000000004766d2
  DW_CFA_offset: r3 (rbx) at cfa-56
  DW_CFA_offset: r6 (rbp) at cfa-16
  DW_CFA_offset: r12 (r12) at cfa-24
  DW_CFA_offset: r13 (r13) at cfa-32
  DW_CFA_offset: r14 (r14) at cfa-40
  DW_CFA_offset: r15 (r15) at cfa-48
  DW_CFA_advance_loc: 24 to 00000000004766ea
  DW_CFA_restore: r3 (rbx)
  DW_CFA_advance_loc: 1 to 00000000004766eb
  DW_CFA_restore: r15 (r15)
  DW_CFA_advance_loc: 2 to 00000000004766ed
  DW_CFA_restore: r14 (r14)
  DW_CFA_advance_loc: 2 to 00000000004766ef
  DW_CFA_restore: r13 (r13)
  DW_CFA_advance_loc: 2 to 00000000004766f1
  DW_CFA_restore: r12 (r12)
  DW_CFA_advance_loc: 3 to 00000000004766f4
  DW_CFA_restore: r6 (rbp)
  DW_CFA_advance_loc: 1 to 00000000004766f5
  DW_CFA_offset: r3 (rbx) at cfa-56
  DW_CFA_offset: r6 (rbp) at cfa-16
  DW_CFA_offset: r12 (r12) at cfa-24
  DW_CFA_offset: r13 (r13) at cfa-32
  DW_CFA_offset: r14 (r14) at cfa-40
  DW_CFA_offset: r15 (r15) at cfa-48
  DW_CFA_advance_loc: 36 to 0000000000476719
  DW_CFA_restore: r3 (rbx)
  DW_CFA_advance_loc: 1 to 000000000047671a
  DW_CFA_restore: r15 (r15)
  DW_CFA_advance_loc: 2 to 000000000047671c
  DW_CFA_restore: r14 (r14)
  DW_CFA_advance_loc: 2 to 000000000047671e
  DW_CFA_restore: r13 (r13)
  DW_CFA_advance_loc: 2 to 0000000000476720
  DW_CFA_restore: r12 (r12)
  DW_CFA_advance_loc: 3 to 0000000000476723
  DW_CFA_restore: r6 (rbp)
  DW_CFA_advance_loc: 1 to 0000000000476724
  DW_CFA_offset: r3 (rbx) at cfa-56
  DW_CFA_offset: r6 (rbp) at cfa-16
  DW_CFA_offset: r12 (r12) at cfa-24
  DW_CFA_offset: r13 (r13) at cfa-32
  DW_CFA_offset: r14 (r14) at cfa-40
  DW_CFA_offset: r15 (r15) at cfa-48
  DW_CFA_advance_loc: 24 to 000000000047673c
  DW_CFA_restore: r3 (rbx)
  DW_CFA_advance_loc: 1 to 000000000047673d
  DW_CFA_restore: r15 (r15)
  DW_CFA_advance_loc: 2 to 000000000047673f
  DW_CFA_restore: r14 (r14)
  DW_CFA_advance_loc: 2 to 0000000000476741
  DW_CFA_restore: r13 (r13)
  DW_CFA_advance_loc: 2 to 0000000000476743
  DW_CFA_restore: r12 (r12)
  DW_CFA_advance_loc: 3 to 0000000000476746
  DW_CFA_restore: r6 (rbp)
  DW_CFA_advance_loc: 1 to 0000000000476747
  DW_CFA_offset: r3 (rbx) at cfa-56
  DW_CFA_offset: r6 (rbp) at cfa-16
  DW_CFA_offset: r12 (r12) at cfa-24
  DW_CFA_offset: r13 (r13) at cfa-32
  DW_CFA_offset: r14 (r14) at cfa-40
  DW_CFA_offset: r15 (r15) at cfa-48
  DW_CFA_advance_loc1: 166 to 00000000004767ed
  DW_CFA_restore: r3 (rbx)
  DW_CFA_advance_loc: 1 to 00000000004767ee
  DW_CFA_restore: r15 (r15)
  DW_CFA_advance_loc: 2 to 00000000004767f0
  DW_CFA_restore: r14 (r14)
  DW_CFA_advance_loc: 2 to 00000000004767f2
  DW_CFA_restore: r13 (r13)
  DW_CFA_advance_loc: 2 to 00000000004767f4
  DW_CFA_restore: r12 (r12)
  DW_CFA_advance_loc: 3 to 00000000004767f7
  DW_CFA_restore: r6 (rbp)
  DW_CFA_advance_loc: 1 to 00000000004767f8
  DW_CFA_offset: r3 (rbx) at cfa-56
  DW_CFA_offset: r6 (rbp) at cfa-16
  DW_CFA_offset: r12 (r12) at cfa-24
  DW_CFA_offset: r13 (r13) at cfa-32
  DW_CFA_offset: r14 (r14) at cfa-40
  DW_CFA_offset: r15 (r15) at cfa-48
  DW_CFA_advance_loc1: 184 to 00000000004768b0
  DW_CFA_restore: r3 (rbx)
  DW_CFA_advance_loc: 1 to 00000000004768b1
  DW_CFA_restore: r15 (r15)
  DW_CFA_advance_loc: 2 to 00000000004768b3
  DW_CFA_restore: r14 (r14)
  DW_CFA_advance_loc: 2 to 00000000004768b5
  DW_CFA_restore: r13 (r13)
  DW_CFA_advance_loc: 2 to 00000000004768b7
  DW_CFA_restore: r12 (r12)
  DW_CFA_advance_loc: 3 to 00000000004768ba
  DW_CFA_restore: r6 (rbp)
  DW_CFA_advance_loc: 1 to 00000000004768bb
  DW_CFA_offset: r3 (rbx) at cfa-56
  DW_CFA_offset: r6 (rbp) at cfa-16
  DW_CFA_offset: r12 (r12) at cfa-24
  DW_CFA_offset: r13 (r13) at cfa-32
  DW_CFA_offset: r14 (r14) at cfa-40
  DW_CFA_offset: r15 (r15) at cfa-48
  DW_CFA_advance_loc1: 222 to 0000000000476999
  DW_CFA_restore: r3 (rbx)
  DW_CFA_advance_loc: 1 to 000000000047699a
  DW_CFA_restore: r15 (r15)
  DW_CFA_advance_loc: 2 to 000000000047699c
  DW_CFA_restore: r14 (r14)
  DW_CFA_advance_loc: 2 to 000000000047699e
  DW_CFA_restore: r13 (r13)
  DW_CFA_advance_loc: 2 to 00000000004769a0
  DW_CFA_restore: r12 (r12)
  DW_CFA_advance_loc: 3 to 00000000004769a3
  DW_CFA_restore: r6 (rbp)
  DW_CFA_advance_loc: 1 to 00000000004769a4
  DW_CFA_offset: r3 (rbx) at cfa-56
  DW_CFA_offset: r6 (rbp) at cfa-16
  DW_CFA_offset: r12 (r12) at cfa-24
  DW_CFA_offset: r13 (r13) at cfa-32
  DW_CFA_offset: r14 (r14) at cfa-40
  DW_CFA_offset: r15 (r15) at cfa-48
  DW_CFA_advance_loc1: 222 to 0000000000476a82
  DW_CFA_restore: r3 (rbx)
  DW_CFA_advance_loc: 1 to 0000000000476a83
  DW_CFA_restore: r15 (r15)
  DW_CFA_advance_loc: 2 to 0000000000476a85
  DW_CFA_restore: r14 (r14)
  DW_CFA_advance_loc: 2 to 0000000000476a87
  DW_CFA_restore: r13 (r13)
  DW_CFA_advance_loc: 2 to 0000000000476a89
  DW_CFA_restore: r12 (r12)
  DW_CFA_advance_loc: 3 to 0000000000476a8c
  DW_CFA_restore: r6 (rbp)
  DW_CFA_advance_loc: 1 to 0000000000476a8d
  DW_CFA_offset: r3 (rbx) at cfa-56
  DW_CFA_offset: r6 (rbp) at cfa-16
  DW_CFA_offset: r12 (r12) at cfa-24
  DW_CFA_offset: r13 (r13) at cfa-32
  DW_CFA_offset: r14 (r14) at cfa-40
  DW_CFA_offset: r15 (r15) at cfa-48
  DW_CFA_advance_loc1: 184 to 0000000000476b45
  DW_CFA_restore: r3 (rbx)
  DW_CFA_advance_loc: 1 to 0000000000476b46
  DW_CFA_restore: r15 (r15)
  DW_CFA_advance_loc: 2 to 0000000000476b48
  DW_CFA_restore: r14 (r14)
  DW_CFA_advance_loc: 2 to 0000000000476b4a
  DW_CFA_restore: r13 (r13)
  DW_CFA_advance_loc: 2 to 0000000000476b4c
  DW_CFA_restore: r12 (r12)
  DW_CFA_advance_loc: 3 to 0000000000476b4f
  DW_CFA_restore: r6 (rbp)
  DW_CFA_advance_loc: 1 to 0000000000476b50
  DW_CFA_offset: r3 (rbx) at cfa-56
  DW_CFA_offset: r6 (rbp) at cfa-16
  DW_CFA_offset: r12 (r12) at cfa-24
  DW_CFA_offset: r13 (r13) at cfa-32
  DW_CFA_offset: r14 (r14) at cfa-40
  DW_CFA_offset: r15 (r15) at cfa-48
  DW_CFA_advance_loc1: 229 to 0000000000476c35
  DW_CFA_restore: r3 (rbx)
  DW_CFA_advance_loc: 1 to 0000000000476c36
  DW_CFA_restore: r15 (r15)
  DW_CFA_advance_loc: 2 to 0000000000476c38
  DW_CFA_restore: r14 (r14)
  DW_CFA_advance_loc: 2 to 0000000000476c3a
  DW_CFA_restore: r13 (r13)
  DW_CFA_advance_loc: 2 to 0000000000476c3c
  DW_CFA_restore: r12 (r12)
  DW_CFA_advance_loc: 3 to 0000000000476c3f
  DW_CFA_restore: r6 (rbp)
  DW_CFA_advance_loc: 1 to 0000000000476c40
  DW_CFA_offset: r3 (rbx) at cfa-56
  DW_CFA_offset: r6 (rbp) at cfa-16
  DW_CFA_offset: r12 (r12) at cfa-24
  DW_CFA_offset: r13 (r13) at cfa-32
  DW_CFA_offset: r14 (r14) at cfa-40
  DW_CFA_offset: r15 (r15) at cfa-48
  DW_CFA_advance_loc1: 134 to 0000000000476cc6
  DW_CFA_restore: r3 (rbx)
  DW_CFA_advance_loc: 1 to 0000000000476cc7
  DW_CFA_restore: r15 (r15)
  DW_CFA_advance_loc: 2 to 0000000000476cc9
  DW_CFA_restore: r14 (r14)
  DW_CFA_advance_loc: 2 to 0000000000476ccb
  DW_CFA_restore: r13 (r13)
  DW_CFA_advance_loc: 2 to 0000000000476ccd
  DW_CFA_restore: r12 (r12)
  DW_CFA_advance_loc: 3 to 0000000000476cd0
  DW_CFA_restore: r6 (rbp)
  DW_CFA_advance_loc: 1 to 0000000000476cd1
  DW_CFA_offset: r3 (rbx) at cfa-56
  DW_CFA_offset: r6 (rbp) at cfa-16
  DW_CFA_offset: r12 (r12) at cfa-24
  DW_CFA_offset: r13 (r13) at cfa-32
  DW_CFA_offset: r14 (r14) at cfa-40
  DW_CFA_offset: r15 (r15) at cfa-48
  DW_CFA_advance_loc1: 72 to 0000000000476d19
  DW_CFA_restore: r3 (rbx)
  DW_CFA_advance_loc: 1 to 0000000000476d1a
  DW_CFA_restore: r15 (r15)
  DW_CFA_advance_loc: 2 to 0000000000476d1c
  DW_CFA_restore: r14 (r14)
  DW_CFA_advance_loc: 2 to 0000000000476d1e
  DW_CFA_restore: r13 (r13)
  DW_CFA_advance_loc: 2 to 0000000000476d20
  DW_CFA_restore: r12 (r12)
  DW_CFA_advance_loc: 3 to 0000000000476d23
  DW_CFA_restore: r6 (rbp)
  DW_CFA_advance_loc: 1 to 0000000000476d24
  DW_CFA_offset: r3 (rbx) at cfa-56
  DW_CFA_offset: r6 (rbp) at cfa-16
  DW_CFA_offset: r12 (r12) at cfa-24
  DW_CFA_offset: r13 (r13) at cfa-32
  DW_CFA_offset: r14 (r14) at cfa-40
  DW_CFA_offset: r15 (r15) at cfa-48
  DW_CFA_advance_loc: 61 to 0000000000476d61
  DW_CFA_restore: r3 (rbx)
  DW_CFA_advance_loc: 1 to 0000000000476d62
  DW_CFA_restore: r15 (r15)
  DW_CFA_advance_loc: 2 to 0000000000476d64
  DW_CFA_restore: r14 (r14)
  DW_CFA_advance_loc: 2 to 0000000000476d66
  DW_CFA_restore: r13 (r13)
  DW_CFA_advance_loc: 2 to 0000000000476d68
  DW_CFA_restore: r12 (r12)
  DW_CFA_advance_loc: 3 to 0000000000476d6b
  DW_CFA_restore: r6 (rbp)
  DW_CFA_advance_loc: 1 to 0000000000476d6c
  DW_CFA_offset: r3 (rbx) at cfa-56
  DW_CFA_offset: r6 (rbp) at cfa-16
  DW_CFA_offset: r12 (r12) at cfa-24
  DW_CFA_offset: r13 (r13) at cfa-32
  DW_CFA_offset: r14 (r14) at cfa-40
  DW_CFA_offset: r15 (r15) at cfa-48
  DW_CFA_advance_loc: 35 to 0000000000476d8f
  DW_CFA_restore: r3 (rbx)
  DW_CFA_advance_loc: 1 to 0000000000476d90
  DW_CFA_restore: r15 (r15)
  DW_CFA_advance_loc: 2 to 0000000000476d92
  DW_CFA_restore: r14 (r14)
  DW_CFA_advance_loc: 2 to 0000000000476d94
  DW_CFA_restore: r13 (r13)
  DW_CFA_advance_loc: 2 to 0000000000476d96
  DW_CFA_restore: r12 (r12)
  DW_CFA_advance_loc: 3 to 0000000000476d99
  DW_CFA_restore: r6 (rbp)
  DW_CFA_advance_loc: 1 to 0000000000476d9a
  DW_CFA_offset: r3 (rbx) at cfa-56
  DW_CFA_offset: r6 (rbp) at cfa-16
  DW_CFA_offset: r12 (r12) at cfa-24
  DW_CFA_offset: r13 (r13) at cfa-32
  DW_CFA_offset: r14 (r14) at cfa-40
  DW_CFA_offset: r15 (r15) at cfa-48
  DW_CFA_advance_loc: 21 to 0000000000476daf
  DW_CFA_restore: r3 (rbx)
  DW_CFA_advance_loc: 1 to 0000000000476db0
  DW_CFA_restore: r15 (r15)
  DW_CFA_advance_loc: 2 to 0000000000476db2
  DW_CFA_restore: r14 (r14)
  DW_CFA_advance_loc: 2 to 0000000000476db4
  DW_CFA_restore: r13 (r13)
  DW_CFA_advance_loc: 2 to 0000000000476db6
  DW_CFA_restore: r12 (r12)
  DW_CFA_advance_loc: 3 to 0000000000476db9
  DW_CFA_restore: r6 (rbp)
  DW_CFA_advance_loc: 1 to 0000000000476dba
  DW_CFA_offset: r3 (rbx) at cfa-56
  DW_CFA_offset: r6 (rbp) at cfa-16
  DW_CFA_offset: r12 (r12) at cfa-24
  DW_CFA_offset: r13 (r13) at cfa-32
  DW_CFA_offset: r14 (r14) at cfa-40
  DW_CFA_offset: r15 (r15) at cfa-48
  DW_CFA_advance_loc: 35 to 0000000000476ddd
  DW_CFA_restore: r3 (rbx)
  DW_CFA_advance_loc: 1 to 0000000000476dde
  DW_CFA_restore: r15 (r15)
  DW_CFA_advance_loc: 2 to 0000000000476de0
  DW_CFA_restore: r14 (r14)
  DW_CFA_advance_loc: 2 to 0000000000476de2
  DW_CFA_restore: r13 (r13)
  DW_CFA_advance_loc: 2 to 0000000000476de4
  DW_CFA_restore: r12 (r12)
  DW_CFA_advance_loc: 3 to 0000000000476de7
  DW_CFA_restore: r6 (rbp)
  DW_CFA_advance_loc: 1 to 0000000000476de8
  DW_CFA_offset: r3 (rbx) at cfa-56
  DW_CFA_offset: r6 (rbp) at cfa-16
  DW_CFA_offset: r12 (r12) at cfa-24
  DW_CFA_offset: r13 (r13) at cfa-32
  DW_CFA_offset: r14 (r14) at cfa-40
  DW_CFA_offset: r15 (r15) at cfa-48
  DW_CFA_advance_loc: 21 to 0000000000476dfd
  DW_CFA_restore: r3 (rbx)
  DW_CFA_advance_loc: 1 to 0000000000476dfe
  DW_CFA_restore: r15 (r15)
  DW_CFA_advance_loc: 2 to 0000000000476e00
  DW_CFA_restore: r14 (r14)
  DW_CFA_advance_loc: 2 to 0000000000476e02
  DW_CFA_restore: r13 (r13)
  DW_CFA_advance_loc: 2 to 0000000000476e04
  DW_CFA_restore: r12 (r12)
  DW_CFA_advance_loc: 3 to 0000000000476e07
  DW_CFA_restore: r6 (rbp)
  DW_CFA_advance_loc: 1 to 0000000000476e08
  DW_CFA_offset: r3 (rbx) at cfa-56
  DW_CFA_offset: r6 (rbp) at cfa-16
  DW_CFA_offset: r12 (r12) at cfa-24
  DW_CFA_offset: r13 (r13) at cfa-32
  DW_CFA_offset: r14 (r14) at cfa-40
  DW_CFA_offset: r15 (r15) at cfa-48
  DW_CFA_advance_loc: 38 to 0000000000476e2e
  DW_CFA_restore: r3 (rbx)
  DW_CFA_advance_loc: 1 to 0000000000476e2f
  DW_CFA_restore: r15 (r15)
  DW_CFA_advance_loc: 2 to 0000000000476e31
  DW_CFA_restore: r14 (r14)
  DW_CFA_advance_loc: 2 to 0000000000476e33
  DW_CFA_restore: r13 (r13)
  DW_CFA_advance_loc: 2 to 0000000000476e35
  DW_CFA_restore: r12 (r12)
  DW_CFA_advance_loc: 3 to 0000000000476e38
  DW_CFA_restore: r6 (rbp)
  DW_CFA_advance_loc: 1 to 0000000000476e39
  DW_CFA_offset: r3 (rbx) at cfa-56
  DW_CFA_offset: r6 (rbp) at cfa-16
  DW_CFA_offset: r12 (r12) at cfa-24
  DW_CFA_offset: r13 (r13) at cfa-32
  DW_CFA_offset: r14 (r14) at cfa-40
  DW_CFA_offset: r15 (r15) at cfa-48
  DW_CFA_advance_loc: 24 to 0000000000476e51
  DW_CFA_restore: r3 (rbx)
  DW_CFA_advance_loc: 1 to 0000000000476e52
  DW_CFA_restore: r15 (r15)
  DW_CFA_advance_loc: 2 to 0000000000476e54
  DW_CFA_restore: r14 (r14)
  DW_CFA_advance_loc: 2 to 0000000000476e56
  DW_CFA_restore: r13 (r13)
  DW_CFA_advance_loc: 2 to 0000000000476e58
  DW_CFA_restore: r12 (r12)
  DW_CFA_advance_loc: 3 to 0000000000476e5b
  DW_CFA_restore: r6 (rbp)
  DW_CFA_advance_loc: 1 to 0000000000476e5c
  DW_CFA_offset: r3 (rbx) at cfa-56
  DW_CFA_offset: r6 (rbp) at cfa-16
  DW_CFA_offset: r12 (r12) at cfa-24
  DW_CFA_offset: r13 (r13) at cfa-32
  DW_CFA_offset: r14 (r14) at cfa-40
  DW_CFA_offset: r15 (r15) at cfa-48
  DW_CFA_advance_loc2: 317 to 0000000000476f99
  DW_CFA_restore: r3 (rbx)
  DW_CFA_advance_loc: 1 to 0000000000476f9a
  DW_CFA_restore: r15 (r15)
  DW_CFA_advance_loc: 2 to 0000000000476f9c
  DW_CFA_restore: r14 (r14)
  DW_CFA_advance_loc: 2 to 0000000000476f9e
  DW_CFA_restore: r13 (r13)
  DW_CFA_advance_loc: 2 to 0000000000476fa0
  DW_CFA_restore: r12 (r12)
  DW_CFA_advance_loc: 3 to 0000000000476fa3
  DW_CFA_restore: r6 (rbp)
  DW_CFA_advance_loc: 1 to 0000000000476fa4
  DW_CFA_offset: r3 (rbx) at cfa-56
  DW_CFA_offset: r6 (rbp) at cfa-16
  DW_CFA_offset: r12 (r12) at cfa-24
  DW_CFA_offset: r13 (r13) at cfa-32
  DW_CFA_offset: r14 (r14) at cfa-40
  DW_CFA_offset: r15 (r15) at cfa-48
  DW_CFA_advance_loc1: 184 to 000000000047705c
  DW_CFA_restore: r3 (rbx)
  DW_CFA_advance_loc: 1 to 000000000047705d
  DW_CFA_restore: r15 (r15)
  DW_CFA_advance_loc: 2 to 000000000047705f
  DW_CFA_restore: r14 (r14)
  DW_CFA_advance_loc: 2 to 0000000000477061
  DW_CFA_restore: r13 (r13)
  DW_CFA_advance_loc: 2 to 0000000000477063
  DW_CFA_restore: r12 (r12)
  DW_CFA_advance_loc: 3 to 0000000000477066
  DW_CFA_restore: r6 (rbp)
  DW_CFA_nop
  DW_CFA_nop
  DW_CFA_nop
  DW_CFA_nop

00005200 0000000000000184 0000515c FDE cie=000000a8 pc=0000000000477070..000000000047b1b0
  DW_CFA_advance_loc: 1 to 0000000000477071
  DW_CFA_def_cfa_offset: 16
  DW_CFA_advance_loc: 3 to 0000000000477074
  DW_CFA_def_cfa: r6 (rbp) ofs 16
  DW_CFA_offset: r6 (rbp) at cfa-16
  DW_CFA_advance_loc: 16 to 0000000000477084
  DW_CFA_offset: r3 (rbx) at cfa-56
  DW_CFA_offset: r12 (r12) at cfa-24
  DW_CFA_offset: r13 (r13) at cfa-32
  DW_CFA_offset: r14 (r14) at cfa-40
  DW_CFA_offset: r15 (r15) at cfa-48
  DW_CFA_advance_loc2: 818 to 00000000004773b6
  DW_CFA_restore: r3 (rbx)
  DW_CFA_advance_loc: 1 to 00000000004773b7
  DW_CFA_restore: r15 (r15)
  DW_CFA_advance_loc: 2 to 00000000004773b9
  DW_CFA_restore: r14 (r14)
  DW_CFA_advance_loc: 2 to 00000000004773bb
  DW_CFA_restore: r13 (r13)
  DW_CFA_advance_loc: 2 to 00000000004773bd
  DW_CFA_restore: r12 (r12)
  DW_CFA_advance_loc: 3 to 00000000004773c0
  DW_CFA_restore: r6 (rbp)
  DW_CFA_advance_loc: 1 to 00000000004773c1
  DW_CFA_offset: r3 (rbx) at cfa-56
  DW_CFA_offset: r6 (rbp) at cfa-16
  DW_CFA_offset: r12 (r12) at cfa-24
  DW_CFA_offset: r13 (r13) at cfa-32
  DW_CFA_offset: r14 (r14) at cfa-40
  DW_CFA_offset: r15 (r15) at cfa-48
  DW_CFA_advance_loc1: 138 to 000000000047744b
  DW_CFA_restore: r3 (rbx)
  DW_CFA_advance_loc: 1 to 000000000047744c
  DW_CFA_restore: r15 (r15)
  DW_CFA_advance_loc: 2 to 000000000047744e
  DW_CFA_restore: r14 (r14)
  DW_CFA_advance_loc: 2 to 0000000000477450
  DW_CFA_restore: r13 (r13)
  DW_CFA_advance_loc: 2 to 0000000000477452
  DW_CFA_restore: r12 (r12)
  DW_CFA_advance_loc: 3 to 0000000000477455
  DW_CFA_restore: r6 (rbp)
  DW_CFA_advance_loc: 1 to 0000000000477456
  DW_CFA_offset: r3 (rbx) at cfa-56
  DW_CFA_offset: r6 (rbp) at cfa-16
  DW_CFA_offset: r12 (r12) at cfa-24
  DW_CFA_offset: r13 (r13) at cfa-32
  DW_CFA_offset: r14 (r14) at cfa-40
  DW_CFA_offset: r15 (r15) at cfa-48
  DW_CFA_advance_loc1: 105 to 00000000004774bf
  DW_CFA_restore: r3 (rbx)
  DW_CFA_advance_loc: 1 to 00000000004774c0
  DW_CFA_restore: r15 (r15)
  DW_CFA_advance_loc: 2 to 00000000004774c2
  DW_CFA_restore: r14 (r14)
  DW_CFA_advance_loc: 2 to 00000000004774c4
  DW_CFA_restore: r13 (r13)
  DW_CFA_advance_loc: 2 to 00000000004774c6
  DW_CFA_restore: r12 (r12)
  DW_CFA_advance_loc: 3 to 00000000004774c9
  DW_CFA_restore: r6 (rbp)
  DW_CFA_advance_loc: 1 to 00000000004774ca
  DW_CFA_offset: r3 (rbx) at cfa-56
  DW_CFA_offset: r6 (rbp) at cfa-16
  DW_CFA_offset: r12 (r12) at cfa-24
  DW_CFA_offset: r13 (r13) at cfa-32
  DW_CFA_offset: r14 (r14) at cfa-40
  DW_CFA_offset: r15 (r15) at cfa-48
  DW_CFA_advance_loc: 42 to 00000000004774f4
  DW_CFA_restore: r3 (rbx)
  DW_CFA_advance_loc: 1 to 00000000004774f5
  DW_CFA_restore: r15 (r15)
  DW_CFA_advance_loc: 2 to 00000000004774f7
  DW_CFA_restore: r14 (r14)
  DW_CFA_advance_loc: 2 to 00000000004774f9
  DW_CFA_restore: r13 (r13)
  DW_CFA_advance_loc: 2 to 00000000004774fb
  DW_CFA_restore: r12 (r12)
  DW_CFA_advance_loc: 3 to 00000000004774fe
  DW_CFA_restore: r6 (rbp)
  DW_CFA_advance_loc: 1 to 00000000004774ff
  DW_CFA_offset: r3 (rbx) at cfa-56
  DW_CFA_offset: r6 (rbp) at cfa-16
  DW_CFA_offset: r12 (r12) at cfa-24
  DW_CFA_offset: r13 (r13) at cfa-32
  DW_CFA_offset: r14 (r14) at cfa-40
  DW_CFA_offset: r15 (r15) at cfa-48
  DW_CFA_advance_loc2: 3198 to 000000000047817d
  DW_CFA_restore: r3 (rbx)
  DW_CFA_advance_loc: 1 to 000000000047817e
  DW_CFA_restore: r15 (r15)
  DW_CFA_advance_loc: 2 to 0000000000478180
  DW_CFA_restore: r14 (r14)
  DW_CFA_advance_loc: 2 to 0000000000478182
  DW_CFA_restore: r13 (r13)
  DW_CFA_advance_loc: 2 to 0000000000478184
  DW_CFA_restore: r12 (r12)
  DW_CFA_advance_loc: 3 to 0000000000478187
  DW_CFA_restore: r6 (rbp)
  DW_CFA_advance_loc: 1 to 0000000000478188
  DW_CFA_offset: r3 (rbx) at cfa-56
  DW_CFA_offset: r6 (rbp) at cfa-16
  DW_CFA_offset: r12 (r12) at cfa-24
  DW_CFA_offset: r13 (r13) at cfa-32
  DW_CFA_offset: r14 (r14) at cfa-40
  DW_CFA_offset: r15 (r15) at cfa-48
  DW_CFA_advance_loc2: 2592 to 0000000000478ba8
  DW_CFA_restore: r3 (rbx)
  DW_CFA_advance_loc: 1 to 0000000000478ba9
  DW_CFA_restore: r15 (r15)
  DW_CFA_advance_loc: 2 to 0000000000478bab
  DW_CFA_restore: r14 (r14)
  DW_CFA_advance_loc: 2 to 0000000000478bad
  DW_CFA_restore: r13 (r13)
  DW_CFA_advance_loc: 2 to 0000000000478baf
  DW_CFA_restore: r12 (r12)
  DW_CFA_advance_loc: 3 to 0000000000478bb2
  DW_CFA_restore: r6 (rbp)
  DW_CFA_advance_loc: 1 to 0000000000478bb3
  DW_CFA_offset: r3 (rbx) at cfa-56
  DW_CFA_offset: r6 (rbp) at cfa-16
  DW_CFA_offset: r12 (r12) at cfa-24
  DW_CFA_offset: r13 (r13) at cfa-32
  DW_CFA_offset: r14 (r14) at cfa-40
  DW_CFA_offset: r15 (r15) at cfa-48
  DW_CFA_advance_loc1: 195 to 0000000000478c76
  DW_CFA_restore: r3 (rbx)
  DW_CFA_advance_loc: 1 to 0000000000478c77
  DW_CFA_restore: r15 (r15)
  DW_CFA_advance_loc: 2 to 0000000000478c79
  DW_CFA_restore: r14 (r14)
  DW_CFA_advance_loc: 2 to 0000000000478c7b
  DW_CFA_restore: r13 (r13)
  DW_CFA_advance_loc: 2 to 0000000000478c7d
  DW_CFA_restore: r12 (r12)
  DW_CFA_advance_loc: 3 to 0000000000478c80
  DW_CFA_restore: r6 (rbp)
  DW_CFA_advance_loc: 1 to 0000000000478c81
  DW_CFA_offset: r3 (rbx) at cfa-56
  DW_CFA_offset: r6 (rbp) at cfa-16
  DW_CFA_offset: r12 (r12) at cfa-24
  DW_CFA_offset: r13 (r13) at cfa-32
  DW_CFA_offset: r14 (r14) at cfa-40
  DW_CFA_offset: r15 (r15) at cfa-48
  DW_CFA_advance_loc1: 205 to 0000000000478d4e
  DW_CFA_restore: r3 (rbx)
  DW_CFA_advance_loc: 1 to 0000000000478d4f
  DW_CFA_restore: r15 (r15)
  DW_CFA_advance_loc: 2 to 0000000000478d51
  DW_CFA_restore: r14 (r14)
  DW_CFA_advance_loc: 2 to 0000000000478d53
  DW_CFA_restore: r13 (r13)
  DW_CFA_advance_loc: 2 to 0000000000478d55
  DW_CFA_restore: r12 (r12)
  DW_CFA_advance_loc: 3 to 0000000000478d58
  DW_CFA_restore: r6 (rbp)
  DW_CFA_advance_loc: 1 to 0000000000478d59
  DW_CFA_offset: r3 (rbx) at cfa-56
  DW_CFA_offset: r6 (rbp) at cfa-16
  DW_CFA_offset: r12 (r12) at cfa-24
  DW_CFA_offset: r13 (r13) at cfa-32
  DW_CFA_offset: r14 (r14) at cfa-40
  DW_CFA_offset: r15 (r15) at cfa-48
  DW_CFA_advance_loc2: 2477 to 0000000000479706
  DW_CFA_restore: r3 (rbx)
  DW_CFA_advance_loc: 1 to 0000000000479707
  DW_CFA_restore: r15 (r15)
  DW_CFA_advance_loc: 2 to 0000000000479709
  DW_CFA_restore: r14 (r14)
  DW_CFA_advance_loc: 2 to 000000000047970b
  DW_CFA_restore: r13 (r13)
  DW_CFA_advance_loc: 2 to 000000000047970d
  DW_CFA_restore: r12 (r12)
  DW_CFA_advance_loc: 3 to 0000000000479710
  DW_CFA_restore: r6 (rbp)
  DW_CFA_advance_loc: 1 to 0000000000479711
  DW_CFA_offset: r3 (rbx) at cfa-56
  DW_CFA_offset: r6 (rbp) at cfa-16
  DW_CFA_offset: r12 (r12) at cfa-24
  DW_CFA_offset: r13 (r13) at cfa-32
  DW_CFA_offset: r14 (r14) at cfa-40
  DW_CFA_offset: r15 (r15) at cfa-48
  DW_CFA_advance_loc2: 3269 to 000000000047a3d6
  DW_CFA_restore: r3 (rbx)
  DW_CFA_advance_loc: 1 to 000000000047a3d7
  DW_CFA_restore: r15 (r15)
  DW_CFA_advance_loc: 2 to 000000000047a3d9
  DW_CFA_restore: r14 (r14)
  DW_CFA_advance_loc: 2 to 000000000047a3db
  DW_CFA_restore: r13 (r13)
  DW_CFA_advance_loc: 2 to 000000000047a3dd
  DW_CFA_restore: r12 (r12)
  DW_CFA_advance_loc: 3 to 000000000047a3e0
  DW_CFA_restore: r6 (rbp)
  DW_CFA_advance_loc: 1 to 000000000047a3e1
  DW_CFA_offset: r3 (rbx) at cfa-56
  DW_CFA_offset: r6 (rbp) at cfa-16
  DW_CFA_offset: r12 (r12) at cfa-24
  DW_CFA_offset: r13 (r13) at cfa-32
  DW_CFA_offset: r14 (r14) at cfa-40
  DW_CFA_offset: r15 (r15) at cfa-48
  DW_CFA_advance_loc2: 333 to 000000000047a52e
  DW_CFA_restore: r3 (rbx)
  DW_CFA_advance_loc: 1 to 000000000047a52f
  DW_CFA_restore: r15 (r15)
  DW_CFA_advance_loc: 2 to 000000000047a531
  DW_CFA_restore: r14 (r14)
  DW_CFA_advance_loc: 2 to 000000000047a533
  DW_CFA_restore: r13 (r13)
  DW_CFA_advance_loc: 2 to 000000000047a535
  DW_CFA_restore: r12 (r12)
  DW_CFA_advance_loc: 3 to 000000000047a538
  DW_CFA_restore: r6 (rbp)
  DW_CFA_advance_loc: 1 to 000000000047a539
  DW_CFA_offset: r3 (rbx) at cfa-56
  DW_CFA_offset: r6 (rbp) at cfa-16
  DW_CFA_offset: r12 (r12) at cfa-24
  DW_CFA_offset: r13 (r13) at cfa-32
  DW_CFA_offset: r14 (r14) at cfa-40
  DW_CFA_offset: r15 (r15) at cfa-48
  DW_CFA_advance_loc2: 874 to 000000000047a8a3
  DW_CFA_restore: r3 (rbx)
  DW_CFA_advance_loc: 1 to 000000000047a8a4
  DW_CFA_restore: r15 (r15)
  DW_CFA_advance_loc: 2 to 000000000047a8a6
  DW_CFA_restore: r14 (r14)
  DW_CFA_advance_loc: 2 to 000000000047a8a8
  DW_CFA_restore: r13 (r13)
  DW_CFA_advance_loc: 2 to 000000000047a8aa
  DW_CFA_restore: r12 (r12)
  DW_CFA_advance_loc: 3 to 000000000047a8ad
  DW_CFA_restore: r6 (rbp)
  DW_CFA_advance_loc: 1 to 000000000047a8ae
  DW_CFA_offset: r3 (rbx) at cfa-56
  DW_CFA_offset: r6 (rbp) at cfa-16
  DW_CFA_offset: r12 (r12) at cfa-24
  DW_CFA_offset: r13 (r13) at cfa-32
  DW_CFA_offset: r14 (r14) at cfa-40
  DW_CFA_offset: r15 (r15) at cfa-48
  DW_CFA_advance_loc2: 699 to 000000000047ab69
  DW_CFA_restore: r3 (rbx)
  DW_CFA_advance_loc: 1 to 000000000047ab6a
  DW_CFA_restore: r15 (r15)
  DW_CFA_advance_loc: 2 to 000000000047ab6c
  DW_CFA_restore: r14 (r14)
  DW_CFA_advance_loc: 2 to 000000000047ab6e
  DW_CFA_restore: r13 (r13)
  DW_CFA_advance_loc: 2 to 000000000047ab70
  DW_CFA_restore: r12 (r12)
  DW_CFA_advance_loc: 3 to 000000000047ab73
  DW_CFA_restore: r6 (rbp)
  DW_CFA_advance_loc: 1 to 000000000047ab74
  DW_CFA_offset: r3 (rbx) at cfa-56
  DW_CFA_offset: r6 (rbp) at cfa-16
  DW_CFA_offset: r12 (r12) at cfa-24
  DW_CFA_offset: r13 (r13) at cfa-32
  DW_CFA_offset: r14 (r14) at cfa-40
  DW_CFA_offset: r15 (r15) at cfa-48
  DW_CFA_nop
  DW_CFA_nop
  DW_CFA_nop

00005388 000000000000004c 000052e4 FDE cie=000000a8 pc=000000000047b1b0..000000000047b380
  DW_CFA_advance_loc: 1 to 000000000047b1b1
  DW_CFA_def_cfa_offset: 16
  DW_CFA_advance_loc: 3 to 000000000047b1b4
  DW_CFA_def_cfa: r6 (rbp) ofs 16
  DW_CFA_offset: r6 (rbp) at cfa-16
  DW_CFA_advance_loc: 15 to 000000000047b1c3
  DW_CFA_offset: r12 (r12) at cfa-24
  DW_CFA_offset: r13 (r13) at cfa-32
  DW_CFA_offset: r14 (r14) at cfa-40
  DW_CFA_offset: r15 (r15) at cfa-48
  DW_CFA_advance_loc2: 391 to 000000000047b34a
  DW_CFA_restore: r15 (r15)
  DW_CFA_advance_loc: 2 to 000000000047b34c
  DW_CFA_restore: r14 (r14)
  DW_CFA_advance_loc: 2 to 000000000047b34e
  DW_CFA_restore: r13 (r13)
  DW_CFA_advance_loc: 2 to 000000000047b350
  DW_CFA_restore: r12 (r12)
  DW_CFA_advance_loc: 3 to 000000000047b353
  DW_CFA_restore: r6 (rbp)
  DW_CFA_advance_loc: 1 to 000000000047b354
  DW_CFA_offset: r6 (rbp) at cfa-16
  DW_CFA_offset: r12 (r12) at cfa-24
  DW_CFA_offset: r13 (r13) at cfa-32
  DW_CFA_offset: r14 (r14) at cfa-40
  DW_CFA_offset: r15 (r15) at cfa-48
  DW_CFA_advance_loc: 19 to 000000000047b367
  DW_CFA_restore: r15 (r15)
  DW_CFA_advance_loc: 2 to 000000000047b369
  DW_CFA_restore: r14 (r14)
  DW_CFA_advance_loc: 2 to 000000000047b36b
  DW_CFA_restore: r13 (r13)
  DW_CFA_advance_loc: 2 to 000000000047b36d
  DW_CFA_restore: r12 (r12)
  DW_CFA_advance_loc: 3 to 000000000047b370
  DW_CFA_restore: r6 (rbp)
  DW_CFA_nop
  DW_CFA_nop
  DW_CFA_nop
  DW_CFA_nop
  DW_CFA_nop

000053d8 000000000000002c 00005334 FDE cie=000000a8 pc=000000000047b380..000000000047b790
  DW_CFA_advance_loc: 1 to 000000000047b381
  DW_CFA_def_cfa_offset: 16
  DW_CFA_advance_loc: 3 to 000000000047b384
  DW_CFA_def_cfa: r6 (rbp) ofs 16
  DW_CFA_offset: r6 (rbp) at cfa-16
  DW_CFA_advance_loc2: 989 to 000000000047b761
  DW_CFA_restore: r6 (rbp)
  DW_CFA_advance_loc: 1 to 000000000047b762
  DW_CFA_offset: r6 (rbp) at cfa-16
  DW_CFA_advance_loc: 6 to 000000000047b768
  DW_CFA_restore: r6 (rbp)
  DW_CFA_advance_loc: 1 to 000000000047b769
  DW_CFA_offset: r6 (rbp) at cfa-16
  DW_CFA_nop
  DW_CFA_nop
  DW_CFA_nop

00005408 0000000000000534 00005364 FDE cie=000000a8 pc=000000000047b790..000000000047d390
  DW_CFA_advance_loc: 1 to 000000000047b791
  DW_CFA_def_cfa_offset: 16
  DW_CFA_advance_loc: 3 to 000000000047b794
  DW_CFA_def_cfa: r6 (rbp) ofs 16
  DW_CFA_offset: r6 (rbp) at cfa-16
  DW_CFA_advance_loc1: 84 to 000000000047b7e8
  DW_CFA_offset: r3 (rbx) at cfa-56
  DW_CFA_offset: r12 (r12) at cfa-24
  DW_CFA_offset: r13 (r13) at cfa-32
  DW_CFA_offset: r14 (r14) at cfa-40
  DW_CFA_offset: r15 (r15) at cfa-48
  DW_CFA_advance_loc2: 289 to 000000000047b909
  DW_CFA_restore: r3 (rbx)
  DW_CFA_advance_loc: 1 to 000000000047b90a
  DW_CFA_restore: r15 (r15)
  DW_CFA_advance_loc: 2 to 000000000047b90c
  DW_CFA_restore: r14 (r14)
  DW_CFA_advance_loc: 2 to 000000000047b90e
  DW_CFA_restore: r13 (r13)
  DW_CFA_advance_loc: 2 to 000000000047b910
  DW_CFA_restore: r12 (r12)
  DW_CFA_advance_loc: 3 to 000000000047b913
  DW_CFA_restore: r6 (rbp)
  DW_CFA_advance_loc: 1 to 000000000047b914
  DW_CFA_offset: r3 (rbx) at cfa-56
  DW_CFA_offset: r6 (rbp) at cfa-16
  DW_CFA_offset: r12 (r12) at cfa-24
  DW_CFA_offset: r13 (r13) at cfa-32
  DW_CFA_offset: r14 (r14) at cfa-40
  DW_CFA_offset: r15 (r15) at cfa-48
  DW_CFA_advance_loc1: 207 to 000000000047b9e3
  DW_CFA_restore: r3 (rbx)
  DW_CFA_advance_loc: 1 to 000000000047b9e4
  DW_CFA_restore: r15 (r15)
  DW_CFA_advance_loc: 2 to 000000000047b9e6
  DW_CFA_restore: r14 (r14)
  DW_CFA_advance_loc: 2 to 000000000047b9e8
  DW_CFA_restore: r13 (r13)
  DW_CFA_advance_loc: 2 to 000000000047b9ea
  DW_CFA_restore: r12 (r12)
  DW_CFA_advance_loc: 3 to 000000000047b9ed
  DW_CFA_restore: r6 (rbp)
  DW_CFA_advance_loc: 1 to 000000000047b9ee
  DW_CFA_offset: r3 (rbx) at cfa-56
  DW_CFA_offset: r6 (rbp) at cfa-16
  DW_CFA_offset: r12 (r12) at cfa-24
  DW_CFA_offset: r13 (r13) at cfa-32
  DW_CFA_offset: r14 (r14) at cfa-40
  DW_CFA_offset: r15 (r15) at cfa-48
  DW_CFA_advance_loc2: 943 to 000000000047bd9d
  DW_CFA_restore: r3 (rbx)
  DW_CFA_advance_loc: 1 to 000000000047bd9e
  DW_CFA_restore: r15 (r15)
  DW_CFA_advance_loc: 2 to 000000000047bda0
  DW_CFA_restore: r14 (r14)
  DW_CFA_advance_loc: 2 to 000000000047bda2
  DW_CFA_restore: r13 (r13)
  DW_CFA_advance_loc: 2 to 000000000047bda4
  DW_CFA_restore: r12 (r12)
  DW_CFA_advance_loc: 3 to 000000000047bda7
  DW_CFA_restore: r6 (rbp)
  DW_CFA_advance_loc: 1 to 000000000047bda8
  DW_CFA_offset: r3 (rbx) at cfa-56
  DW_CFA_offset: r6 (rbp) at cfa-16
  DW_CFA_offset: r12 (r12) at cfa-24
  DW_CFA_offset: r13 (r13) at cfa-32
  DW_CFA_offset: r14 (r14) at cfa-40
  DW_CFA_offset: r15 (r15) at cfa-48
  DW_CFA_advance_loc1: 170 to 000000000047be52
  DW_CFA_restore: r3 (rbx)
  DW_CFA_advance_loc: 1 to 000000000047be53
  DW_CFA_restore: r15 (r15)
  DW_CFA_advance_loc: 2 to 000000000047be55
  DW_CFA_restore: r14 (r14)
  DW_CFA_advance_loc: 2 to 000000000047be57
  DW_CFA_restore: r13 (r13)
  DW_CFA_advance_loc: 2 to 000000000047be59
  DW_CFA_restore: r12 (r12)
  DW_CFA_advance_loc: 3 to 000000000047be5c
  DW_CFA_restore: r6 (rbp)
  DW_CFA_advance_loc: 1 to 000000000047be5d
  DW_CFA_offset: r3 (rbx) at cfa-56
  DW_CFA_offset: r6 (rbp) at cfa-16
  DW_CFA_offset: r12 (r12) at cfa-24
  DW_CFA_offset: r13 (r13) at cfa-32
  DW_CFA_offset: r14 (r14) at cfa-40
  DW_CFA_offset: r15 (r15) at cfa-48
  DW_CFA_advance_loc1: 87 to 000000000047beb4
  DW_CFA_restore: r3 (rbx)
  DW_CFA_advance_loc: 1 to 000000000047beb5
  DW_CFA_restore: r15 (r15)
  DW_CFA_advance_loc: 2 to 000000000047beb7
  DW_CFA_restore: r14 (r14)
  DW_CFA_advance_loc: 2 to 000000000047beb9
  DW_CFA_restore: r13 (r13)
  DW_CFA_advance_loc: 2 to 000000000047bebb
  DW_CFA_restore: r12 (r12)
  DW_CFA_advance_loc: 3 to 000000000047bebe
  DW_CFA_restore: r6 (rbp)
  DW_CFA_advance_loc: 1 to 000000000047bebf
  DW_CFA_offset: r3 (rbx) at cfa-56
  DW_CFA_offset: r6 (rbp) at cfa-16
  DW_CFA_offset: r12 (r12) at cfa-24
  DW_CFA_offset: r13 (r13) at cfa-32
  DW_CFA_offset: r14 (r14) at cfa-40
  DW_CFA_offset: r15 (r15) at cfa-48
  DW_CFA_advance_loc2: 384 to 000000000047c03f
  DW_CFA_restore: r3 (rbx)
  DW_CFA_advance_loc: 1 to 000000000047c040
  DW_CFA_restore: r15 (r15)
  DW_CFA_advance_loc: 2 to 000000000047c042
  DW_CFA_restore: r14 (r14)
  DW_CFA_advance_loc: 2 to 000000000047c044
  DW_CFA_restore: r13 (r13)
  DW_CFA_advance_loc: 2 to 000000000047c046
  DW_CFA_restore: r12 (r12)
  DW_CFA_advance_loc: 3 to 000000000047c049
  DW_CFA_restore: r6 (rbp)
  DW_CFA_advance_loc: 1 to 000000000047c04a
  DW_CFA_offset: r3 (rbx) at cfa-56
  DW_CFA_offset: r6 (rbp) at cfa-16
  DW_CFA_offset: r12 (r12) at cfa-24
  DW_CFA_offset: r13 (r13) at cfa-32
  DW_CFA_offset: r14 (r14) at cfa-40
  DW_CFA_offset: r15 (r15) at cfa-48
  DW_CFA_advance_loc1: 152 to 000000000047c0e2
  DW_CFA_restore: r3 (rbx)
  DW_CFA_advance_loc: 1 to 000000000047c0e3
  DW_CFA_restore: r15 (r15)
  DW_CFA_advance_loc: 2 to 000000000047c0e5
  DW_CFA_restore: r14 (r14)
  DW_CFA_advance_loc: 2 to 000000000047c0e7
  DW_CFA_restore: r13 (r13)
  DW_CFA_advance_loc: 2 to 000000000047c0e9
  DW_CFA_restore: r12 (r12)
  DW_CFA_advance_loc: 3 to 000000000047c0ec
  DW_CFA_restore: r6 (rbp)
  DW_CFA_advance_loc: 1 to 000000000047c0ed
  DW_CFA_offset: r3 (rbx) at cfa-56
  DW_CFA_offset: r6 (rbp) at cfa-16
  DW_CFA_offset: r12 (r12) at cfa-24
  DW_CFA_offset: r13 (r13) at cfa-32
  DW_CFA_offset: r14 (r14) at cfa-40
  DW_CFA_offset: r15 (r15) at cfa-48
  DW_CFA_advance_loc2: 604 to 000000000047c349
  DW_CFA_restore: r3 (rbx)
  DW_CFA_advance_loc: 1 to 000000000047c34a
  DW_CFA_restore: r15 (r15)
  DW_CFA_advance_loc: 2 to 000000000047c34c
  DW_CFA_restore: r14 (r14)
  DW_CFA_advance_loc: 2 to 000000000047c34e
  DW_CFA_restore: r13 (r13)
  DW_CFA_advance_loc: 2 to 000000000047c350
  DW_CFA_restore: r12 (r12)
  DW_CFA_advance_loc: 3 to 000000000047c353
  DW_CFA_restore: r6 (rbp)
  DW_CFA_advance_loc: 1 to 000000000047c354
  DW_CFA_offset: r3 (rbx) at cfa-56
  DW_CFA_offset: r6 (rbp) at cfa-16
  DW_CFA_offset: r12 (r12) at cfa-24
  DW_CFA_offset: r13 (r13) at cfa-32
  DW_CFA_offset: r14 (r14) at cfa-40
  DW_CFA_offset: r15 (r15) at cfa-48
  DW_CFA_advance_loc1: 148 to 000000000047c3e8
  DW_CFA_restore: r3 (rbx)
  DW_CFA_advance_loc: 1 to 000000000047c3e9
  DW_CFA_restore: r15 (r15)
  DW_CFA_advance_loc: 2 to 000000000047c3eb
  DW_CFA_restore: r14 (r14)
  DW_CFA_advance_loc: 2 to 000000000047c3ed
  DW_CFA_restore: r13 (r13)
  DW_CFA_advance_loc: 2 to 000000000047c3ef
  DW_CFA_restore: r12 (r12)
  DW_CFA_advance_loc: 3 to 000000000047c3f2
  DW_CFA_restore: r6 (rbp)
  DW_CFA_advance_loc: 1 to 000000000047c3f3
  DW_CFA_offset: r3 (rbx) at cfa-56
  DW_CFA_offset: r6 (rbp) at cfa-16
  DW_CFA_offset: r12 (r12) at cfa-24
  DW_CFA_offset: r13 (r13) at cfa-32
  DW_CFA_offset: r14 (r14) at cfa-40
  DW_CFA_offset: r15 (r15) at cfa-48
  DW_CFA_advance_loc: 26 to 000000000047c40d
  DW_CFA_restore: r3 (rbx)
  DW_CFA_advance_loc: 1 to 000000000047c40e
  DW_CFA_restore: r15 (r15)
  DW_CFA_advance_loc: 2 to 000000000047c410
  DW_CFA_restore: r14 (r14)
  DW_CFA_advance_loc: 2 to 000000000047c412
  DW_CFA_restore: r13 (r13)
  DW_CFA_advance_loc: 2 to 000000000047c414
  DW_CFA_restore: r12 (r12)
  DW_CFA_advance_loc: 3 to 000000000047c417
  DW_CFA_restore: r6 (rbp)
  DW_CFA_advance_loc: 1 to 000000000047c418
  DW_CFA_offset: r3 (rbx) at cfa-56
  DW_CFA_offset: r6 (rbp) at cfa-16
  DW_CFA_offset: r12 (r12) at cfa-24
  DW_CFA_offset: r13 (r13) at cfa-32
  DW_CFA_offset: r14 (r14) at cfa-40
  DW_CFA_offset: r15 (r15) at cfa-48
  DW_CFA_advance_loc: 17 to 000000000047c429
  DW_CFA_restore: r3 (rbx)
  DW_CFA_advance_loc: 1 to 000000000047c42a
  DW_CFA_restore: r15 (r15)
  DW_CFA_advance_loc: 2 to 000000000047c42c
  DW_CFA_restore: r14 (r14)
  DW_CFA_advance_loc: 2 to 000000000047c42e
  DW_CFA_restore: r13 (r13)
  DW_CFA_advance_loc: 2 to 000000000047c430
  DW_CFA_restore: r12 (r12)
  DW_CFA_advance_loc: 3 to 000000000047c433
  DW_CFA_restore: r6 (rbp)
  DW_CFA_advance_loc: 1 to 000000000047c434
  DW_CFA_offset: r3 (rbx) at cfa-56
  DW_CFA_offset: r6 (rbp) at cfa-16
  DW_CFA_offset: r12 (r12) at cfa-24
  DW_CFA_offset: r13 (r13) at cfa-32
  DW_CFA_offset: r14 (r14) at cfa-40
  DW_CFA_offset: r15 (r15) at cfa-48
  DW_CFA_advance_loc: 33 to 000000000047c455
  DW_CFA_restore: r3 (rbx)
  DW_CFA_advance_loc: 1 to 000000000047c456
  DW_CFA_restore: r15 (r15)
  DW_CFA_advance_loc: 2 to 000000000047c458
  DW_CFA_restore: r14 (r14)
  DW_CFA_advance_loc: 2 to 000000000047c45a
  DW_CFA_restore: r13 (r13)
  DW_CFA_advance_loc: 2 to 000000000047c45c
  DW_CFA_restore: r12 (r12)
  DW_CFA_advance_loc: 3 to 000000000047c45f
  DW_CFA_restore: r6 (rbp)
  DW_CFA_advance_loc: 1 to 000000000047c460
  DW_CFA_offset: r3 (rbx) at cfa-56
  DW_CFA_offset: r6 (rbp) at cfa-16
  DW_CFA_offset: r12 (r12) at cfa-24
  DW_CFA_offset: r13 (r13) at cfa-32
  DW_CFA_offset: r14 (r14) at cfa-40
  DW_CFA_offset: r15 (r15) at cfa-48
  DW_CFA_advance_loc: 21 to 000000000047c475
  DW_CFA_restore: r3 (rbx)
  DW_CFA_advance_loc: 1 to 000000000047c476
  DW_CFA_restore: r15 (r15)
  DW_CFA_advance_loc: 2 to 000000000047c478
  DW_CFA_restore: r14 (r14)
  DW_CFA_advance_loc: 2 to 000000000047c47a
  DW_CFA_restore: r13 (r13)
  DW_CFA_advance_loc: 2 to 000000000047c47c
  DW_CFA_restore: r12 (r12)
  DW_CFA_advance_loc: 3 to 000000000047c47f
  DW_CFA_restore: r6 (rbp)
  DW_CFA_advance_loc: 1 to 000000000047c480
  DW_CFA_offset: r3 (rbx) at cfa-56
  DW_CFA_offset: r6 (rbp) at cfa-16
  DW_CFA_offset: r12 (r12) at cfa-24
  DW_CFA_offset: r13 (r13) at cfa-32
  DW_CFA_offset: r14 (r14) at cfa-40
  DW_CFA_offset: r15 (r15) at cfa-48
  DW_CFA_advance_loc: 32 to 000000000047c4a0
  DW_CFA_restore: r3 (rbx)
  DW_CFA_advance_loc: 1 to 000000000047c4a1
  DW_CFA_restore: r15 (r15)
  DW_CFA_advance_loc: 2 to 000000000047c4a3
  DW_CFA_restore: r14 (r14)
  DW_CFA_advance_loc: 2 to 000000000047c4a5
  DW_CFA_restore: r13 (r13)
  DW_CFA_advance_loc: 2 to 000000000047c4a7
  DW_CFA_restore: r12 (r12)
  DW_CFA_advance_loc: 3 to 000000000047c4aa
  DW_CFA_restore: r6 (rbp)
  DW_CFA_advance_loc: 1 to 000000000047c4ab
  DW_CFA_offset: r3 (rbx) at cfa-56
  DW_CFA_offset: r6 (rbp) at cfa-16
  DW_CFA_offset: r12 (r12) at cfa-24
  DW_CFA_offset: r13 (r13) at cfa-32
  DW_CFA_offset: r14 (r14) at cfa-40
  DW_CFA_offset: r15 (r15) at cfa-48
  DW_CFA_advance_loc: 18 to 000000000047c4bd
  DW_CFA_restore: r3 (rbx)
  DW_CFA_advance_loc: 1 to 000000000047c4be
  DW_CFA_restore: r15 (r15)
  DW_CFA_advance_loc: 2 to 000000000047c4c0
  DW_CFA_restore: r14 (r14)
  DW_CFA_advance_loc: 2 to 000000000047c4c2
  DW_CFA_restore: r13 (r13)
  DW_CFA_advance_loc: 2 to 000000000047c4c4
  DW_CFA_restore: r12 (r12)
  DW_CFA_advance_loc: 3 to 000000000047c4c7
  DW_CFA_restore: r6 (rbp)
  DW_CFA_advance_loc: 1 to 000000000047c4c8
  DW_CFA_offset: r3 (rbx) at cfa-56
  DW_CFA_offset: r6 (rbp) at cfa-16
  DW_CFA_offset: r12 (r12) at cfa-24
  DW_CFA_offset: r13 (r13) at cfa-32
  DW_CFA_offset: r14 (r14) at cfa-40
  DW_CFA_offset: r15 (r15) at cfa-48
  DW_CFA_advance_loc: 38 to 000000000047c4ee
  DW_CFA_restore: r3 (rbx)
  DW_CFA_advance_loc: 1 to 000000000047c4ef
  DW_CFA_restore: r15 (r15)
  DW_CFA_advance_loc: 2 to 000000000047c4f1
  DW_CFA_restore: r14 (r14)
  DW_CFA_advance_loc: 2 to 000000000047c4f3
  DW_CFA_restore: r13 (r13)
  DW_CFA_advance_loc: 2 to 000000000047c4f5
  DW_CFA_restore: r12 (r12)
  DW_CFA_advance_loc: 3 to 000000000047c4f8
  DW_CFA_restore: r6 (rbp)
  DW_CFA_advance_loc: 1 to 000000000047c4f9
  DW_CFA_offset: r3 (rbx) at cfa-56
  DW_CFA_offset: r6 (rbp) at cfa-16
  DW_CFA_offset: r12 (r12) at cfa-24
  DW_CFA_offset: r13 (r13) at cfa-32
  DW_CFA_offset: r14 (r14) at cfa-40
  DW_CFA_offset: r15 (r15) at cfa-48
  DW_CFA_advance_loc: 24 to 000000000047c511
  DW_CFA_restore: r3 (rbx)
  DW_CFA_advance_loc: 1 to 000000000047c512
  DW_CFA_restore: r15 (r15)
  DW_CFA_advance_loc: 2 to 000000000047c514
  DW_CFA_restore: r14 (r14)
  DW_CFA_advance_loc: 2 to 000000000047c516
  DW_CFA_restore: r13 (r13)
  DW_CFA_advance_loc: 2 to 000000000047c518
  DW_CFA_restore: r12 (r12)
  DW_CFA_advance_loc: 3 to 000000000047c51b
  DW_CFA_restore: r6 (rbp)
  DW_CFA_advance_loc: 1 to 000000000047c51c
  DW_CFA_offset: r3 (rbx) at cfa-56
  DW_CFA_offset: r6 (rbp) at cfa-16
  DW_CFA_offset: r12 (r12) at cfa-24
  DW_CFA_offset: r13 (r13) at cfa-32
  DW_CFA_offset: r14 (r14) at cfa-40
  DW_CFA_offset: r15 (r15) at cfa-48
  DW_CFA_advance_loc: 38 to 000000000047c542
  DW_CFA_restore: r3 (rbx)
  DW_CFA_advance_loc: 1 to 000000000047c543
  DW_CFA_restore: r15 (r15)
  DW_CFA_advance_loc: 2 to 000000000047c545
  DW_CFA_restore: r14 (r14)
  DW_CFA_advance_loc: 2 to 000000000047c547
  DW_CFA_restore: r13 (r13)
  DW_CFA_advance_loc: 2 to 000000000047c549
  DW_CFA_restore: r12 (r12)
  DW_CFA_advance_loc: 3 to 000000000047c54c
  DW_CFA_restore: r6 (rbp)
  DW_CFA_advance_loc: 1 to 000000000047c54d
  DW_CFA_offset: r3 (rbx) at cfa-56
  DW_CFA_offset: r6 (rbp) at cfa-16
  DW_CFA_offset: r12 (r12) at cfa-24
  DW_CFA_offset: r13 (r13) at cfa-32
  DW_CFA_offset: r14 (r14) at cfa-40
  DW_CFA_offset: r15 (r15) at cfa-48
  DW_CFA_advance_loc: 24 to 000000000047c565
  DW_CFA_restore: r3 (rbx)
  DW_CFA_advance_loc: 1 to 000000000047c566
  DW_CFA_restore: r15 (r15)
  DW_CFA_advance_loc: 2 to 000000000047c568
  DW_CFA_restore: r14 (r14)
  DW_CFA_advance_loc: 2 to 000000000047c56a
  DW_CFA_restore: r13 (r13)
  DW_CFA_advance_loc: 2 to 000000000047c56c
  DW_CFA_restore: r12 (r12)
  DW_CFA_advance_loc: 3 to 000000000047c56f
  DW_CFA_restore: r6 (rbp)
  DW_CFA_advance_loc: 1 to 000000000047c570
  DW_CFA_offset: r3 (rbx) at cfa-56
  DW_CFA_offset: r6 (rbp) at cfa-16
  DW_CFA_offset: r12 (r12) at cfa-24
  DW_CFA_offset: r13 (r13) at cfa-32
  DW_CFA_offset: r14 (r14) at cfa-40
  DW_CFA_offset: r15 (r15) at cfa-48
  DW_CFA_advance_loc1: 86 to 000000000047c5c6
  DW_CFA_restore: r3 (rbx)
  DW_CFA_advance_loc: 1 to 000000000047c5c7
  DW_CFA_restore: r15 (r15)
  DW_CFA_advance_loc: 2 to 000000000047c5c9
  DW_CFA_restore: r14 (r14)
  DW_CFA_advance_loc: 2 to 000000000047c5cb
  DW_CFA_restore: r13 (r13)
  DW_CFA_advance_loc: 2 to 000000000047c5cd
  DW_CFA_restore: r12 (r12)
  DW_CFA_advance_loc: 3 to 000000000047c5d0
  DW_CFA_restore: r6 (rbp)
  DW_CFA_advance_loc: 1 to 000000000047c5d1
  DW_CFA_offset: r3 (rbx) at cfa-56
  DW_CFA_offset: r6 (rbp) at cfa-16
  DW_CFA_offset: r12 (r12) at cfa-24
  DW_CFA_offset: r13 (r13) at cfa-32
  DW_CFA_offset: r14 (r14) at cfa-40
  DW_CFA_offset: r15 (r15) at cfa-48
  DW_CFA_advance_loc: 35 to 000000000047c5f4
  DW_CFA_restore: r3 (rbx)
  DW_CFA_advance_loc: 1 to 000000000047c5f5
  DW_CFA_restore: r15 (r15)
  DW_CFA_advance_loc: 2 to 000000000047c5f7
  DW_CFA_restore: r14 (r14)
  DW_CFA_advance_loc: 2 to 000000000047c5f9
  DW_CFA_restore: r13 (r13)
  DW_CFA_advance_loc: 2 to 000000000047c5fb
  DW_CFA_restore: r12 (r12)
  DW_CFA_advance_loc: 3 to 000000000047c5fe
  DW_CFA_restore: r6 (rbp)
  DW_CFA_advance_loc: 1 to 000000000047c5ff
  DW_CFA_offset: r3 (rbx) at cfa-56
  DW_CFA_offset: r6 (rbp) at cfa-16
  DW_CFA_offset: r12 (r12) at cfa-24
  DW_CFA_offset: r13 (r13) at cfa-32
  DW_CFA_offset: r14 (r14) at cfa-40
  DW_CFA_offset: r15 (r15) at cfa-48
  DW_CFA_advance_loc: 21 to 000000000047c614
  DW_CFA_restore: r3 (rbx)
  DW_CFA_advance_loc: 1 to 000000000047c615
  DW_CFA_restore: r15 (r15)
  DW_CFA_advance_loc: 2 to 000000000047c617
  DW_CFA_restore: r14 (r14)
  DW_CFA_advance_loc: 2 to 000000000047c619
  DW_CFA_restore: r13 (r13)
  DW_CFA_advance_loc: 2 to 000000000047c61b
  DW_CFA_restore: r12 (r12)
  DW_CFA_advance_loc: 3 to 000000000047c61e
  DW_CFA_restore: r6 (rbp)
  DW_CFA_advance_loc: 1 to 000000000047c61f
  DW_CFA_offset: r3 (rbx) at cfa-56
  DW_CFA_offset: r6 (rbp) at cfa-16
  DW_CFA_offset: r12 (r12) at cfa-24
  DW_CFA_offset: r13 (r13) at cfa-32
  DW_CFA_offset: r14 (r14) at cfa-40
  DW_CFA_offset: r15 (r15) at cfa-48
  DW_CFA_advance_loc2: 487 to 000000000047c806
  DW_CFA_restore: r3 (rbx)
  DW_CFA_advance_loc: 1 to 000000000047c807
  DW_CFA_restore: r15 (r15)
  DW_CFA_advance_loc: 2 to 000000000047c809
  DW_CFA_restore: r14 (r14)
  DW_CFA_advance_loc: 2 to 000000000047c80b
  DW_CFA_restore: r13 (r13)
  DW_CFA_advance_loc: 2 to 000000000047c80d
  DW_CFA_restore: r12 (r12)
  DW_CFA_advance_loc: 3 to 000000000047c810
  DW_CFA_restore: r6 (rbp)
  DW_CFA_advance_loc: 1 to 000000000047c811
  DW_CFA_offset: r3 (rbx) at cfa-56
  DW_CFA_offset: r6 (rbp) at cfa-16
  DW_CFA_offset: r12 (r12) at cfa-24
  DW_CFA_offset: r13 (r13) at cfa-32
  DW_CFA_offset: r14 (r14) at cfa-40
  DW_CFA_offset: r15 (r15) at cfa-48
  DW_CFA_advance_loc: 36 to 000000000047c835
  DW_CFA_restore: r3 (rbx)
  DW_CFA_advance_loc: 1 to 000000000047c836
  DW_CFA_restore: r15 (r15)
  DW_CFA_advance_loc: 2 to 000000000047c838
  DW_CFA_restore: r14 (r14)
  DW_CFA_advance_loc: 2 to 000000000047c83a
  DW_CFA_restore: r13 (r13)
  DW_CFA_advance_loc: 2 to 000000000047c83c
  DW_CFA_restore: r12 (r12)
  DW_CFA_advance_loc: 3 to 000000000047c83f
  DW_CFA_restore: r6 (rbp)
  DW_CFA_advance_loc: 1 to 000000000047c840
  DW_CFA_offset: r3 (rbx) at cfa-56
  DW_CFA_offset: r6 (rbp) at cfa-16
  DW_CFA_offset: r12 (r12) at cfa-24
  DW_CFA_offset: r13 (r13) at cfa-32
  DW_CFA_offset: r14 (r14) at cfa-40
  DW_CFA_offset: r15 (r15) at cfa-48
  DW_CFA_advance_loc: 24 to 000000000047c858
  DW_CFA_restore: r3 (rbx)
  DW_CFA_advance_loc: 1 to 000000000047c859
  DW_CFA_restore: r15 (r15)
  DW_CFA_advance_loc: 2 to 000000000047c85b
  DW_CFA_restore: r14 (r14)
  DW_CFA_advance_loc: 2 to 000000000047c85d
  DW_CFA_restore: r13 (r13)
  DW_CFA_advance_loc: 2 to 000000000047c85f
  DW_CFA_restore: r12 (r12)
  DW_CFA_advance_loc: 3 to 000000000047c862
  DW_CFA_restore: r6 (rbp)
  DW_CFA_advance_loc: 1 to 000000000047c863
  DW_CFA_offset: r3 (rbx) at cfa-56
  DW_CFA_offset: r6 (rbp) at cfa-16
  DW_CFA_offset: r12 (r12) at cfa-24
  DW_CFA_offset: r13 (r13) at cfa-32
  DW_CFA_offset: r14 (r14) at cfa-40
  DW_CFA_offset: r15 (r15) at cfa-48
  DW_CFA_advance_loc: 36 to 000000000047c887
  DW_CFA_restore: r3 (rbx)
  DW_CFA_advance_loc: 1 to 000000000047c888
  DW_CFA_restore: r15 (r15)
  DW_CFA_advance_loc: 2 to 000000000047c88a
  DW_CFA_restore: r14 (r14)
  DW_CFA_advance_loc: 2 to 000000000047c88c
  DW_CFA_restore: r13 (r13)
  DW_CFA_advance_loc: 2 to 000000000047c88e
  DW_CFA_restore: r12 (r12)
  DW_CFA_advance_loc: 3 to 000000000047c891
  DW_CFA_restore: r6 (rbp)
  DW_CFA_advance_loc: 1 to 000000000047c892
  DW_CFA_offset: r3 (rbx) at cfa-56
  DW_CFA_offset: r6 (rbp) at cfa-16
  DW_CFA_offset: r12 (r12) at cfa-24
  DW_CFA_offset: r13 (r13) at cfa-32
  DW_CFA_offset: r14 (r14) at cfa-40
  DW_CFA_offset: r15 (r15) at cfa-48
  DW_CFA_advance_loc: 24 to 000000000047c8aa
  DW_CFA_restore: r3 (rbx)
  DW_CFA_advance_loc: 1 to 000000000047c8ab
  DW_CFA_restore: r15 (r15)
  DW_CFA_advance_loc: 2 to 000000000047c8ad
  DW_CFA_restore: r14 (r14)
  DW_CFA_advance_loc: 2 to 000000000047c8af
  DW_CFA_restore: r13 (r13)
  DW_CFA_advance_loc: 2 to 000000000047c8b1
  DW_CFA_restore: r12 (r12)
  DW_CFA_advance_loc: 3 to 000000000047c8b4
  DW_CFA_restore: r6 (rbp)
  DW_CFA_advance_loc: 1 to 000000000047c8b5
  DW_CFA_offset: r3 (rbx) at cfa-56
  DW_CFA_offset: r6 (rbp) at cfa-16
  DW_CFA_offset: r12 (r12) at cfa-24
  DW_CFA_offset: r13 (r13) at cfa-32
  DW_CFA_offset: r14 (r14) at cfa-40
  DW_CFA_offset: r15 (r15) at cfa-48
  DW_CFA_advance_loc: 61 to 000000000047c8f2
  DW_CFA_restore: r3 (rbx)
  DW_CFA_advance_loc: 1 to 000000000047c8f3
  DW_CFA_restore: r15 (r15)
  DW_CFA_advance_loc: 2 to 000000000047c8f5
  DW_CFA_restore: r14 (r14)
  DW_CFA_advance_loc: 2 to 000000000047c8f7
  DW_CFA_restore: r13 (r13)
  DW_CFA_advance_loc: 2 to 000000000047c8f9
  DW_CFA_restore: r12 (r12)
  DW_CFA_advance_loc: 3 to 000000000047c8fc
  DW_CFA_restore: r6 (rbp)
  DW_CFA_advance_loc: 1 to 000000000047c8fd
  DW_CFA_offset: r3 (rbx) at cfa-56
  DW_CFA_offset: r6 (rbp) at cfa-16
  DW_CFA_offset: r12 (r12) at cfa-24
  DW_CFA_offset: r13 (r13) at cfa-32
  DW_CFA_offset: r14 (r14) at cfa-40
  DW_CFA_offset: r15 (r15) at cfa-48
  DW_CFA_advance_loc: 35 to 000000000047c920
  DW_CFA_restore: r3 (rbx)
  DW_CFA_advance_loc: 1 to 000000000047c921
  DW_CFA_restore: r15 (r15)
  DW_CFA_advance_loc: 2 to 000000000047c923
  DW_CFA_restore: r14 (r14)
  DW_CFA_advance_loc: 2 to 000000000047c925
  DW_CFA_restore: r13 (r13)
  DW_CFA_advance_loc: 2 to 000000000047c927
  DW_CFA_restore: r12 (r12)
  DW_CFA_advance_loc: 3 to 000000000047c92a
  DW_CFA_restore: r6 (rbp)
  DW_CFA_advance_loc: 1 to 000000000047c92b
  DW_CFA_offset: r3 (rbx) at cfa-56
  DW_CFA_offset: r6 (rbp) at cfa-16
  DW_CFA_offset: r12 (r12) at cfa-24
  DW_CFA_offset: r13 (r13) at cfa-32
  DW_CFA_offset: r14 (r14) at cfa-40
  DW_CFA_offset: r15 (r15) at cfa-48
  DW_CFA_advance_loc: 21 to 000000000047c940
  DW_CFA_restore: r3 (rbx)
  DW_CFA_advance_loc: 1 to 000000000047c941
  DW_CFA_restore: r15 (r15)
  DW_CFA_advance_loc: 2 to 000000000047c943
  DW_CFA_restore: r14 (r14)
  DW_CFA_advance_loc: 2 to 000000000047c945
  DW_CFA_restore: r13 (r13)
  DW_CFA_advance_loc: 2 to 000000000047c947
  DW_CFA_restore: r12 (r12)
  DW_CFA_advance_loc: 3 to 000000000047c94a
  DW_CFA_restore: r6 (rbp)
  DW_CFA_advance_loc: 1 to 000000000047c94b
  DW_CFA_offset: r3 (rbx) at cfa-56
  DW_CFA_offset: r6 (rbp) at cfa-16
  DW_CFA_offset: r12 (r12) at cfa-24
  DW_CFA_offset: r13 (r13) at cfa-32
  DW_CFA_offset: r14 (r14) at cfa-40
  DW_CFA_offset: r15 (r15) at cfa-48
  DW_CFA_advance_loc: 61 to 000000000047c988
  DW_CFA_restore: r3 (rbx)
  DW_CFA_advance_loc: 1 to 000000000047c989
  DW_CFA_restore: r15 (r15)
  DW_CFA_advance_loc: 2 to 000000000047c98b
  DW_CFA_restore: r14 (r14)
  DW_CFA_advance_loc: 2 to 000000000047c98d
  DW_CFA_restore: r13 (r13)
  DW_CFA_advance_loc: 2 to 000000000047c98f
  DW_CFA_restore: r12 (r12)
  DW_CFA_advance_loc: 3 to 000000000047c992
  DW_CFA_restore: r6 (rbp)
  DW_CFA_advance_loc: 1 to 000000000047c993
  DW_CFA_offset: r3 (rbx) at cfa-56
  DW_CFA_offset: r6 (rbp) at cfa-16
  DW_CFA_offset: r12 (r12) at cfa-24
  DW_CFA_offset: r13 (r13) at cfa-32
  DW_CFA_offset: r14 (r14) at cfa-40
  DW_CFA_offset: r15 (r15) at cfa-48
  DW_CFA_advance_loc: 35 to 000000000047c9b6
  DW_CFA_restore: r3 (rbx)
  DW_CFA_advance_loc: 1 to 000000000047c9b7
  DW_CFA_restore: r15 (r15)
  DW_CFA_advance_loc: 2 to 000000000047c9b9
  DW_CFA_restore: r14 (r14)
  DW_CFA_advance_loc: 2 to 000000000047c9bb
  DW_CFA_restore: r13 (r13)
  DW_CFA_advance_loc: 2 to 000000000047c9bd
  DW_CFA_restore: r12 (r12)
  DW_CFA_advance_loc: 3 to 000000000047c9c0
  DW_CFA_restore: r6 (rbp)
  DW_CFA_advance_loc: 1 to 000000000047c9c1
  DW_CFA_offset: r3 (rbx) at cfa-56
  DW_CFA_offset: r6 (rbp) at cfa-16
  DW_CFA_offset: r12 (r12) at cfa-24
  DW_CFA_offset: r13 (r13) at cfa-32
  DW_CFA_offset: r14 (r14) at cfa-40
  DW_CFA_offset: r15 (r15) at cfa-48
  DW_CFA_advance_loc: 21 to 000000000047c9d6
  DW_CFA_restore: r3 (rbx)
  DW_CFA_advance_loc: 1 to 000000000047c9d7
  DW_CFA_restore: r15 (r15)
  DW_CFA_advance_loc: 2 to 000000000047c9d9
  DW_CFA_restore: r14 (r14)
  DW_CFA_advance_loc: 2 to 000000000047c9db
  DW_CFA_restore: r13 (r13)
  DW_CFA_advance_loc: 2 to 000000000047c9dd
  DW_CFA_restore: r12 (r12)
  DW_CFA_advance_loc: 3 to 000000000047c9e0
  DW_CFA_restore: r6 (rbp)
  DW_CFA_advance_loc: 1 to 000000000047c9e1
  DW_CFA_offset: r3 (rbx) at cfa-56
  DW_CFA_offset: r6 (rbp) at cfa-16
  DW_CFA_offset: r12 (r12) at cfa-24
  DW_CFA_offset: r13 (r13) at cfa-32
  DW_CFA_offset: r14 (r14) at cfa-40
  DW_CFA_offset: r15 (r15) at cfa-48
  DW_CFA_advance_loc1: 172 to 000000000047ca8d
  DW_CFA_restore: r3 (rbx)
  DW_CFA_advance_loc: 1 to 000000000047ca8e
  DW_CFA_restore: r15 (r15)
  DW_CFA_advance_loc: 2 to 000000000047ca90
  DW_CFA_restore: r14 (r14)
  DW_CFA_advance_loc: 2 to 000000000047ca92
  DW_CFA_restore: r13 (r13)
  DW_CFA_advance_loc: 2 to 000000000047ca94
  DW_CFA_restore: r12 (r12)
  DW_CFA_advance_loc: 3 to 000000000047ca97
  DW_CFA_restore: r6 (rbp)
  DW_CFA_advance_loc: 1 to 000000000047ca98
  DW_CFA_offset: r3 (rbx) at cfa-56
  DW_CFA_offset: r6 (rbp) at cfa-16
  DW_CFA_offset: r12 (r12) at cfa-24
  DW_CFA_offset: r13 (r13) at cfa-32
  DW_CFA_offset: r14 (r14) at cfa-40
  DW_CFA_offset: r15 (r15) at cfa-48
  DW_CFA_advance_loc: 18 to 000000000047caaa
  DW_CFA_restore: r3 (rbx)
  DW_CFA_advance_loc: 1 to 000000000047caab
  DW_CFA_restore: r15 (r15)
  DW_CFA_advance_loc: 2 to 000000000047caad
  DW_CFA_restore: r14 (r14)
  DW_CFA_advance_loc: 2 to 000000000047caaf
  DW_CFA_restore: r13 (r13)
  DW_CFA_advance_loc: 2 to 000000000047cab1
  DW_CFA_restore: r12 (r12)
  DW_CFA_advance_loc: 3 to 000000000047cab4
  DW_CFA_restore: r6 (rbp)
  DW_CFA_advance_loc: 1 to 000000000047cab5
  DW_CFA_offset: r3 (rbx) at cfa-56
  DW_CFA_offset: r6 (rbp) at cfa-16
  DW_CFA_offset: r12 (r12) at cfa-24
  DW_CFA_offset: r13 (r13) at cfa-32
  DW_CFA_offset: r14 (r14) at cfa-40
  DW_CFA_offset: r15 (r15) at cfa-48
  DW_CFA_advance_loc1: 191 to 000000000047cb74
  DW_CFA_restore: r3 (rbx)
  DW_CFA_advance_loc: 1 to 000000000047cb75
  DW_CFA_restore: r15 (r15)
  DW_CFA_advance_loc: 2 to 000000000047cb77
  DW_CFA_restore: r14 (r14)
  DW_CFA_advance_loc: 2 to 000000000047cb79
  DW_CFA_restore: r13 (r13)
  DW_CFA_advance_loc: 2 to 000000000047cb7b
  DW_CFA_restore: r12 (r12)
  DW_CFA_advance_loc: 3 to 000000000047cb7e
  DW_CFA_restore: r6 (rbp)
  DW_CFA_advance_loc: 1 to 000000000047cb7f
  DW_CFA_offset: r3 (rbx) at cfa-56
  DW_CFA_offset: r6 (rbp) at cfa-16
  DW_CFA_offset: r12 (r12) at cfa-24
  DW_CFA_offset: r13 (r13) at cfa-32
  DW_CFA_offset: r14 (r14) at cfa-40
  DW_CFA_offset: r15 (r15) at cfa-48
  DW_CFA_advance_loc1: 231 to 000000000047cc66
  DW_CFA_restore: r3 (rbx)
  DW_CFA_advance_loc: 1 to 000000000047cc67
  DW_CFA_restore: r15 (r15)
  DW_CFA_advance_loc: 2 to 000000000047cc69
  DW_CFA_restore: r14 (r14)
  DW_CFA_advance_loc: 2 to 000000000047cc6b
  DW_CFA_restore: r13 (r13)
  DW_CFA_advance_loc: 2 to 000000000047cc6d
  DW_CFA_restore: r12 (r12)
  DW_CFA_advance_loc: 3 to 000000000047cc70
  DW_CFA_restore: r6 (rbp)
  DW_CFA_advance_loc: 1 to 000000000047cc71
  DW_CFA_offset: r3 (rbx) at cfa-56
  DW_CFA_offset: r6 (rbp) at cfa-16
  DW_CFA_offset: r12 (r12) at cfa-24
  DW_CFA_offset: r13 (r13) at cfa-32
  DW_CFA_offset: r14 (r14) at cfa-40
  DW_CFA_offset: r15 (r15) at cfa-48
  DW_CFA_advance_loc1: 225 to 000000000047cd52
  DW_CFA_restore: r3 (rbx)
  DW_CFA_advance_loc: 1 to 000000000047cd53
  DW_CFA_restore: r15 (r15)
  DW_CFA_advance_loc: 2 to 000000000047cd55
  DW_CFA_restore: r14 (r14)
  DW_CFA_advance_loc: 2 to 000000000047cd57
  DW_CFA_restore: r13 (r13)
  DW_CFA_advance_loc: 2 to 000000000047cd59
  DW_CFA_restore: r12 (r12)
  DW_CFA_advance_loc: 3 to 000000000047cd5c
  DW_CFA_restore: r6 (rbp)
  DW_CFA_advance_loc: 1 to 000000000047cd5d
  DW_CFA_offset: r3 (rbx) at cfa-56
  DW_CFA_offset: r6 (rbp) at cfa-16
  DW_CFA_offset: r12 (r12) at cfa-24
  DW_CFA_offset: r13 (r13) at cfa-32
  DW_CFA_offset: r14 (r14) at cfa-40
  DW_CFA_offset: r15 (r15) at cfa-48
  DW_CFA_advance_loc1: 191 to 000000000047ce1c
  DW_CFA_restore: r3 (rbx)
  DW_CFA_advance_loc: 1 to 000000000047ce1d
  DW_CFA_restore: r15 (r15)
  DW_CFA_advance_loc: 2 to 000000000047ce1f
  DW_CFA_restore: r14 (r14)
  DW_CFA_advance_loc: 2 to 000000000047ce21
  DW_CFA_restore: r13 (r13)
  DW_CFA_advance_loc: 2 to 000000000047ce23
  DW_CFA_restore: r12 (r12)
  DW_CFA_advance_loc: 3 to 000000000047ce26
  DW_CFA_restore: r6 (rbp)
  DW_CFA_advance_loc: 1 to 000000000047ce27
  DW_CFA_offset: r3 (rbx) at cfa-56
  DW_CFA_offset: r6 (rbp) at cfa-16
  DW_CFA_offset: r12 (r12) at cfa-24
  DW_CFA_offset: r13 (r13) at cfa-32
  DW_CFA_offset: r14 (r14) at cfa-40
  DW_CFA_offset: r15 (r15) at cfa-48
  DW_CFA_advance_loc1: 232 to 000000000047cf0f
  DW_CFA_restore: r3 (rbx)
  DW_CFA_advance_loc: 1 to 000000000047cf10
  DW_CFA_restore: r15 (r15)
  DW_CFA_advance_loc: 2 to 000000000047cf12
  DW_CFA_restore: r14 (r14)
  DW_CFA_advance_loc: 2 to 000000000047cf14
  DW_CFA_restore: r13 (r13)
  DW_CFA_advance_loc: 2 to 000000000047cf16
  DW_CFA_restore: r12 (r12)
  DW_CFA_advance_loc: 3 to 000000000047cf19
  DW_CFA_restore: r6 (rbp)
  DW_CFA_advance_loc: 1 to 000000000047cf1a
  DW_CFA_offset: r3 (rbx) at cfa-56
  DW_CFA_offset: r6 (rbp) at cfa-16
  DW_CFA_offset: r12 (r12) at cfa-24
  DW_CFA_offset: r13 (r13) at cfa-32
  DW_CFA_offset: r14 (r14) at cfa-40
  DW_CFA_offset: r15 (r15) at cfa-48
  DW_CFA_advance_loc1: 137 to 000000000047cfa3
  DW_CFA_restore: r3 (rbx)
  DW_CFA_advance_loc: 1 to 000000000047cfa4
  DW_CFA_restore: r15 (r15)
  DW_CFA_advance_loc: 2 to 000000000047cfa6
  DW_CFA_restore: r14 (r14)
  DW_CFA_advance_loc: 2 to 000000000047cfa8
  DW_CFA_restore: r13 (r13)
  DW_CFA_advance_loc: 2 to 000000000047cfaa
  DW_CFA_restore: r12 (r12)
  DW_CFA_advance_loc: 3 to 000000000047cfad
  DW_CFA_restore: r6 (rbp)
  DW_CFA_advance_loc: 1 to 000000000047cfae
  DW_CFA_offset: r3 (rbx) at cfa-56
  DW_CFA_offset: r6 (rbp) at cfa-16
  DW_CFA_offset: r12 (r12) at cfa-24
  DW_CFA_offset: r13 (r13) at cfa-32
  DW_CFA_offset: r14 (r14) at cfa-40
  DW_CFA_offset: r15 (r15) at cfa-48
  DW_CFA_advance_loc1: 72 to 000000000047cff6
  DW_CFA_restore: r3 (rbx)
  DW_CFA_advance_loc: 1 to 000000000047cff7
  DW_CFA_restore: r15 (r15)
  DW_CFA_advance_loc: 2 to 000000000047cff9
  DW_CFA_restore: r14 (r14)
  DW_CFA_advance_loc: 2 to 000000000047cffb
  DW_CFA_restore: r13 (r13)
  DW_CFA_advance_loc: 2 to 000000000047cffd
  DW_CFA_restore: r12 (r12)
  DW_CFA_advance_loc: 3 to 000000000047d000
  DW_CFA_restore: r6 (rbp)
  DW_CFA_advance_loc: 1 to 000000000047d001
  DW_CFA_offset: r3 (rbx) at cfa-56
  DW_CFA_offset: r6 (rbp) at cfa-16
  DW_CFA_offset: r12 (r12) at cfa-24
  DW_CFA_offset: r13 (r13) at cfa-32
  DW_CFA_offset: r14 (r14) at cfa-40
  DW_CFA_offset: r15 (r15) at cfa-48
  DW_CFA_advance_loc: 61 to 000000000047d03e
  DW_CFA_restore: r3 (rbx)
  DW_CFA_advance_loc: 1 to 000000000047d03f
  DW_CFA_restore: r15 (r15)
  DW_CFA_advance_loc: 2 to 000000000047d041
  DW_CFA_restore: r14 (r14)
  DW_CFA_advance_loc: 2 to 000000000047d043
  DW_CFA_restore: r13 (r13)
  DW_CFA_advance_loc: 2 to 000000000047d045
  DW_CFA_restore: r12 (r12)
  DW_CFA_advance_loc: 3 to 000000000047d048
  DW_CFA_restore: r6 (rbp)
  DW_CFA_advance_loc: 1 to 000000000047d049
  DW_CFA_offset: r3 (rbx) at cfa-56
  DW_CFA_offset: r6 (rbp) at cfa-16
  DW_CFA_offset: r12 (r12) at cfa-24
  DW_CFA_offset: r13 (r13) at cfa-32
  DW_CFA_offset: r14 (r14) at cfa-40
  DW_CFA_offset: r15 (r15) at cfa-48
  DW_CFA_advance_loc: 35 to 000000000047d06c
  DW_CFA_restore: r3 (rbx)
  DW_CFA_advance_loc: 1 to 000000000047d06d
  DW_CFA_restore: r15 (r15)
  DW_CFA_advance_loc: 2 to 000000000047d06f
  DW_CFA_restore: r14 (r14)
  DW_CFA_advance_loc: 2 to 000000000047d071
  DW_CFA_restore: r13 (r13)
  DW_CFA_advance_loc: 2 to 000000000047d073
  DW_CFA_restore: r12 (r12)
  DW_CFA_advance_loc: 3 to 000000000047d076
  DW_CFA_restore: r6 (rbp)
  DW_CFA_advance_loc: 1 to 000000000047d077
  DW_CFA_offset: r3 (rbx) at cfa-56
  DW_CFA_offset: r6 (rbp) at cfa-16
  DW_CFA_offset: r12 (r12) at cfa-24
  DW_CFA_offset: r13 (r13) at cfa-32
  DW_CFA_offset: r14 (r14) at cfa-40
  DW_CFA_offset: r15 (r15) at cfa-48
  DW_CFA_advance_loc: 21 to 000000000047d08c
  DW_CFA_restore: r3 (rbx)
  DW_CFA_advance_loc: 1 to 000000000047d08d
  DW_CFA_restore: r15 (r15)
  DW_CFA_advance_loc: 2 to 000000000047d08f
  DW_CFA_restore: r14 (r14)
  DW_CFA_advance_loc: 2 to 000000000047d091
  DW_CFA_restore: r13 (r13)
  DW_CFA_advance_loc: 2 to 000000000047d093
  DW_CFA_restore: r12 (r12)
  DW_CFA_advance_loc: 3 to 000000000047d096
  DW_CFA_restore: r6 (rbp)
  DW_CFA_advance_loc: 1 to 000000000047d097
  DW_CFA_offset: r3 (rbx) at cfa-56
  DW_CFA_offset: r6 (rbp) at cfa-16
  DW_CFA_offset: r12 (r12) at cfa-24
  DW_CFA_offset: r13 (r13) at cfa-32
  DW_CFA_offset: r14 (r14) at cfa-40
  DW_CFA_offset: r15 (r15) at cfa-48
  DW_CFA_advance_loc: 35 to 000000000047d0ba
  DW_CFA_restore: r3 (rbx)
  DW_CFA_advance_loc: 1 to 000000000047d0bb
  DW_CFA_restore: r15 (r15)
  DW_CFA_advance_loc: 2 to 000000000047d0bd
  DW_CFA_restore: r14 (r14)
  DW_CFA_advance_loc: 2 to 000000000047d0bf
  DW_CFA_restore: r13 (r13)
  DW_CFA_advance_loc: 2 to 000000000047d0c1
  DW_CFA_restore: r12 (r12)
  DW_CFA_advance_loc: 3 to 000000000047d0c4
  DW_CFA_restore: r6 (rbp)
  DW_CFA_advance_loc: 1 to 000000000047d0c5
  DW_CFA_offset: r3 (rbx) at cfa-56
  DW_CFA_offset: r6 (rbp) at cfa-16
  DW_CFA_offset: r12 (r12) at cfa-24
  DW_CFA_offset: r13 (r13) at cfa-32
  DW_CFA_offset: r14 (r14) at cfa-40
  DW_CFA_offset: r15 (r15) at cfa-48
  DW_CFA_advance_loc: 21 to 000000000047d0da
  DW_CFA_restore: r3 (rbx)
  DW_CFA_advance_loc: 1 to 000000000047d0db
  DW_CFA_restore: r15 (r15)
  DW_CFA_advance_loc: 2 to 000000000047d0dd
  DW_CFA_restore: r14 (r14)
  DW_CFA_advance_loc: 2 to 000000000047d0df
  DW_CFA_restore: r13 (r13)
  DW_CFA_advance_loc: 2 to 000000000047d0e1
  DW_CFA_restore: r12 (r12)
  DW_CFA_advance_loc: 3 to 000000000047d0e4
  DW_CFA_restore: r6 (rbp)
  DW_CFA_advance_loc: 1 to 000000000047d0e5
  DW_CFA_offset: r3 (rbx) at cfa-56
  DW_CFA_offset: r6 (rbp) at cfa-16
  DW_CFA_offset: r12 (r12) at cfa-24
  DW_CFA_offset: r13 (r13) at cfa-32
  DW_CFA_offset: r14 (r14) at cfa-40
  DW_CFA_offset: r15 (r15) at cfa-48
  DW_CFA_advance_loc: 38 to 000000000047d10b
  DW_CFA_restore: r3 (rbx)
  DW_CFA_advance_loc: 1 to 000000000047d10c
  DW_CFA_restore: r15 (r15)
  DW_CFA_advance_loc: 2 to 000000000047d10e
  DW_CFA_restore: r14 (r14)
  DW_CFA_advance_loc: 2 to 000000000047d110
  DW_CFA_restore: r13 (r13)
  DW_CFA_advance_loc: 2 to 000000000047d112
  DW_CFA_restore: r12 (r12)
  DW_CFA_advance_loc: 3 to 000000000047d115
  DW_CFA_restore: r6 (rbp)
  DW_CFA_advance_loc: 1 to 000000000047d116
  DW_CFA_offset: r3 (rbx) at cfa-56
  DW_CFA_offset: r6 (rbp) at cfa-16
  DW_CFA_offset: r12 (r12) at cfa-24
  DW_CFA_offset: r13 (r13) at cfa-32
  DW_CFA_offset: r14 (r14) at cfa-40
  DW_CFA_offset: r15 (r15) at cfa-48
  DW_CFA_advance_loc: 24 to 000000000047d12e
  DW_CFA_restore: r3 (rbx)
  DW_CFA_advance_loc: 1 to 000000000047d12f
  DW_CFA_restore: r15 (r15)
  DW_CFA_advance_loc: 2 to 000000000047d131
  DW_CFA_restore: r14 (r14)
  DW_CFA_advance_loc: 2 to 000000000047d133
  DW_CFA_restore: r13 (r13)
  DW_CFA_advance_loc: 2 to 000000000047d135
  DW_CFA_restore: r12 (r12)
  DW_CFA_advance_loc: 3 to 000000000047d138
  DW_CFA_restore: r6 (rbp)
  DW_CFA_advance_loc: 1 to 000000000047d139
  DW_CFA_offset: r3 (rbx) at cfa-56
  DW_CFA_offset: r6 (rbp) at cfa-16
  DW_CFA_offset: r12 (r12) at cfa-24
  DW_CFA_offset: r13 (r13) at cfa-32
  DW_CFA_offset: r14 (r14) at cfa-40
  DW_CFA_offset: r15 (r15) at cfa-48
  DW_CFA_advance_loc2: 379 to 000000000047d2b4
  DW_CFA_restore: r3 (rbx)
  DW_CFA_advance_loc: 1 to 000000000047d2b5
  DW_CFA_restore: r15 (r15)
  DW_CFA_advance_loc: 2 to 000000000047d2b7
  DW_CFA_restore: r14 (r14)
  DW_CFA_advance_loc: 2 to 000000000047d2b9
  DW_CFA_restore: r13 (r13)
  DW_CFA_advance_loc: 2 to 000000000047d2bb
  DW_CFA_restore: r12 (r12)
  DW_CFA_advance_loc: 3 to 000000000047d2be
  DW_CFA_restore: r6 (rbp)
  DW_CFA_advance_loc: 1 to 000000000047d2bf
  DW_CFA_offset: r3 (rbx) at cfa-56
  DW_CFA_offset: r6 (rbp) at cfa-16
  DW_CFA_offset: r12 (r12) at cfa-24
  DW_CFA_offset: r13 (r13) at cfa-32
  DW_CFA_offset: r14 (r14) at cfa-40
  DW_CFA_offset: r15 (r15) at cfa-48
  DW_CFA_advance_loc1: 184 to 000000000047d377
  DW_CFA_restore: r3 (rbx)
  DW_CFA_advance_loc: 1 to 000000000047d378
  DW_CFA_restore: r15 (r15)
  DW_CFA_advance_loc: 2 to 000000000047d37a
  DW_CFA_restore: r14 (r14)
  DW_CFA_advance_loc: 2 to 000000000047d37c
  DW_CFA_restore: r13 (r13)
  DW_CFA_advance_loc: 2 to 000000000047d37e
  DW_CFA_restore: r12 (r12)
  DW_CFA_advance_loc: 3 to 000000000047d381
  DW_CFA_restore: r6 (rbp)
  DW_CFA_nop
  DW_CFA_nop

00005940 000000000000020c 0000589c FDE cie=000000a8 pc=000000000047d390..0000000000482230
  DW_CFA_advance_loc: 1 to 000000000047d391
  DW_CFA_def_cfa_offset: 16
  DW_CFA_advance_loc: 3 to 000000000047d394
  DW_CFA_def_cfa: r6 (rbp) ofs 16
  DW_CFA_offset: r6 (rbp) at cfa-16
  DW_CFA_advance_loc: 16 to 000000000047d3a4
  DW_CFA_offset: r3 (rbx) at cfa-56
  DW_CFA_offset: r12 (r12) at cfa-24
  DW_CFA_offset: r13 (r13) at cfa-32
  DW_CFA_offset: r14 (r14) at cfa-40
  DW_CFA_offset: r15 (r15) at cfa-48
  DW_CFA_advance_loc2: 3087 to 000000000047dfb3
  DW_CFA_restore: r3 (rbx)
  DW_CFA_advance_loc: 1 to 000000000047dfb4
  DW_CFA_restore: r15 (r15)
  DW_CFA_advance_loc: 2 to 000000000047dfb6
  DW_CFA_restore: r14 (r14)
  DW_CFA_advance_loc: 2 to 000000000047dfb8
  DW_CFA_restore: r13 (r13)
  DW_CFA_advance_loc: 2 to 000000000047dfba
  DW_CFA_restore: r12 (r12)
  DW_CFA_advance_loc: 3 to 000000000047dfbd
  DW_CFA_restore: r6 (rbp)
  DW_CFA_advance_loc: 1 to 000000000047dfbe
  DW_CFA_offset: r3 (rbx) at cfa-56
  DW_CFA_offset: r6 (rbp) at cfa-16
  DW_CFA_offset: r12 (r12) at cfa-24
  DW_CFA_offset: r13 (r13) at cfa-32
  DW_CFA_offset: r14 (r14) at cfa-40
  DW_CFA_offset: r15 (r15) at cfa-48
  DW_CFA_advance_loc2: 925 to 000000000047e35b
  DW_CFA_restore: r3 (rbx)
  DW_CFA_advance_loc: 1 to 000000000047e35c
  DW_CFA_restore: r15 (r15)
  DW_CFA_advance_loc: 2 to 000000000047e35e
  DW_CFA_restore: r14 (r14)
  DW_CFA_advance_loc: 2 to 000000000047e360
  DW_CFA_restore: r13 (r13)
  DW_CFA_advance_loc: 2 to 000000000047e362
  DW_CFA_restore: r12 (r12)
  DW_CFA_advance_loc: 3 to 000000000047e365
  DW_CFA_restore: r6 (rbp)
  DW_CFA_advance_loc: 1 to 000000000047e366
  DW_CFA_offset: r3 (rbx) at cfa-56
  DW_CFA_offset: r6 (rbp) at cfa-16
  DW_CFA_offset: r12 (r12) at cfa-24
  DW_CFA_offset: r13 (r13) at cfa-32
  DW_CFA_offset: r14 (r14) at cfa-40
  DW_CFA_offset: r15 (r15) at cfa-48
  DW_CFA_advance_loc2: 1007 to 000000000047e755
  DW_CFA_restore: r3 (rbx)
  DW_CFA_advance_loc: 1 to 000000000047e756
  DW_CFA_restore: r15 (r15)
  DW_CFA_advance_loc: 2 to 000000000047e758
  DW_CFA_restore: r14 (r14)
  DW_CFA_advance_loc: 2 to 000000000047e75a
  DW_CFA_restore: r13 (r13)
  DW_CFA_advance_loc: 2 to 000000000047e75c
  DW_CFA_restore: r12 (r12)
  DW_CFA_advance_loc: 3 to 000000000047e75f
  DW_CFA_restore: r6 (rbp)
  DW_CFA_advance_loc: 1 to 000000000047e760
  DW_CFA_offset: r3 (rbx) at cfa-56
  DW_CFA_offset: r6 (rbp) at cfa-16
  DW_CFA_offset: r12 (r12) at cfa-24
  DW_CFA_offset: r13 (r13) at cfa-32
  DW_CFA_offset: r14 (r14) at cfa-40
  DW_CFA_offset: r15 (r15) at cfa-48
  DW_CFA_advance_loc2: 632 to 000000000047e9d8
  DW_CFA_restore: r3 (rbx)
  DW_CFA_advance_loc: 1 to 000000000047e9d9
  DW_CFA_restore: r15 (r15)
  DW_CFA_advance_loc: 2 to 000000000047e9db
  DW_CFA_restore: r14 (r14)
  DW_CFA_advance_loc: 2 to 000000000047e9dd
  DW_CFA_restore: r13 (r13)
  DW_CFA_advance_loc: 2 to 000000000047e9df
  DW_CFA_restore: r12 (r12)
  DW_CFA_advance_loc: 3 to 000000000047e9e2
  DW_CFA_restore: r6 (rbp)
  DW_CFA_advance_loc: 1 to 000000000047e9e3
  DW_CFA_offset: r3 (rbx) at cfa-56
  DW_CFA_offset: r6 (rbp) at cfa-16
  DW_CFA_offset: r12 (r12) at cfa-24
  DW_CFA_offset: r13 (r13) at cfa-32
  DW_CFA_offset: r14 (r14) at cfa-40
  DW_CFA_offset: r15 (r15) at cfa-48
  DW_CFA_advance_loc1: 232 to 000000000047eacb
  DW_CFA_restore: r3 (rbx)
  DW_CFA_advance_loc: 1 to 000000000047eacc
  DW_CFA_restore: r15 (r15)
  DW_CFA_advance_loc: 2 to 000000000047eace
  DW_CFA_restore: r14 (r14)
  DW_CFA_advance_loc: 2 to 000000000047ead0
  DW_CFA_restore: r13 (r13)
  DW_CFA_advance_loc: 2 to 000000000047ead2
  DW_CFA_restore: r12 (r12)
  DW_CFA_advance_loc: 3 to 000000000047ead5
  DW_CFA_restore: r6 (rbp)
  DW_CFA_advance_loc: 1 to 000000000047ead6
  DW_CFA_offset: r3 (rbx) at cfa-56
  DW_CFA_offset: r6 (rbp) at cfa-16
  DW_CFA_offset: r12 (r12) at cfa-24
  DW_CFA_offset: r13 (r13) at cfa-32
  DW_CFA_offset: r14 (r14) at cfa-40
  DW_CFA_offset: r15 (r15) at cfa-48
  DW_CFA_advance_loc1: 204 to 000000000047eba2
  DW_CFA_restore: r3 (rbx)
  DW_CFA_advance_loc: 1 to 000000000047eba3
  DW_CFA_restore: r15 (r15)
  DW_CFA_advance_loc: 2 to 000000000047eba5
  DW_CFA_restore: r14 (r14)
  DW_CFA_advance_loc: 2 to 000000000047eba7
  DW_CFA_restore: r13 (r13)
  DW_CFA_advance_loc: 2 to 000000000047eba9
  DW_CFA_restore: r12 (r12)
  DW_CFA_advance_loc: 3 to 000000000047ebac
  DW_CFA_restore: r6 (rbp)
  DW_CFA_advance_loc: 1 to 000000000047ebad
  DW_CFA_offset: r3 (rbx) at cfa-56
  DW_CFA_offset: r6 (rbp) at cfa-16
  DW_CFA_offset: r12 (r12) at cfa-24
  DW_CFA_offset: r13 (r13) at cfa-32
  DW_CFA_offset: r14 (r14) at cfa-40
  DW_CFA_offset: r15 (r15) at cfa-48
  DW_CFA_advance_loc1: 171 to 000000000047ec58
  DW_CFA_restore: r3 (rbx)
  DW_CFA_advance_loc: 1 to 000000000047ec59
  DW_CFA_restore: r15 (r15)
  DW_CFA_advance_loc: 2 to 000000000047ec5b
  DW_CFA_restore: r14 (r14)
  DW_CFA_advance_loc: 2 to 000000000047ec5d
  DW_CFA_restore: r13 (r13)
  DW_CFA_advance_loc: 2 to 000000000047ec5f
  DW_CFA_restore: r12 (r12)
  DW_CFA_advance_loc: 3 to 000000000047ec62
  DW_CFA_restore: r6 (rbp)
  DW_CFA_advance_loc: 1 to 000000000047ec63
  DW_CFA_offset: r3 (rbx) at cfa-56
  DW_CFA_offset: r6 (rbp) at cfa-16
  DW_CFA_offset: r12 (r12) at cfa-24
  DW_CFA_offset: r13 (r13) at cfa-32
  DW_CFA_offset: r14 (r14) at cfa-40
  DW_CFA_offset: r15 (r15) at cfa-48
  DW_CFA_advance_loc2: 450 to 000000000047ee25
  DW_CFA_restore: r3 (rbx)
  DW_CFA_advance_loc: 1 to 000000000047ee26
  DW_CFA_restore: r15 (r15)
  DW_CFA_advance_loc: 2 to 000000000047ee28
  DW_CFA_restore: r14 (r14)
  DW_CFA_advance_loc: 2 to 000000000047ee2a
  DW_CFA_restore: r13 (r13)
  DW_CFA_advance_loc: 2 to 000000000047ee2c
  DW_CFA_restore: r12 (r12)
  DW_CFA_advance_loc: 3 to 000000000047ee2f
  DW_CFA_restore: r6 (rbp)
  DW_CFA_advance_loc: 1 to 000000000047ee30
  DW_CFA_offset: r3 (rbx) at cfa-56
  DW_CFA_offset: r6 (rbp) at cfa-16
  DW_CFA_offset: r12 (r12) at cfa-24
  DW_CFA_offset: r13 (r13) at cfa-32
  DW_CFA_offset: r14 (r14) at cfa-40
  DW_CFA_offset: r15 (r15) at cfa-48
  DW_CFA_advance_loc1: 73 to 000000000047ee79
  DW_CFA_restore: r3 (rbx)
  DW_CFA_advance_loc: 1 to 000000000047ee7a
  DW_CFA_restore: r15 (r15)
  DW_CFA_advance_loc: 2 to 000000000047ee7c
  DW_CFA_restore: r14 (r14)
  DW_CFA_advance_loc: 2 to 000000000047ee7e
  DW_CFA_restore: r13 (r13)
  DW_CFA_advance_loc: 2 to 000000000047ee80
  DW_CFA_restore: r12 (r12)
  DW_CFA_advance_loc: 3 to 000000000047ee83
  DW_CFA_restore: r6 (rbp)
  DW_CFA_advance_loc: 1 to 000000000047ee84
  DW_CFA_offset: r3 (rbx) at cfa-56
  DW_CFA_offset: r6 (rbp) at cfa-16
  DW_CFA_offset: r12 (r12) at cfa-24
  DW_CFA_offset: r13 (r13) at cfa-32
  DW_CFA_offset: r14 (r14) at cfa-40
  DW_CFA_offset: r15 (r15) at cfa-48
  DW_CFA_advance_loc2: 590 to 000000000047f0d2
  DW_CFA_restore: r3 (rbx)
  DW_CFA_advance_loc: 1 to 000000000047f0d3
  DW_CFA_restore: r15 (r15)
  DW_CFA_advance_loc: 2 to 000000000047f0d5
  DW_CFA_restore: r14 (r14)
  DW_CFA_advance_loc: 2 to 000000000047f0d7
  DW_CFA_restore: r13 (r13)
  DW_CFA_advance_loc: 2 to 000000000047f0d9
  DW_CFA_restore: r12 (r12)
  DW_CFA_advance_loc: 3 to 000000000047f0dc
  DW_CFA_restore: r6 (rbp)
  DW_CFA_advance_loc: 1 to 000000000047f0dd
  DW_CFA_offset: r3 (rbx) at cfa-56
  DW_CFA_offset: r6 (rbp) at cfa-16
  DW_CFA_offset: r12 (r12) at cfa-24
  DW_CFA_offset: r13 (r13) at cfa-32
  DW_CFA_offset: r14 (r14) at cfa-40
  DW_CFA_offset: r15 (r15) at cfa-48
  DW_CFA_advance_loc2: 1190 to 000000000047f583
  DW_CFA_restore: r3 (rbx)
  DW_CFA_advance_loc: 1 to 000000000047f584
  DW_CFA_restore: r15 (r15)
  DW_CFA_advance_loc: 2 to 000000000047f586
  DW_CFA_restore: r14 (r14)
  DW_CFA_advance_loc: 2 to 000000000047f588
  DW_CFA_restore: r13 (r13)
  DW_CFA_advance_loc: 2 to 000000000047f58a
  DW_CFA_restore: r12 (r12)
  DW_CFA_advance_loc: 3 to 000000000047f58d
  DW_CFA_restore: r6 (rbp)
  DW_CFA_advance_loc: 1 to 000000000047f58e
  DW_CFA_offset: r3 (rbx) at cfa-56
  DW_CFA_offset: r6 (rbp) at cfa-16
  DW_CFA_offset: r12 (r12) at cfa-24
  DW_CFA_offset: r13 (r13) at cfa-32
  DW_CFA_offset: r14 (r14) at cfa-40
  DW_CFA_offset: r15 (r15) at cfa-48
  DW_CFA_advance_loc2: 774 to 000000000047f894
  DW_CFA_restore: r3 (rbx)
  DW_CFA_advance_loc: 1 to 000000000047f895
  DW_CFA_restore: r15 (r15)
  DW_CFA_advance_loc: 2 to 000000000047f897
  DW_CFA_restore: r14 (r14)
  DW_CFA_advance_loc: 2 to 000000000047f899
  DW_CFA_restore: r13 (r13)
  DW_CFA_advance_loc: 2 to 000000000047f89b
  DW_CFA_restore: r12 (r12)
  DW_CFA_advance_loc: 3 to 000000000047f89e
  DW_CFA_restore: r6 (rbp)
  DW_CFA_advance_loc: 1 to 000000000047f89f
  DW_CFA_offset: r3 (rbx) at cfa-56
  DW_CFA_offset: r6 (rbp) at cfa-16
  DW_CFA_offset: r12 (r12) at cfa-24
  DW_CFA_offset: r13 (r13) at cfa-32
  DW_CFA_offset: r14 (r14) at cfa-40
  DW_CFA_offset: r15 (r15) at cfa-48
  DW_CFA_advance_loc1: 94 to 000000000047f8fd
  DW_CFA_restore: r3 (rbx)
  DW_CFA_advance_loc: 1 to 000000000047f8fe
  DW_CFA_restore: r15 (r15)
  DW_CFA_advance_loc: 2 to 000000000047f900
  DW_CFA_restore: r14 (r14)
  DW_CFA_advance_loc: 2 to 000000000047f902
  DW_CFA_restore: r13 (r13)
  DW_CFA_advance_loc: 2 to 000000000047f904
  DW_CFA_restore: r12 (r12)
  DW_CFA_advance_loc: 3 to 000000000047f907
  DW_CFA_restore: r6 (rbp)
  DW_CFA_advance_loc: 1 to 000000000047f908
  DW_CFA_offset: r3 (rbx) at cfa-56
  DW_CFA_offset: r6 (rbp) at cfa-16
  DW_CFA_offset: r12 (r12) at cfa-24
  DW_CFA_offset: r13 (r13) at cfa-32
  DW_CFA_offset: r14 (r14) at cfa-40
  DW_CFA_offset: r15 (r15) at cfa-48
  DW_CFA_advance_loc2: 424 to 000000000047fab0
  DW_CFA_restore: r3 (rbx)
  DW_CFA_advance_loc: 1 to 000000000047fab1
  DW_CFA_restore: r15 (r15)
  DW_CFA_advance_loc: 2 to 000000000047fab3
  DW_CFA_restore: r14 (r14)
  DW_CFA_advance_loc: 2 to 000000000047fab5
  DW_CFA_restore: r13 (r13)
  DW_CFA_advance_loc: 2 to 000000000047fab7
  DW_CFA_restore: r12 (r12)
  DW_CFA_advance_loc: 3 to 000000000047faba
  DW_CFA_restore: r6 (rbp)
  DW_CFA_advance_loc: 1 to 000000000047fabb
  DW_CFA_offset: r3 (rbx) at cfa-56
  DW_CFA_offset: r6 (rbp) at cfa-16
  DW_CFA_offset: r12 (r12) at cfa-24
  DW_CFA_offset: r13 (r13) at cfa-32
  DW_CFA_offset: r14 (r14) at cfa-40
  DW_CFA_offset: r15 (r15) at cfa-48
  DW_CFA_advance_loc2: 5126 to 0000000000480ec1
  DW_CFA_restore: r3 (rbx)
  DW_CFA_advance_loc: 1 to 0000000000480ec2
  DW_CFA_restore: r15 (r15)
  DW_CFA_advance_loc: 2 to 0000000000480ec4
  DW_CFA_restore: r14 (r14)
  DW_CFA_advance_loc: 2 to 0000000000480ec6
  DW_CFA_restore: r13 (r13)
  DW_CFA_advance_loc: 2 to 0000000000480ec8
  DW_CFA_restore: r12 (r12)
  DW_CFA_advance_loc: 3 to 0000000000480ecb
  DW_CFA_restore: r6 (rbp)
  DW_CFA_advance_loc: 1 to 0000000000480ecc
  DW_CFA_offset: r3 (rbx) at cfa-56
  DW_CFA_offset: r6 (rbp) at cfa-16
  DW_CFA_offset: r12 (r12) at cfa-24
  DW_CFA_offset: r13 (r13) at cfa-32
  DW_CFA_offset: r14 (r14) at cfa-40
  DW_CFA_offset: r15 (r15) at cfa-48
  DW_CFA_advance_loc2: 1696 to 000000000048156c
  DW_CFA_restore: r3 (rbx)
  DW_CFA_advance_loc: 1 to 000000000048156d
  DW_CFA_restore: r15 (r15)
  DW_CFA_advance_loc: 2 to 000000000048156f
  DW_CFA_restore: r14 (r14)
  DW_CFA_advance_loc: 2 to 0000000000481571
  DW_CFA_restore: r13 (r13)
  DW_CFA_advance_loc: 2 to 0000000000481573
  DW_CFA_restore: r12 (r12)
  DW_CFA_advance_loc: 3 to 0000000000481576
  DW_CFA_restore: r6 (rbp)
  DW_CFA_advance_loc: 1 to 0000000000481577
  DW_CFA_offset: r3 (rbx) at cfa-56
  DW_CFA_offset: r6 (rbp) at cfa-16
  DW_CFA_offset: r12 (r12) at cfa-24
  DW_CFA_offset: r13 (r13) at cfa-32
  DW_CFA_offset: r14 (r14) at cfa-40
  DW_CFA_offset: r15 (r15) at cfa-48
  DW_CFA_advance_loc2: 1739 to 0000000000481c42
  DW_CFA_restore: r3 (rbx)
  DW_CFA_advance_loc: 1 to 0000000000481c43
  DW_CFA_restore: r15 (r15)
  DW_CFA_advance_loc: 2 to 0000000000481c45
  DW_CFA_restore: r14 (r14)
  DW_CFA_advance_loc: 2 to 0000000000481c47
  DW_CFA_restore: r13 (r13)
  DW_CFA_advance_loc: 2 to 0000000000481c49
  DW_CFA_restore: r12 (r12)
  DW_CFA_advance_loc: 3 to 0000000000481c4c
  DW_CFA_restore: r6 (rbp)
  DW_CFA_advance_loc: 1 to 0000000000481c4d
  DW_CFA_offset: r3 (rbx) at cfa-56
  DW_CFA_offset: r6 (rbp) at cfa-16
  DW_CFA_offset: r12 (r12) at cfa-24
  DW_CFA_offset: r13 (r13) at cfa-32
  DW_CFA_offset: r14 (r14) at cfa-40
  DW_CFA_offset: r15 (r15) at cfa-48
  DW_CFA_advance_loc2: 1301 to 0000000000482162
  DW_CFA_restore: r3 (rbx)
  DW_CFA_advance_loc: 1 to 0000000000482163
  DW_CFA_restore: r15 (r15)
  DW_CFA_advance_loc: 2 to 0000000000482165
  DW_CFA_restore: r14 (r14)
  DW_CFA_advance_loc: 2 to 0000000000482167
  DW_CFA_restore: r13 (r13)
  DW_CFA_advance_loc: 2 to 0000000000482169
  DW_CFA_restore: r12 (r12)
  DW_CFA_advance_loc: 3 to 000000000048216c
  DW_CFA_restore: r6 (rbp)
  DW_CFA_advance_loc: 1 to 000000000048216d
  DW_CFA_offset: r3 (rbx) at cfa-56
  DW_CFA_offset: r6 (rbp) at cfa-16
  DW_CFA_offset: r12 (r12) at cfa-24
  DW_CFA_offset: r13 (r13) at cfa-32
  DW_CFA_offset: r14 (r14) at cfa-40
  DW_CFA_offset: r15 (r15) at cfa-48
  DW_CFA_nop
  DW_CFA_nop
  DW_CFA_nop

00005b50 000000000000014c 00005aac FDE cie=000000a8 pc=0000000000482230..00000000004835e0
  DW_CFA_advance_loc: 1 to 0000000000482231
  DW_CFA_def_cfa_offset: 16
  DW_CFA_advance_loc: 3 to 0000000000482234
  DW_CFA_def_cfa: r6 (rbp) ofs 16
  DW_CFA_offset: r6 (rbp) at cfa-16
  DW_CFA_advance_loc: 19 to 0000000000482247
  DW_CFA_offset: r3 (rbx) at cfa-56
  DW_CFA_offset: r12 (r12) at cfa-24
  DW_CFA_offset: r13 (r13) at cfa-32
  DW_CFA_offset: r14 (r14) at cfa-40
  DW_CFA_offset: r15 (r15) at cfa-48
  DW_CFA_advance_loc2: 502 to 000000000048243d
  DW_CFA_restore: r3 (rbx)
  DW_CFA_advance_loc: 1 to 000000000048243e
  DW_CFA_restore: r15 (r15)
  DW_CFA_advance_loc: 2 to 0000000000482440
  DW_CFA_restore: r14 (r14)
  DW_CFA_advance_loc: 2 to 0000000000482442
  DW_CFA_restore: r13 (r13)
  DW_CFA_advance_loc: 2 to 0000000000482444
  DW_CFA_restore: r12 (r12)
  DW_CFA_advance_loc: 3 to 0000000000482447
  DW_CFA_restore: r6 (rbp)
  DW_CFA_advance_loc: 1 to 0000000000482448
  DW_CFA_offset: r3 (rbx) at cfa-56
  DW_CFA_offset: r6 (rbp) at cfa-16
  DW_CFA_offset: r12 (r12) at cfa-24
  DW_CFA_offset: r13 (r13) at cfa-32
  DW_CFA_offset: r14 (r14) at cfa-40
  DW_CFA_offset: r15 (r15) at cfa-48
  DW_CFA_advance_loc2: 325 to 000000000048258d
  DW_CFA_restore: r3 (rbx)
  DW_CFA_advance_loc: 1 to 000000000048258e
  DW_CFA_restore: r15 (r15)
  DW_CFA_advance_loc: 2 to 0000000000482590
  DW_CFA_restore: r14 (r14)
  DW_CFA_advance_loc: 2 to 0000000000482592
  DW_CFA_restore: r13 (r13)
  DW_CFA_advance_loc: 2 to 0000000000482594
  DW_CFA_restore: r12 (r12)
  DW_CFA_advance_loc: 3 to 0000000000482597
  DW_CFA_restore: r6 (rbp)
  DW_CFA_advance_loc: 1 to 0000000000482598
  DW_CFA_offset: r3 (rbx) at cfa-56
  DW_CFA_offset: r6 (rbp) at cfa-16
  DW_CFA_offset: r12 (r12) at cfa-24
  DW_CFA_offset: r13 (r13) at cfa-32
  DW_CFA_offset: r14 (r14) at cfa-40
  DW_CFA_offset: r15 (r15) at cfa-48
  DW_CFA_advance_loc1: 187 to 0000000000482653
  DW_CFA_restore: r3 (rbx)
  DW_CFA_advance_loc: 1 to 0000000000482654
  DW_CFA_restore: r15 (r15)
  DW_CFA_advance_loc: 2 to 0000000000482656
  DW_CFA_restore: r14 (r14)
  DW_CFA_advance_loc: 2 to 0000000000482658
  DW_CFA_restore: r13 (r13)
  DW_CFA_advance_loc: 2 to 000000000048265a
  DW_CFA_restore: r12 (r12)
  DW_CFA_advance_loc: 3 to 000000000048265d
  DW_CFA_restore: r6 (rbp)
  DW_CFA_advance_loc: 1 to 000000000048265e
  DW_CFA_offset: r3 (rbx) at cfa-56
  DW_CFA_offset: r6 (rbp) at cfa-16
  DW_CFA_offset: r12 (r12) at cfa-24
  DW_CFA_offset: r13 (r13) at cfa-32
  DW_CFA_offset: r14 (r14) at cfa-40
  DW_CFA_offset: r15 (r15) at cfa-48
  DW_CFA_advance_loc2: 828 to 000000000048299a
  DW_CFA_restore: r3 (rbx)
  DW_CFA_advance_loc: 1 to 000000000048299b
  DW_CFA_restore: r15 (r15)
  DW_CFA_advance_loc: 2 to 000000000048299d
  DW_CFA_restore: r14 (r14)
  DW_CFA_advance_loc: 2 to 000000000048299f
  DW_CFA_restore: r13 (r13)
  DW_CFA_advance_loc: 2 to 00000000004829a1
  DW_CFA_restore: r12 (r12)
  DW_CFA_advance_loc: 3 to 00000000004829a4
  DW_CFA_restore: r6 (rbp)
  DW_CFA_advance_loc: 1 to 00000000004829a5
  DW_CFA_offset: r3 (rbx) at cfa-56
  DW_CFA_offset: r6 (rbp) at cfa-16
  DW_CFA_offset: r12 (r12) at cfa-24
  DW_CFA_offset: r13 (r13) at cfa-32
  DW_CFA_offset: r14 (r14) at cfa-40
  DW_CFA_offset: r15 (r15) at cfa-48
  DW_CFA_advance_loc1: 187 to 0000000000482a60
  DW_CFA_restore: r3 (rbx)
  DW_CFA_advance_loc: 1 to 0000000000482a61
  DW_CFA_restore: r15 (r15)
  DW_CFA_advance_loc: 2 to 0000000000482a63
  DW_CFA_restore: r14 (r14)
  DW_CFA_advance_loc: 2 to 0000000000482a65
  DW_CFA_restore: r13 (r13)
  DW_CFA_advance_loc: 2 to 0000000000482a67
  DW_CFA_restore: r12 (r12)
  DW_CFA_advance_loc: 3 to 0000000000482a6a
  DW_CFA_restore: r6 (rbp)
  DW_CFA_advance_loc: 1 to 0000000000482a6b
  DW_CFA_offset: r3 (rbx) at cfa-56
  DW_CFA_offset: r6 (rbp) at cfa-16
  DW_CFA_offset: r12 (r12) at cfa-24
  DW_CFA_offset: r13 (r13) at cfa-32
  DW_CFA_offset: r14 (r14) at cfa-40
  DW_CFA_offset: r15 (r15) at cfa-48
  DW_CFA_advance_loc2: 933 to 0000000000482e10
  DW_CFA_restore: r3 (rbx)
  DW_CFA_advance_loc: 1 to 0000000000482e11
  DW_CFA_restore: r15 (r15)
  DW_CFA_advance_loc: 2 to 0000000000482e13
  DW_CFA_restore: r14 (r14)
  DW_CFA_advance_loc: 2 to 0000000000482e15
  DW_CFA_restore: r13 (r13)
  DW_CFA_advance_loc: 2 to 0000000000482e17
  DW_CFA_restore: r12 (r12)
  DW_CFA_advance_loc: 3 to 0000000000482e1a
  DW_CFA_restore: r6 (rbp)
  DW_CFA_advance_loc: 1 to 0000000000482e1b
  DW_CFA_offset: r3 (rbx) at cfa-56
  DW_CFA_offset: r6 (rbp) at cfa-16
  DW_CFA_offset: r12 (r12) at cfa-24
  DW_CFA_offset: r13 (r13) at cfa-32
  DW_CFA_offset: r14 (r14) at cfa-40
  DW_CFA_offset: r15 (r15) at cfa-48
  DW_CFA_advance_loc1: 174 to 0000000000482ec9
  DW_CFA_restore: r3 (rbx)
  DW_CFA_advance_loc: 1 to 0000000000482eca
  DW_CFA_restore: r15 (r15)
  DW_CFA_advance_loc: 2 to 0000000000482ecc
  DW_CFA_restore: r14 (r14)
  DW_CFA_advance_loc: 2 to 0000000000482ece
  DW_CFA_restore: r13 (r13)
  DW_CFA_advance_loc: 2 to 0000000000482ed0
  DW_CFA_restore: r12 (r12)
  DW_CFA_advance_loc: 3 to 0000000000482ed3
  DW_CFA_restore: r6 (rbp)
  DW_CFA_advance_loc: 1 to 0000000000482ed4
  DW_CFA_offset: r3 (rbx) at cfa-56
  DW_CFA_offset: r6 (rbp) at cfa-16
  DW_CFA_offset: r12 (r12) at cfa-24
  DW_CFA_offset: r13 (r13) at cfa-32
  DW_CFA_offset: r14 (r14) at cfa-40
  DW_CFA_offset: r15 (r15) at cfa-48
  DW_CFA_advance_loc2: 586 to 000000000048311e
  DW_CFA_restore: r3 (rbx)
  DW_CFA_advance_loc: 1 to 000000000048311f
  DW_CFA_restore: r15 (r15)
  DW_CFA_advance_loc: 2 to 0000000000483121
  DW_CFA_restore: r14 (r14)
  DW_CFA_advance_loc: 2 to 0000000000483123
  DW_CFA_restore: r13 (r13)
  DW_CFA_advance_loc: 2 to 0000000000483125
  DW_CFA_restore: r12 (r12)
  DW_CFA_advance_loc: 3 to 0000000000483128
  DW_CFA_restore: r6 (rbp)
  DW_CFA_advance_loc: 1 to 0000000000483129
  DW_CFA_offset: r3 (rbx) at cfa-56
  DW_CFA_offset: r6 (rbp) at cfa-16
  DW_CFA_offset: r12 (r12) at cfa-24
  DW_CFA_offset: r13 (r13) at cfa-32
  DW_CFA_offset: r14 (r14) at cfa-40
  DW_CFA_offset: r15 (r15) at cfa-48
  DW_CFA_advance_loc: 32 to 0000000000483149
  DW_CFA_restore: r3 (rbx)
  DW_CFA_advance_loc: 1 to 000000000048314a
  DW_CFA_restore: r15 (r15)
  DW_CFA_advance_loc: 2 to 000000000048314c
  DW_CFA_restore: r14 (r14)
  DW_CFA_advance_loc: 2 to 000000000048314e
  DW_CFA_restore: r13 (r13)
  DW_CFA_advance_loc: 2 to 0000000000483150
  DW_CFA_restore: r12 (r12)
  DW_CFA_advance_loc: 3 to 0000000000483153
  DW_CFA_restore: r6 (rbp)
  DW_CFA_advance_loc: 1 to 0000000000483154
  DW_CFA_offset: r3 (rbx) at cfa-56
  DW_CFA_offset: r6 (rbp) at cfa-16
  DW_CFA_offset: r12 (r12) at cfa-24
  DW_CFA_offset: r13 (r13) at cfa-32
  DW_CFA_offset: r14 (r14) at cfa-40
  DW_CFA_offset: r15 (r15) at cfa-48
  DW_CFA_advance_loc: 45 to 0000000000483181
  DW_CFA_restore: r3 (rbx)
  DW_CFA_advance_loc: 1 to 0000000000483182
  DW_CFA_restore: r15 (r15)
  DW_CFA_advance_loc: 2 to 0000000000483184
  DW_CFA_restore: r14 (r14)
  DW_CFA_advance_loc: 2 to 0000000000483186
  DW_CFA_restore: r13 (r13)
  DW_CFA_advance_loc: 2 to 0000000000483188
  DW_CFA_restore: r12 (r12)
  DW_CFA_advance_loc: 3 to 000000000048318b
  DW_CFA_restore: r6 (rbp)
  DW_CFA_advance_loc: 1 to 000000000048318c
  DW_CFA_offset: r3 (rbx) at cfa-56
  DW_CFA_offset: r6 (rbp) at cfa-16
  DW_CFA_offset: r12 (r12) at cfa-24
  DW_CFA_offset: r13 (r13) at cfa-32
  DW_CFA_offset: r14 (r14) at cfa-40
  DW_CFA_offset: r15 (r15) at cfa-48
  DW_CFA_advance_loc: 62 to 00000000004831ca
  DW_CFA_restore: r3 (rbx)
  DW_CFA_advance_loc: 1 to 00000000004831cb
  DW_CFA_restore: r15 (r15)
  DW_CFA_advance_loc: 2 to 00000000004831cd
  DW_CFA_restore: r14 (r14)
  DW_CFA_advance_loc: 2 to 00000000004831cf
  DW_CFA_restore: r13 (r13)
  DW_CFA_advance_loc: 2 to 00000000004831d1
  DW_CFA_restore: r12 (r12)
  DW_CFA_advance_loc: 3 to 00000000004831d4
  DW_CFA_restore: r6 (rbp)
  DW_CFA_advance_loc: 1 to 00000000004831d5
  DW_CFA_offset: r3 (rbx) at cfa-56
  DW_CFA_offset: r6 (rbp) at cfa-16
  DW_CFA_offset: r12 (r12) at cfa-24
  DW_CFA_offset: r13 (r13) at cfa-32
  DW_CFA_offset: r14 (r14) at cfa-40
  DW_CFA_offset: r15 (r15) at cfa-48
  DW_CFA_nop
  DW_CFA_nop
  DW_CFA_nop
  DW_CFA_nop

00005ca0 0000000000000034 00005bfc FDE cie=000000a8 pc=00000000004835e0..0000000000483660
  DW_CFA_advance_loc: 1 to 00000000004835e1
  DW_CFA_def_cfa_offset: 16
  DW_CFA_advance_loc: 3 to 00000000004835e4
  DW_CFA_def_cfa: r6 (rbp) ofs 16
  DW_CFA_offset: r6 (rbp) at cfa-16
  DW_CFA_advance_loc: 8 to 00000000004835ec
  DW_CFA_offset: r12 (r12) at cfa-24
  DW_CFA_offset: r13 (r13) at cfa-32
  DW_CFA_offset: r14 (r14) at cfa-40
  DW_CFA_offset: r15 (r15) at cfa-48
  DW_CFA_advance_loc1: 94 to 000000000048364a
  DW_CFA_restore: r15 (r15)
  DW_CFA_advance_loc: 2 to 000000000048364c
  DW_CFA_restore: r14 (r14)
  DW_CFA_advance_loc: 2 to 000000000048364e
  DW_CFA_restore: r13 (r13)
  DW_CFA_advance_loc: 2 to 0000000000483650
  DW_CFA_restore: r12 (r12)
  DW_CFA_advance_loc: 3 to 0000000000483653
  DW_CFA_restore: r6 (rbp)
  DW_CFA_nop
  DW_CFA_nop
  DW_CFA_nop

00005cd8 0000000000000034 00005c34 FDE cie=000000a8 pc=0000000000483660..0000000000483850
  DW_CFA_advance_loc: 1 to 0000000000483661
  DW_CFA_def_cfa_offset: 16
  DW_CFA_advance_loc: 3 to 0000000000483664
  DW_CFA_def_cfa: r6 (rbp) ofs 16
  DW_CFA_offset: r6 (rbp) at cfa-16
  DW_CFA_advance_loc1: 216 to 000000000048373c
  DW_CFA_restore: r6 (rbp)
  DW_CFA_advance_loc: 1 to 000000000048373d
  DW_CFA_offset: r6 (rbp) at cfa-16
  DW_CFA_advance_loc1: 115 to 00000000004837b0
  DW_CFA_restore: r6 (rbp)
  DW_CFA_advance_loc: 1 to 00000000004837b1
  DW_CFA_offset: r6 (rbp) at cfa-16
  DW_CFA_advance_loc1: 82 to 0000000000483803
  DW_CFA_restore: r6 (rbp)
  DW_CFA_advance_loc: 1 to 0000000000483804
  DW_CFA_offset: r6 (rbp) at cfa-16
  DW_CFA_advance_loc1: 73 to 000000000048384d
  DW_CFA_restore: r6 (rbp)
  DW_CFA_nop
  DW_CFA_nop

00005d10 0000000000000034 00005c6c FDE cie=000000a8 pc=0000000000483850..0000000000483a40
  DW_CFA_advance_loc: 1 to 0000000000483851
  DW_CFA_def_cfa_offset: 16
  DW_CFA_advance_loc: 3 to 0000000000483854
  DW_CFA_def_cfa: r6 (rbp) ofs 16
  DW_CFA_offset: r6 (rbp) at cfa-16
  DW_CFA_advance_loc1: 216 to 000000000048392c
  DW_CFA_restore: r6 (rbp)
  DW_CFA_advance_loc: 1 to 000000000048392d
  DW_CFA_offset: r6 (rbp) at cfa-16
  DW_CFA_advance_loc1: 115 to 00000000004839a0
  DW_CFA_restore: r6 (rbp)
  DW_CFA_advance_loc: 1 to 00000000004839a1
  DW_CFA_offset: r6 (rbp) at cfa-16
  DW_CFA_advance_loc1: 82 to 00000000004839f3
  DW_CFA_restore: r6 (rbp)
  DW_CFA_advance_loc: 1 to 00000000004839f4
  DW_CFA_offset: r6 (rbp) at cfa-16
  DW_CFA_advance_loc1: 73 to 0000000000483a3d
  DW_CFA_restore: r6 (rbp)
  DW_CFA_nop
  DW_CFA_nop

00005d48 0000000000000034 00005ca4 FDE cie=000000a8 pc=0000000000483a40..0000000000483bb0
  DW_CFA_advance_loc: 1 to 0000000000483a41
  DW_CFA_def_cfa_offset: 16
  DW_CFA_advance_loc: 3 to 0000000000483a44
  DW_CFA_def_cfa: r6 (rbp) ofs 16
  DW_CFA_offset: r6 (rbp) at cfa-16
  DW_CFA_advance_loc1: 194 to 0000000000483b06
  DW_CFA_restore: r6 (rbp)
  DW_CFA_advance_loc: 1 to 0000000000483b07
  DW_CFA_offset: r6 (rbp) at cfa-16
  DW_CFA_advance_loc1: 102 to 0000000000483b6d
  DW_CFA_restore: r6 (rbp)
  DW_CFA_advance_loc: 1 to 0000000000483b6e
  DW_CFA_offset: r6 (rbp) at cfa-16
  DW_CFA_advance_loc: 35 to 0000000000483b91
  DW_CFA_restore: r6 (rbp)
  DW_CFA_advance_loc: 1 to 0000000000483b92
  DW_CFA_offset: r6 (rbp) at cfa-16
  DW_CFA_nop
  DW_CFA_nop
  DW_CFA_nop
  DW_CFA_nop
  DW_CFA_nop
  DW_CFA_nop

00005d80 000000000000002c 00005cdc FDE cie=000000a8 pc=0000000000483bb0..0000000000483d20
  DW_CFA_advance_loc: 1 to 0000000000483bb1
  DW_CFA_def_cfa_offset: 16
  DW_CFA_advance_loc: 3 to 0000000000483bb4
  DW_CFA_def_cfa: r6 (rbp) ofs 16
  DW_CFA_offset: r6 (rbp) at cfa-16
  DW_CFA_advance_loc1: 189 to 0000000000483c71
  DW_CFA_restore: r6 (rbp)
  DW_CFA_advance_loc: 1 to 0000000000483c72
  DW_CFA_offset: r6 (rbp) at cfa-16
  DW_CFA_advance_loc: 6 to 0000000000483c78
  DW_CFA_restore: r6 (rbp)
  DW_CFA_advance_loc: 1 to 0000000000483c79
  DW_CFA_offset: r6 (rbp) at cfa-16
  DW_CFA_nop
  DW_CFA_nop
  DW_CFA_nop
  DW_CFA_nop

00005db0 0000000000000034 00005d0c FDE cie=000000a8 pc=0000000000483d20..0000000000483f20
  DW_CFA_advance_loc: 1 to 0000000000483d21
  DW_CFA_def_cfa_offset: 16
  DW_CFA_advance_loc: 3 to 0000000000483d24
  DW_CFA_def_cfa: r6 (rbp) ofs 16
  DW_CFA_offset: r6 (rbp) at cfa-16
  DW_CFA_advance_loc1: 219 to 0000000000483dff
  DW_CFA_restore: r6 (rbp)
  DW_CFA_advance_loc: 1 to 0000000000483e00
  DW_CFA_offset: r6 (rbp) at cfa-16
  DW_CFA_advance_loc1: 118 to 0000000000483e76
  DW_CFA_restore: r6 (rbp)
  DW_CFA_advance_loc: 1 to 0000000000483e77
  DW_CFA_offset: r6 (rbp) at cfa-16
  DW_CFA_advance_loc1: 89 to 0000000000483ed0
  DW_CFA_restore: r6 (rbp)
  DW_CFA_advance_loc: 1 to 0000000000483ed1
  DW_CFA_offset: r6 (rbp) at cfa-16
  DW_CFA_advance_loc1: 70 to 0000000000483f17
  DW_CFA_restore: r6 (rbp)
  DW_CFA_nop
  DW_CFA_nop

00005de8 0000000000000034 00005d44 FDE cie=000000a8 pc=0000000000483f20..0000000000484120
  DW_CFA_advance_loc: 1 to 0000000000483f21
  DW_CFA_def_cfa_offset: 16
  DW_CFA_advance_loc: 3 to 0000000000483f24
  DW_CFA_def_cfa: r6 (rbp) ofs 16
  DW_CFA_offset: r6 (rbp) at cfa-16
  DW_CFA_advance_loc1: 219 to 0000000000483fff
  DW_CFA_restore: r6 (rbp)
  DW_CFA_advance_loc: 1 to 0000000000484000
  DW_CFA_offset: r6 (rbp) at cfa-16
  DW_CFA_advance_loc1: 118 to 0000000000484076
  DW_CFA_restore: r6 (rbp)
  DW_CFA_advance_loc: 1 to 0000000000484077
  DW_CFA_offset: r6 (rbp) at cfa-16
  DW_CFA_advance_loc1: 89 to 00000000004840d0
  DW_CFA_restore: r6 (rbp)
  DW_CFA_advance_loc: 1 to 00000000004840d1
  DW_CFA_offset: r6 (rbp) at cfa-16
  DW_CFA_advance_loc1: 70 to 0000000000484117
  DW_CFA_restore: r6 (rbp)
  DW_CFA_nop
  DW_CFA_nop

00005e20 00000000000000c4 00005d7c FDE cie=000000a8 pc=0000000000484120..0000000000484290
  DW_CFA_advance_loc: 1 to 0000000000484121
  DW_CFA_def_cfa_offset: 16
  DW_CFA_advance_loc: 3 to 0000000000484124
  DW_CFA_def_cfa: r6 (rbp) ofs 16
  DW_CFA_offset: r6 (rbp) at cfa-16
  DW_CFA_advance_loc: 13 to 0000000000484131
  DW_CFA_offset: r3 (rbx) at cfa-56
  DW_CFA_offset: r12 (r12) at cfa-24
  DW_CFA_offset: r13 (r13) at cfa-32
  DW_CFA_offset: r14 (r14) at cfa-40
  DW_CFA_offset: r15 (r15) at cfa-48
  DW_CFA_advance_loc1: 77 to 000000000048417e
  DW_CFA_restore: r3 (rbx)
  DW_CFA_advance_loc: 1 to 000000000048417f
  DW_CFA_restore: r15 (r15)
  DW_CFA_advance_loc: 2 to 0000000000484181
  DW_CFA_restore: r14 (r14)
  DW_CFA_advance_loc: 2 to 0000000000484183
  DW_CFA_restore: r13 (r13)
  DW_CFA_advance_loc: 2 to 0000000000484185
  DW_CFA_restore: r12 (r12)
  DW_CFA_advance_loc: 3 to 0000000000484188
  DW_CFA_restore: r6 (rbp)
  DW_CFA_advance_loc: 1 to 0000000000484189
  DW_CFA_offset: r3 (rbx) at cfa-56
  DW_CFA_offset: r6 (rbp) at cfa-16
  DW_CFA_offset: r12 (r12) at cfa-24
  DW_CFA_offset: r13 (r13) at cfa-32
  DW_CFA_offset: r14 (r14) at cfa-40
  DW_CFA_offset: r15 (r15) at cfa-48
  DW_CFA_advance_loc: 21 to 000000000048419e
  DW_CFA_restore: r3 (rbx)
  DW_CFA_advance_loc: 1 to 000000000048419f
  DW_CFA_restore: r15 (r15)
  DW_CFA_advance_loc: 2 to 00000000004841a1
  DW_CFA_restore: r14 (r14)
  DW_CFA_advance_loc: 2 to 00000000004841a3
  DW_CFA_restore: r13 (r13)
  DW_CFA_advance_loc: 2 to 00000000004841a5
  DW_CFA_restore: r12 (r12)
  DW_CFA_advance_loc: 3 to 00000000004841a8
  DW_CFA_restore: r6 (rbp)
  DW_CFA_advance_loc: 1 to 00000000004841a9
  DW_CFA_offset: r3 (rbx) at cfa-56
  DW_CFA_offset: r6 (rbp) at cfa-16
  DW_CFA_offset: r12 (r12) at cfa-24
  DW_CFA_offset: r13 (r13) at cfa-32
  DW_CFA_offset: r14 (r14) at cfa-40
  DW_CFA_offset: r15 (r15) at cfa-48
  DW_CFA_advance_loc: 21 to 00000000004841be
  DW_CFA_restore: r3 (rbx)
  DW_CFA_advance_loc: 1 to 00000000004841bf
  DW_CFA_restore: r15 (r15)
  DW_CFA_advance_loc: 2 to 00000000004841c1
  DW_CFA_restore: r14 (r14)
  DW_CFA_advance_loc: 2 to 00000000004841c3
  DW_CFA_restore: r13 (r13)
  DW_CFA_advance_loc: 2 to 00000000004841c5
  DW_CFA_restore: r12 (r12)
  DW_CFA_advance_loc: 3 to 00000000004841c8
  DW_CFA_restore: r6 (rbp)
  DW_CFA_advance_loc: 1 to 00000000004841c9
  DW_CFA_offset: r3 (rbx) at cfa-56
  DW_CFA_offset: r6 (rbp) at cfa-16
  DW_CFA_offset: r12 (r12) at cfa-24
  DW_CFA_offset: r13 (r13) at cfa-32
  DW_CFA_offset: r14 (r14) at cfa-40
  DW_CFA_offset: r15 (r15) at cfa-48
  DW_CFA_advance_loc: 33 to 00000000004841ea
  DW_CFA_restore: r3 (rbx)
  DW_CFA_advance_loc: 1 to 00000000004841eb
  DW_CFA_restore: r15 (r15)
  DW_CFA_advance_loc: 2 to 00000000004841ed
  DW_CFA_restore: r14 (r14)
  DW_CFA_advance_loc: 2 to 00000000004841ef
  DW_CFA_restore: r13 (r13)
  DW_CFA_advance_loc: 2 to 00000000004841f1
  DW_CFA_restore: r12 (r12)
  DW_CFA_advance_loc: 3 to 00000000004841f4
  DW_CFA_restore: r6 (rbp)
  DW_CFA_advance_loc: 1 to 00000000004841f5
  DW_CFA_offset: r3 (rbx) at cfa-56
  DW_CFA_offset: r6 (rbp) at cfa-16
  DW_CFA_offset: r12 (r12) at cfa-24
  DW_CFA_offset: r13 (r13) at cfa-32
  DW_CFA_offset: r14 (r14) at cfa-40
  DW_CFA_offset: r15 (r15) at cfa-48
  DW_CFA_advance_loc1: 64 to 0000000000484235
  DW_CFA_restore: r3 (rbx)
  DW_CFA_advance_loc: 1 to 0000000000484236
  DW_CFA_restore: r15 (r15)
  DW_CFA_advance_loc: 2 to 0000000000484238
  DW_CFA_restore: r14 (r14)
  DW_CFA_advance_loc: 2 to 000000000048423a
  DW_CFA_restore: r13 (r13)
  DW_CFA_advance_loc: 2 to 000000000048423c
  DW_CFA_restore: r12 (r12)
  DW_CFA_advance_loc: 3 to 000000000048423f
  DW_CFA_restore: r6 (rbp)
  DW_CFA_advance_loc: 1 to 0000000000484240
  DW_CFA_offset: r3 (rbx) at cfa-56
  DW_CFA_offset: r6 (rbp) at cfa-16
  DW_CFA_offset: r12 (r12) at cfa-24
  DW_CFA_offset: r13 (r13) at cfa-32
  DW_CFA_offset: r14 (r14) at cfa-40
  DW_CFA_offset: r15 (r15) at cfa-48
  DW_CFA_advance_loc: 52 to 0000000000484274
  DW_CFA_restore: r3 (rbx)
  DW_CFA_advance_loc: 1 to 0000000000484275
  DW_CFA_restore: r15 (r15)
  DW_CFA_advance_loc: 2 to 0000000000484277
  DW_CFA_restore: r14 (r14)
  DW_CFA_advance_loc: 2 to 0000000000484279
  DW_CFA_restore: r13 (r13)
  DW_CFA_advance_loc: 2 to 000000000048427b
  DW_CFA_restore: r12 (r12)
  DW_CFA_advance_loc: 3 to 000000000048427e
  DW_CFA_restore: r6 (rbp)
  DW_CFA_advance_loc: 1 to 000000000048427f
  DW_CFA_offset: r3 (rbx) at cfa-56
  DW_CFA_offset: r6 (rbp) at cfa-16
  DW_CFA_offset: r12 (r12) at cfa-24
  DW_CFA_offset: r13 (r13) at cfa-32
  DW_CFA_offset: r14 (r14) at cfa-40
  DW_CFA_offset: r15 (r15) at cfa-48
  DW_CFA_nop
  DW_CFA_nop
  DW_CFA_nop
  DW_CFA_nop

00005ee8 0000000000000044 00005e44 FDE cie=000000a8 pc=0000000000484290..00000000004844a0
  DW_CFA_advance_loc: 1 to 0000000000484291
  DW_CFA_def_cfa_offset: 16
  DW_CFA_advance_loc: 3 to 0000000000484294
  DW_CFA_def_cfa: r6 (rbp) ofs 16
  DW_CFA_offset: r6 (rbp) at cfa-16
  DW_CFA_advance_loc: 16 to 00000000004842a4
  DW_CFA_offset: r3 (rbx) at cfa-56
  DW_CFA_offset: r12 (r12) at cfa-24
  DW_CFA_offset: r13 (r13) at cfa-32
  DW_CFA_offset: r14 (r14) at cfa-40
  DW_CFA_offset: r15 (r15) at cfa-48
  DW_CFA_advance_loc2: 408 to 000000000048443c
  DW_CFA_restore: r3 (rbx)
  DW_CFA_advance_loc: 1 to 000000000048443d
  DW_CFA_restore: r15 (r15)
  DW_CFA_advance_loc: 2 to 000000000048443f
  DW_CFA_restore: r14 (r14)
  DW_CFA_advance_loc: 2 to 0000000000484441
  DW_CFA_restore: r13 (r13)
  DW_CFA_advance_loc: 2 to 0000000000484443
  DW_CFA_restore: r12 (r12)
  DW_CFA_advance_loc: 3 to 0000000000484446
  DW_CFA_restore: r6 (rbp)
  DW_CFA_advance_loc: 1 to 0000000000484447
  DW_CFA_offset: r3 (rbx) at cfa-56
  DW_CFA_offset: r6 (rbp) at cfa-16
  DW_CFA_offset: r12 (r12) at cfa-24
  DW_CFA_offset: r13 (r13) at cfa-32
  DW_CFA_offset: r14 (r14) at cfa-40
  DW_CFA_offset: r15 (r15) at cfa-48
  DW_CFA_nop

00005f30 0000000000000044 00005e8c FDE cie=000000a8 pc=00000000004844a0..00000000004845c0
  DW_CFA_advance_loc: 1 to 00000000004844a1
  DW_CFA_def_cfa_offset: 16
  DW_CFA_advance_loc: 3 to 00000000004844a4
  DW_CFA_def_cfa: r6 (rbp) ofs 16
  DW_CFA_offset: r6 (rbp) at cfa-16
  DW_CFA_advance_loc: 10 to 00000000004844ae
  DW_CFA_offset: r3 (rbx) at cfa-56
  DW_CFA_offset: r12 (r12) at cfa-24
  DW_CFA_offset: r13 (r13) at cfa-32
  DW_CFA_offset: r14 (r14) at cfa-40
  DW_CFA_offset: r15 (r15) at cfa-48
  DW_CFA_advance_loc1: 233 to 0000000000484597
  DW_CFA_restore: r3 (rbx)
  DW_CFA_advance_loc: 1 to 0000000000484598
  DW_CFA_restore: r15 (r15)
  DW_CFA_advance_loc: 2 to 000000000048459a
  DW_CFA_restore: r14 (r14)
  DW_CFA_advance_loc: 2 to 000000000048459c
  DW_CFA_restore: r13 (r13)
  DW_CFA_advance_loc: 2 to 000000000048459e
  DW_CFA_restore: r12 (r12)
  DW_CFA_advance_loc: 3 to 00000000004845a1
  DW_CFA_restore: r6 (rbp)
  DW_CFA_advance_loc: 1 to 00000000004845a2
  DW_CFA_offset: r3 (rbx) at cfa-56
  DW_CFA_offset: r6 (rbp) at cfa-16
  DW_CFA_offset: r12 (r12) at cfa-24
  DW_CFA_offset: r13 (r13) at cfa-32
  DW_CFA_offset: r14 (r14) at cfa-40
  DW_CFA_offset: r15 (r15) at cfa-48
  DW_CFA_nop
  DW_CFA_nop

00005f78 0000000000000034 00005ed4 FDE cie=000000a8 pc=00000000004845c0..0000000000484690
  DW_CFA_advance_loc: 1 to 00000000004845c1
  DW_CFA_def_cfa_offset: 16
  DW_CFA_advance_loc: 3 to 00000000004845c4
  DW_CFA_def_cfa: r6 (rbp) ofs 16
  DW_CFA_offset: r6 (rbp) at cfa-16
  DW_CFA_advance_loc: 23 to 00000000004845db
  DW_CFA_offset: r12 (r12) at cfa-24
  DW_CFA_offset: r13 (r13) at cfa-32
  DW_CFA_offset: r14 (r14) at cfa-40
  DW_CFA_advance_loc1: 164 to 000000000048467f
  DW_CFA_restore: r14 (r14)
  DW_CFA_advance_loc: 2 to 0000000000484681
  DW_CFA_restore: r13 (r13)
  DW_CFA_advance_loc: 2 to 0000000000484683
  DW_CFA_restore: r12 (r12)
  DW_CFA_advance_loc: 3 to 0000000000484686
  DW_CFA_restore: r6 (rbp)
  DW_CFA_nop
  DW_CFA_nop
  DW_CFA_nop
  DW_CFA_nop
  DW_CFA_nop
  DW_CFA_nop
  DW_CFA_nop

00005fb0 0000000000000044 00005f0c FDE cie=000000a8 pc=0000000000484690..0000000000484e00
  DW_CFA_advance_loc: 1 to 0000000000484691
  DW_CFA_def_cfa_offset: 16
  DW_CFA_advance_loc: 3 to 0000000000484694
  DW_CFA_def_cfa: r6 (rbp) ofs 16
  DW_CFA_offset: r6 (rbp) at cfa-16
  DW_CFA_advance_loc: 16 to 00000000004846a4
  DW_CFA_offset: r3 (rbx) at cfa-56
  DW_CFA_offset: r12 (r12) at cfa-24
  DW_CFA_offset: r13 (r13) at cfa-32
  DW_CFA_offset: r14 (r14) at cfa-40
  DW_CFA_offset: r15 (r15) at cfa-48
  DW_CFA_advance_loc2: 1577 to 0000000000484ccd
  DW_CFA_restore: r3 (rbx)
  DW_CFA_advance_loc: 1 to 0000000000484cce
  DW_CFA_restore: r15 (r15)
  DW_CFA_advance_loc: 2 to 0000000000484cd0
  DW_CFA_restore: r14 (r14)
  DW_CFA_advance_loc: 2 to 0000000000484cd2
  DW_CFA_restore: r13 (r13)
  DW_CFA_advance_loc: 2 to 0000000000484cd4
  DW_CFA_restore: r12 (r12)
  DW_CFA_advance_loc: 3 to 0000000000484cd7
  DW_CFA_restore: r6 (rbp)
  DW_CFA_advance_loc: 1 to 0000000000484cd8
  DW_CFA_offset: r3 (rbx) at cfa-56
  DW_CFA_offset: r6 (rbp) at cfa-16
  DW_CFA_offset: r12 (r12) at cfa-24
  DW_CFA_offset: r13 (r13) at cfa-32
  DW_CFA_offset: r14 (r14) at cfa-40
  DW_CFA_offset: r15 (r15) at cfa-48
  DW_CFA_nop

00005ff8 000000000000003c 00005f54 FDE cie=000000a8 pc=0000000000484e00..00000000004853d0
  DW_CFA_advance_loc: 1 to 0000000000484e01
  DW_CFA_def_cfa_offset: 16
  DW_CFA_advance_loc: 3 to 0000000000484e04
  DW_CFA_def_cfa: r6 (rbp) ofs 16
  DW_CFA_offset: r6 (rbp) at cfa-16
  DW_CFA_advance_loc: 10 to 0000000000484e0e
  DW_CFA_offset: r12 (r12) at cfa-24
  DW_CFA_offset: r13 (r13) at cfa-32
  DW_CFA_offset: r15 (r15) at cfa-40
  DW_CFA_advance_loc2: 1235 to 00000000004852e1
  DW_CFA_restore: r15 (r15)
  DW_CFA_advance_loc: 2 to 00000000004852e3
  DW_CFA_restore: r13 (r13)
  DW_CFA_advance_loc: 2 to 00000000004852e5
  DW_CFA_restore: r12 (r12)
  DW_CFA_advance_loc: 3 to 00000000004852e8
  DW_CFA_restore: r6 (rbp)
  DW_CFA_advance_loc: 1 to 00000000004852e9
  DW_CFA_offset: r6 (rbp) at cfa-16
  DW_CFA_offset: r12 (r12) at cfa-24
  DW_CFA_offset: r13 (r13) at cfa-32
  DW_CFA_offset: r15 (r15) at cfa-40
  DW_CFA_nop
  DW_CFA_nop
  DW_CFA_nop
  DW_CFA_nop
  DW_CFA_nop

00006038 0000000000000014 00005f94 FDE cie=000000a8 pc=00000000004853d0..00000000004853e0

00006050 0000000000000034 00005fac FDE cie=000000a8 pc=00000000004853e0..0000000000485860
  DW_CFA_advance_loc: 1 to 00000000004853e1
  DW_CFA_def_cfa_offset: 16
  DW_CFA_advance_loc: 3 to 00000000004853e4
  DW_CFA_def_cfa: r6 (rbp) ofs 16
  DW_CFA_offset: r6 (rbp) at cfa-16
  DW_CFA_advance_loc: 31 to 0000000000485403
  DW_CFA_offset: r12 (r12) at cfa-24
  DW_CFA_offset: r13 (r13) at cfa-32
  DW_CFA_advance_loc2: 990 to 00000000004857e1
  DW_CFA_restore: r13 (r13)
  DW_CFA_advance_loc: 2 to 00000000004857e3
  DW_CFA_restore: r12 (r12)
  DW_CFA_advance_loc: 3 to 00000000004857e6
  DW_CFA_restore: r6 (rbp)
  DW_CFA_advance_loc: 1 to 00000000004857e7
  DW_CFA_offset: r6 (rbp) at cfa-16
  DW_CFA_offset: r12 (r12) at cfa-24
  DW_CFA_offset: r13 (r13) at cfa-32
  DW_CFA_nop
  DW_CFA_nop
  DW_CFA_nop

00006088 0000000000000064 00005fe4 FDE cie=000000a8 pc=0000000000485860..0000000000486630
  DW_CFA_advance_loc: 1 to 0000000000485861
  DW_CFA_def_cfa_offset: 16
  DW_CFA_advance_loc: 3 to 0000000000485864
  DW_CFA_def_cfa: r6 (rbp) ofs 16
  DW_CFA_offset: r6 (rbp) at cfa-16
  DW_CFA_advance_loc1: 87 to 00000000004858bb
  DW_CFA_offset: r3 (rbx) at cfa-56
  DW_CFA_offset: r12 (r12) at cfa-24
  DW_CFA_offset: r13 (r13) at cfa-32
  DW_CFA_offset: r14 (r14) at cfa-40
  DW_CFA_offset: r15 (r15) at cfa-48
  DW_CFA_advance_loc2: 1724 to 0000000000485f77
  DW_CFA_restore: r3 (rbx)
  DW_CFA_advance_loc: 1 to 0000000000485f78
  DW_CFA_restore: r15 (r15)
  DW_CFA_advance_loc: 2 to 0000000000485f7a
  DW_CFA_restore: r14 (r14)
  DW_CFA_advance_loc: 2 to 0000000000485f7c
  DW_CFA_restore: r13 (r13)
  DW_CFA_advance_loc: 2 to 0000000000485f7e
  DW_CFA_restore: r12 (r12)
  DW_CFA_advance_loc: 3 to 0000000000485f81
  DW_CFA_restore: r6 (rbp)
  DW_CFA_advance_loc: 1 to 0000000000485f82
  DW_CFA_offset: r3 (rbx) at cfa-56
  DW_CFA_offset: r6 (rbp) at cfa-16
  DW_CFA_offset: r12 (r12) at cfa-24
  DW_CFA_offset: r13 (r13) at cfa-32
  DW_CFA_offset: r14 (r14) at cfa-40
  DW_CFA_offset: r15 (r15) at cfa-48
  DW_CFA_advance_loc: 28 to 0000000000485f9e
  DW_CFA_restore: r3 (rbx)
  DW_CFA_advance_loc: 1 to 0000000000485f9f
  DW_CFA_restore: r15 (r15)
  DW_CFA_advance_loc: 2 to 0000000000485fa1
  DW_CFA_restore: r14 (r14)
  DW_CFA_advance_loc: 2 to 0000000000485fa3
  DW_CFA_restore: r13 (r13)
  DW_CFA_advance_loc: 2 to 0000000000485fa5
  DW_CFA_restore: r12 (r12)
  DW_CFA_advance_loc: 3 to 0000000000485fa8
  DW_CFA_restore: r6 (rbp)
  DW_CFA_advance_loc: 1 to 0000000000485fa9
  DW_CFA_offset: r3 (rbx) at cfa-56
  DW_CFA_offset: r6 (rbp) at cfa-16
  DW_CFA_offset: r12 (r12) at cfa-24
  DW_CFA_offset: r13 (r13) at cfa-32
  DW_CFA_offset: r14 (r14) at cfa-40
  DW_CFA_offset: r15 (r15) at cfa-48
  DW_CFA_nop
  DW_CFA_nop
  DW_CFA_nop
  DW_CFA_nop
  DW_CFA_nop
  DW_CFA_nop
  DW_CFA_nop

000060f0 00000000000000b4 0000604c FDE cie=000000a8 pc=0000000000486630..0000000000487630
  DW_CFA_advance_loc: 1 to 0000000000486631
  DW_CFA_def_cfa_offset: 16
  DW_CFA_advance_loc: 3 to 0000000000486634
  DW_CFA_def_cfa: r6 (rbp) ofs 16
  DW_CFA_offset: r6 (rbp) at cfa-16
  DW_CFA_advance_loc1: 94 to 0000000000486692
  DW_CFA_offset: r3 (rbx) at cfa-56
  DW_CFA_offset: r12 (r12) at cfa-24
  DW_CFA_offset: r13 (r13) at cfa-32
  DW_CFA_offset: r14 (r14) at cfa-40
  DW_CFA_offset: r15 (r15) at cfa-48
  DW_CFA_advance_loc2: 1282 to 0000000000486b94
  DW_CFA_restore: r3 (rbx)
  DW_CFA_advance_loc: 1 to 0000000000486b95
  DW_CFA_restore: r15 (r15)
  DW_CFA_advance_loc: 2 to 0000000000486b97
  DW_CFA_restore: r14 (r14)
  DW_CFA_advance_loc: 2 to 0000000000486b99
  DW_CFA_restore: r13 (r13)
  DW_CFA_advance_loc: 2 to 0000000000486b9b
  DW_CFA_restore: r12 (r12)
  DW_CFA_advance_loc: 3 to 0000000000486b9e
  DW_CFA_restore: r6 (rbp)
  DW_CFA_advance_loc: 1 to 0000000000486b9f
  DW_CFA_offset: r3 (rbx) at cfa-56
  DW_CFA_offset: r6 (rbp) at cfa-16
  DW_CFA_offset: r12 (r12) at cfa-24
  DW_CFA_offset: r13 (r13) at cfa-32
  DW_CFA_offset: r14 (r14) at cfa-40
  DW_CFA_offset: r15 (r15) at cfa-48
  DW_CFA_advance_loc2: 1948 to 000000000048733b
  DW_CFA_restore: r3 (rbx)
  DW_CFA_advance_loc: 1 to 000000000048733c
  DW_CFA_restore: r15 (r15)
  DW_CFA_advance_loc: 2 to 000000000048733e
  DW_CFA_restore: r14 (r14)
  DW_CFA_advance_loc: 2 to 0000000000487340
  DW_CFA_restore: r13 (r13)
  DW_CFA_advance_loc: 2 to 0000000000487342
  DW_CFA_restore: r12 (r12)
  DW_CFA_advance_loc: 3 to 0000000000487345
  DW_CFA_restore: r6 (rbp)
  DW_CFA_advance_loc: 1 to 0000000000487346
  DW_CFA_offset: r3 (rbx) at cfa-56
  DW_CFA_offset: r6 (rbp) at cfa-16
  DW_CFA_offset: r12 (r12) at cfa-24
  DW_CFA_offset: r13 (r13) at cfa-32
  DW_CFA_offset: r14 (r14) at cfa-40
  DW_CFA_offset: r15 (r15) at cfa-48
  DW_CFA_advance_loc1: 96 to 00000000004873a6
  DW_CFA_restore: r3 (rbx)
  DW_CFA_advance_loc: 1 to 00000000004873a7
  DW_CFA_restore: r15 (r15)
  DW_CFA_advance_loc: 2 to 00000000004873a9
  DW_CFA_restore: r14 (r14)
  DW_CFA_advance_loc: 2 to 00000000004873ab
  DW_CFA_restore: r13 (r13)
  DW_CFA_advance_loc: 2 to 00000000004873ad
  DW_CFA_restore: r12 (r12)
  DW_CFA_advance_loc: 3 to 00000000004873b0
  DW_CFA_restore: r6 (rbp)
  DW_CFA_advance_loc: 1 to 00000000004873b1
  DW_CFA_offset: r3 (rbx) at cfa-56
  DW_CFA_offset: r6 (rbp) at cfa-16
  DW_CFA_offset: r12 (r12) at cfa-24
  DW_CFA_offset: r13 (r13) at cfa-32
  DW_CFA_offset: r14 (r14) at cfa-40
  DW_CFA_offset: r15 (r15) at cfa-48
  DW_CFA_advance_loc1: 89 to 000000000048740a
  DW_CFA_restore: r3 (rbx)
  DW_CFA_advance_loc: 1 to 000000000048740b
  DW_CFA_restore: r15 (r15)
  DW_CFA_advance_loc: 2 to 000000000048740d
  DW_CFA_restore: r14 (r14)
  DW_CFA_advance_loc: 2 to 000000000048740f
  DW_CFA_restore: r13 (r13)
  DW_CFA_advance_loc: 2 to 0000000000487411
  DW_CFA_restore: r12 (r12)
  DW_CFA_advance_loc: 3 to 0000000000487414
  DW_CFA_restore: r6 (rbp)
  DW_CFA_advance_loc: 1 to 0000000000487415
  DW_CFA_offset: r3 (rbx) at cfa-56
  DW_CFA_offset: r6 (rbp) at cfa-16
  DW_CFA_offset: r12 (r12) at cfa-24
  DW_CFA_offset: r13 (r13) at cfa-32
  DW_CFA_offset: r14 (r14) at cfa-40
  DW_CFA_offset: r15 (r15) at cfa-48
  DW_CFA_advance_loc2: 416 to 00000000004875b5
  DW_CFA_restore: r3 (rbx)
  DW_CFA_advance_loc: 1 to 00000000004875b6
  DW_CFA_restore: r15 (r15)
  DW_CFA_advance_loc: 2 to 00000000004875b8
  DW_CFA_restore: r14 (r14)
  DW_CFA_advance_loc: 2 to 00000000004875ba
  DW_CFA_restore: r13 (r13)
  DW_CFA_advance_loc: 2 to 00000000004875bc
  DW_CFA_restore: r12 (r12)
  DW_CFA_advance_loc: 3 to 00000000004875bf
  DW_CFA_restore: r6 (rbp)
  DW_CFA_advance_loc: 1 to 00000000004875c0
  DW_CFA_offset: r3 (rbx) at cfa-56
  DW_CFA_offset: r6 (rbp) at cfa-16
  DW_CFA_offset: r12 (r12) at cfa-24
  DW_CFA_offset: r13 (r13) at cfa-32
  DW_CFA_offset: r14 (r14) at cfa-40
  DW_CFA_offset: r15 (r15) at cfa-48
  DW_CFA_nop
  DW_CFA_nop
  DW_CFA_nop
  DW_CFA_nop
  DW_CFA_nop
  DW_CFA_nop

000061a8 00000000000002d4 00006104 FDE cie=000000a8 pc=0000000000487630..0000000000488700
  DW_CFA_advance_loc: 1 to 0000000000487631
  DW_CFA_def_cfa_offset: 16
  DW_CFA_advance_loc: 3 to 0000000000487634
  DW_CFA_def_cfa: r6 (rbp) ofs 16
  DW_CFA_offset: r6 (rbp) at cfa-16
  DW_CFA_advance_loc1: 98 to 0000000000487696
  DW_CFA_offset: r3 (rbx) at cfa-56
  DW_CFA_offset: r12 (r12) at cfa-24
  DW_CFA_offset: r13 (r13) at cfa-32
  DW_CFA_offset: r14 (r14) at cfa-40
  DW_CFA_offset: r15 (r15) at cfa-48
  DW_CFA_advance_loc2: 1569 to 0000000000487cb7
  DW_CFA_restore: r3 (rbx)
  DW_CFA_advance_loc: 1 to 0000000000487cb8
  DW_CFA_restore: r15 (r15)
  DW_CFA_advance_loc: 2 to 0000000000487cba
  DW_CFA_restore: r14 (r14)
  DW_CFA_advance_loc: 2 to 0000000000487cbc
  DW_CFA_restore: r13 (r13)
  DW_CFA_advance_loc: 2 to 0000000000487cbe
  DW_CFA_restore: r12 (r12)
  DW_CFA_advance_loc: 3 to 0000000000487cc1
  DW_CFA_restore: r6 (rbp)
  DW_CFA_advance_loc: 1 to 0000000000487cc2
  DW_CFA_offset: r3 (rbx) at cfa-56
  DW_CFA_offset: r6 (rbp) at cfa-16
  DW_CFA_offset: r12 (r12) at cfa-24
  DW_CFA_offset: r13 (r13) at cfa-32
  DW_CFA_offset: r14 (r14) at cfa-40
  DW_CFA_offset: r15 (r15) at cfa-48
  DW_CFA_advance_loc1: 94 to 0000000000487d20
  DW_CFA_restore: r3 (rbx)
  DW_CFA_advance_loc: 1 to 0000000000487d21
  DW_CFA_restore: r15 (r15)
  DW_CFA_advance_loc: 2 to 0000000000487d23
  DW_CFA_restore: r14 (r14)
  DW_CFA_advance_loc: 2 to 0000000000487d25
  DW_CFA_restore: r13 (r13)
  DW_CFA_advance_loc: 2 to 0000000000487d27
  DW_CFA_restore: r12 (r12)
  DW_CFA_advance_loc: 3 to 0000000000487d2a
  DW_CFA_restore: r6 (rbp)
  DW_CFA_advance_loc: 1 to 0000000000487d2b
  DW_CFA_offset: r3 (rbx) at cfa-56
  DW_CFA_offset: r6 (rbp) at cfa-16
  DW_CFA_offset: r12 (r12) at cfa-24
  DW_CFA_offset: r13 (r13) at cfa-32
  DW_CFA_offset: r14 (r14) at cfa-40
  DW_CFA_offset: r15 (r15) at cfa-48
  DW_CFA_advance_loc: 33 to 0000000000487d4c
  DW_CFA_restore: r3 (rbx)
  DW_CFA_advance_loc: 1 to 0000000000487d4d
  DW_CFA_restore: r15 (r15)
  DW_CFA_advance_loc: 2 to 0000000000487d4f
  DW_CFA_restore: r14 (r14)
  DW_CFA_advance_loc: 2 to 0000000000487d51
  DW_CFA_restore: r13 (r13)
  DW_CFA_advance_loc: 2 to 0000000000487d53
  DW_CFA_restore: r12 (r12)
  DW_CFA_advance_loc: 3 to 0000000000487d56
  DW_CFA_restore: r6 (rbp)
  DW_CFA_advance_loc: 1 to 0000000000487d57
  DW_CFA_offset: r3 (rbx) at cfa-56
  DW_CFA_offset: r6 (rbp) at cfa-16
  DW_CFA_offset: r12 (r12) at cfa-24
  DW_CFA_offset: r13 (r13) at cfa-32
  DW_CFA_offset: r14 (r14) at cfa-40
  DW_CFA_offset: r15 (r15) at cfa-48
  DW_CFA_advance_loc: 20 to 0000000000487d6b
  DW_CFA_restore: r3 (rbx)
  DW_CFA_advance_loc: 1 to 0000000000487d6c
  DW_CFA_restore: r15 (r15)
  DW_CFA_advance_loc: 2 to 0000000000487d6e
  DW_CFA_restore: r14 (r14)
  DW_CFA_advance_loc: 2 to 0000000000487d70
  DW_CFA_restore: r13 (r13)
  DW_CFA_advance_loc: 2 to 0000000000487d72
  DW_CFA_restore: r12 (r12)
  DW_CFA_advance_loc: 3 to 0000000000487d75
  DW_CFA_restore: r6 (rbp)
  DW_CFA_advance_loc: 1 to 0000000000487d76
  DW_CFA_offset: r3 (rbx) at cfa-56
  DW_CFA_offset: r6 (rbp) at cfa-16
  DW_CFA_offset: r12 (r12) at cfa-24
  DW_CFA_offset: r13 (r13) at cfa-32
  DW_CFA_offset: r14 (r14) at cfa-40
  DW_CFA_offset: r15 (r15) at cfa-48
  DW_CFA_advance_loc: 32 to 0000000000487d96
  DW_CFA_restore: r3 (rbx)
  DW_CFA_advance_loc: 1 to 0000000000487d97
  DW_CFA_restore: r15 (r15)
  DW_CFA_advance_loc: 2 to 0000000000487d99
  DW_CFA_restore: r14 (r14)
  DW_CFA_advance_loc: 2 to 0000000000487d9b
  DW_CFA_restore: r13 (r13)
  DW_CFA_advance_loc: 2 to 0000000000487d9d
  DW_CFA_restore: r12 (r12)
  DW_CFA_advance_loc: 3 to 0000000000487da0
  DW_CFA_restore: r6 (rbp)
  DW_CFA_advance_loc: 1 to 0000000000487da1
  DW_CFA_offset: r3 (rbx) at cfa-56
  DW_CFA_offset: r6 (rbp) at cfa-16
  DW_CFA_offset: r12 (r12) at cfa-24
  DW_CFA_offset: r13 (r13) at cfa-32
  DW_CFA_offset: r14 (r14) at cfa-40
  DW_CFA_offset: r15 (r15) at cfa-48
  DW_CFA_advance_loc: 15 to 0000000000487db0
  DW_CFA_restore: r3 (rbx)
  DW_CFA_advance_loc: 1 to 0000000000487db1
  DW_CFA_restore: r15 (r15)
  DW_CFA_advance_loc: 2 to 0000000000487db3
  DW_CFA_restore: r14 (r14)
  DW_CFA_advance_loc: 2 to 0000000000487db5
  DW_CFA_restore: r13 (r13)
  DW_CFA_advance_loc: 2 to 0000000000487db7
  DW_CFA_restore: r12 (r12)
  DW_CFA_advance_loc: 3 to 0000000000487dba
  DW_CFA_restore: r6 (rbp)
  DW_CFA_advance_loc: 1 to 0000000000487dbb
  DW_CFA_offset: r3 (rbx) at cfa-56
  DW_CFA_offset: r6 (rbp) at cfa-16
  DW_CFA_offset: r12 (r12) at cfa-24
  DW_CFA_offset: r13 (r13) at cfa-32
  DW_CFA_offset: r14 (r14) at cfa-40
  DW_CFA_offset: r15 (r15) at cfa-48
  DW_CFA_advance_loc1: 77 to 0000000000487e08
  DW_CFA_restore: r3 (rbx)
  DW_CFA_advance_loc: 1 to 0000000000487e09
  DW_CFA_restore: r15 (r15)
  DW_CFA_advance_loc: 2 to 0000000000487e0b
  DW_CFA_restore: r14 (r14)
  DW_CFA_advance_loc: 2 to 0000000000487e0d
  DW_CFA_restore: r13 (r13)
  DW_CFA_advance_loc: 2 to 0000000000487e0f
  DW_CFA_restore: r12 (r12)
  DW_CFA_advance_loc: 3 to 0000000000487e12
  DW_CFA_restore: r6 (rbp)
  DW_CFA_advance_loc: 1 to 0000000000487e13
  DW_CFA_offset: r3 (rbx) at cfa-56
  DW_CFA_offset: r6 (rbp) at cfa-16
  DW_CFA_offset: r12 (r12) at cfa-24
  DW_CFA_offset: r13 (r13) at cfa-32
  DW_CFA_offset: r14 (r14) at cfa-40
  DW_CFA_offset: r15 (r15) at cfa-48
  DW_CFA_advance_loc: 18 to 0000000000487e25
  DW_CFA_restore: r3 (rbx)
  DW_CFA_advance_loc: 1 to 0000000000487e26
  DW_CFA_restore: r15 (r15)
  DW_CFA_advance_loc: 2 to 0000000000487e28
  DW_CFA_restore: r14 (r14)
  DW_CFA_advance_loc: 2 to 0000000000487e2a
  DW_CFA_restore: r13 (r13)
  DW_CFA_advance_loc: 2 to 0000000000487e2c
  DW_CFA_restore: r12 (r12)
  DW_CFA_advance_loc: 3 to 0000000000487e2f
  DW_CFA_restore: r6 (rbp)
  DW_CFA_advance_loc: 1 to 0000000000487e30
  DW_CFA_offset: r3 (rbx) at cfa-56
  DW_CFA_offset: r6 (rbp) at cfa-16
  DW_CFA_offset: r12 (r12) at cfa-24
  DW_CFA_offset: r13 (r13) at cfa-32
  DW_CFA_offset: r14 (r14) at cfa-40
  DW_CFA_offset: r15 (r15) at cfa-48
  DW_CFA_advance_loc1: 161 to 0000000000487ed1
  DW_CFA_restore: r3 (rbx)
  DW_CFA_advance_loc: 1 to 0000000000487ed2
  DW_CFA_restore: r15 (r15)
  DW_CFA_advance_loc: 2 to 0000000000487ed4
  DW_CFA_restore: r14 (r14)
  DW_CFA_advance_loc: 2 to 0000000000487ed6
  DW_CFA_restore: r13 (r13)
  DW_CFA_advance_loc: 2 to 0000000000487ed8
  DW_CFA_restore: r12 (r12)
  DW_CFA_advance_loc: 3 to 0000000000487edb
  DW_CFA_restore: r6 (rbp)
  DW_CFA_advance_loc: 1 to 0000000000487edc
  DW_CFA_offset: r3 (rbx) at cfa-56
  DW_CFA_offset: r6 (rbp) at cfa-16
  DW_CFA_offset: r12 (r12) at cfa-24
  DW_CFA_offset: r13 (r13) at cfa-32
  DW_CFA_offset: r14 (r14) at cfa-40
  DW_CFA_offset: r15 (r15) at cfa-48
  DW_CFA_advance_loc1: 165 to 0000000000487f81
  DW_CFA_restore: r3 (rbx)
  DW_CFA_advance_loc: 1 to 0000000000487f82
  DW_CFA_restore: r15 (r15)
  DW_CFA_advance_loc: 2 to 0000000000487f84
  DW_CFA_restore: r14 (r14)
  DW_CFA_advance_loc: 2 to 0000000000487f86
  DW_CFA_restore: r13 (r13)
  DW_CFA_advance_loc: 2 to 0000000000487f88
  DW_CFA_restore: r12 (r12)
  DW_CFA_advance_loc: 3 to 0000000000487f8b
  DW_CFA_restore: r6 (rbp)
  DW_CFA_advance_loc: 1 to 0000000000487f8c
  DW_CFA_offset: r3 (rbx) at cfa-56
  DW_CFA_offset: r6 (rbp) at cfa-16
  DW_CFA_offset: r12 (r12) at cfa-24
  DW_CFA_offset: r13 (r13) at cfa-32
  DW_CFA_offset: r14 (r14) at cfa-40
  DW_CFA_offset: r15 (r15) at cfa-48
  DW_CFA_advance_loc1: 200 to 0000000000488054
  DW_CFA_restore: r3 (rbx)
  DW_CFA_advance_loc: 1 to 0000000000488055
  DW_CFA_restore: r15 (r15)
  DW_CFA_advance_loc: 2 to 0000000000488057
  DW_CFA_restore: r14 (r14)
  DW_CFA_advance_loc: 2 to 0000000000488059
  DW_CFA_restore: r13 (r13)
  DW_CFA_advance_loc: 2 to 000000000048805b
  DW_CFA_restore: r12 (r12)
  DW_CFA_advance_loc: 3 to 000000000048805e
  DW_CFA_restore: r6 (rbp)
  DW_CFA_advance_loc: 1 to 000000000048805f
  DW_CFA_offset: r3 (rbx) at cfa-56
  DW_CFA_offset: r6 (rbp) at cfa-16
  DW_CFA_offset: r12 (r12) at cfa-24
  DW_CFA_offset: r13 (r13) at cfa-32
  DW_CFA_offset: r14 (r14) at cfa-40
  DW_CFA_offset: r15 (r15) at cfa-48
  DW_CFA_advance_loc1: 203 to 000000000048812a
  DW_CFA_restore: r3 (rbx)
  DW_CFA_advance_loc: 1 to 000000000048812b
  DW_CFA_restore: r15 (r15)
  DW_CFA_advance_loc: 2 to 000000000048812d
  DW_CFA_restore: r14 (r14)
  DW_CFA_advance_loc: 2 to 000000000048812f
  DW_CFA_restore: r13 (r13)
  DW_CFA_advance_loc: 2 to 0000000000488131
  DW_CFA_restore: r12 (r12)
  DW_CFA_advance_loc: 3 to 0000000000488134
  DW_CFA_restore: r6 (rbp)
  DW_CFA_advance_loc: 1 to 0000000000488135
  DW_CFA_offset: r3 (rbx) at cfa-56
  DW_CFA_offset: r6 (rbp) at cfa-16
  DW_CFA_offset: r12 (r12) at cfa-24
  DW_CFA_offset: r13 (r13) at cfa-32
  DW_CFA_offset: r14 (r14) at cfa-40
  DW_CFA_offset: r15 (r15) at cfa-48
  DW_CFA_advance_loc1: 165 to 00000000004881da
  DW_CFA_restore: r3 (rbx)
  DW_CFA_advance_loc: 1 to 00000000004881db
  DW_CFA_restore: r15 (r15)
  DW_CFA_advance_loc: 2 to 00000000004881dd
  DW_CFA_restore: r14 (r14)
  DW_CFA_advance_loc: 2 to 00000000004881df
  DW_CFA_restore: r13 (r13)
  DW_CFA_advance_loc: 2 to 00000000004881e1
  DW_CFA_restore: r12 (r12)
  DW_CFA_advance_loc: 3 to 00000000004881e4
  DW_CFA_restore: r6 (rbp)
  DW_CFA_advance_loc: 1 to 00000000004881e5
  DW_CFA_offset: r3 (rbx) at cfa-56
  DW_CFA_offset: r6 (rbp) at cfa-16
  DW_CFA_offset: r12 (r12) at cfa-24
  DW_CFA_offset: r13 (r13) at cfa-32
  DW_CFA_offset: r14 (r14) at cfa-40
  DW_CFA_offset: r15 (r15) at cfa-48
  DW_CFA_advance_loc1: 210 to 00000000004882b7
  DW_CFA_restore: r3 (rbx)
  DW_CFA_advance_loc: 1 to 00000000004882b8
  DW_CFA_restore: r15 (r15)
  DW_CFA_advance_loc: 2 to 00000000004882ba
  DW_CFA_restore: r14 (r14)
  DW_CFA_advance_loc: 2 to 00000000004882bc
  DW_CFA_restore: r13 (r13)
  DW_CFA_advance_loc: 2 to 00000000004882be
  DW_CFA_restore: r12 (r12)
  DW_CFA_advance_loc: 3 to 00000000004882c1
  DW_CFA_restore: r6 (rbp)
  DW_CFA_advance_loc: 1 to 00000000004882c2
  DW_CFA_offset: r3 (rbx) at cfa-56
  DW_CFA_offset: r6 (rbp) at cfa-16
  DW_CFA_offset: r12 (r12) at cfa-24
  DW_CFA_offset: r13 (r13) at cfa-32
  DW_CFA_offset: r14 (r14) at cfa-40
  DW_CFA_offset: r15 (r15) at cfa-48
  DW_CFA_advance_loc1: 137 to 000000000048834b
  DW_CFA_restore: r3 (rbx)
  DW_CFA_advance_loc: 1 to 000000000048834c
  DW_CFA_restore: r15 (r15)
  DW_CFA_advance_loc: 2 to 000000000048834e
  DW_CFA_restore: r14 (r14)
  DW_CFA_advance_loc: 2 to 0000000000488350
  DW_CFA_restore: r13 (r13)
  DW_CFA_advance_loc: 2 to 0000000000488352
  DW_CFA_restore: r12 (r12)
  DW_CFA_advance_loc: 3 to 0000000000488355
  DW_CFA_restore: r6 (rbp)
  DW_CFA_advance_loc: 1 to 0000000000488356
  DW_CFA_offset: r3 (rbx) at cfa-56
  DW_CFA_offset: r6 (rbp) at cfa-16
  DW_CFA_offset: r12 (r12) at cfa-24
  DW_CFA_offset: r13 (r13) at cfa-32
  DW_CFA_offset: r14 (r14) at cfa-40
  DW_CFA_offset: r15 (r15) at cfa-48
  DW_CFA_advance_loc1: 72 to 000000000048839e
  DW_CFA_restore: r3 (rbx)
  DW_CFA_advance_loc: 1 to 000000000048839f
  DW_CFA_restore: r15 (r15)
  DW_CFA_advance_loc: 2 to 00000000004883a1
  DW_CFA_restore: r14 (r14)
  DW_CFA_advance_loc: 2 to 00000000004883a3
  DW_CFA_restore: r13 (r13)
  DW_CFA_advance_loc: 2 to 00000000004883a5
  DW_CFA_restore: r12 (r12)
  DW_CFA_advance_loc: 3 to 00000000004883a8
  DW_CFA_restore: r6 (rbp)
  DW_CFA_advance_loc: 1 to 00000000004883a9
  DW_CFA_offset: r3 (rbx) at cfa-56
  DW_CFA_offset: r6 (rbp) at cfa-16
  DW_CFA_offset: r12 (r12) at cfa-24
  DW_CFA_offset: r13 (r13) at cfa-32
  DW_CFA_offset: r14 (r14) at cfa-40
  DW_CFA_offset: r15 (r15) at cfa-48
  DW_CFA_advance_loc: 61 to 00000000004883e6
  DW_CFA_restore: r3 (rbx)
  DW_CFA_advance_loc: 1 to 00000000004883e7
  DW_CFA_restore: r15 (r15)
  DW_CFA_advance_loc: 2 to 00000000004883e9
  DW_CFA_restore: r14 (r14)
  DW_CFA_advance_loc: 2 to 00000000004883eb
  DW_CFA_restore: r13 (r13)
  DW_CFA_advance_loc: 2 to 00000000004883ed
  DW_CFA_restore: r12 (r12)
  DW_CFA_advance_loc: 3 to 00000000004883f0
  DW_CFA_restore: r6 (rbp)
  DW_CFA_advance_loc: 1 to 00000000004883f1
  DW_CFA_offset: r3 (rbx) at cfa-56
  DW_CFA_offset: r6 (rbp) at cfa-16
  DW_CFA_offset: r12 (r12) at cfa-24
  DW_CFA_offset: r13 (r13) at cfa-32
  DW_CFA_offset: r14 (r14) at cfa-40
  DW_CFA_offset: r15 (r15) at cfa-48
  DW_CFA_advance_loc: 35 to 0000000000488414
  DW_CFA_restore: r3 (rbx)
  DW_CFA_advance_loc: 1 to 0000000000488415
  DW_CFA_restore: r15 (r15)
  DW_CFA_advance_loc: 2 to 0000000000488417
  DW_CFA_restore: r14 (r14)
  DW_CFA_advance_loc: 2 to 0000000000488419
  DW_CFA_restore: r13 (r13)
  DW_CFA_advance_loc: 2 to 000000000048841b
  DW_CFA_restore: r12 (r12)
  DW_CFA_advance_loc: 3 to 000000000048841e
  DW_CFA_restore: r6 (rbp)
  DW_CFA_advance_loc: 1 to 000000000048841f
  DW_CFA_offset: r3 (rbx) at cfa-56
  DW_CFA_offset: r6 (rbp) at cfa-16
  DW_CFA_offset: r12 (r12) at cfa-24
  DW_CFA_offset: r13 (r13) at cfa-32
  DW_CFA_offset: r14 (r14) at cfa-40
  DW_CFA_offset: r15 (r15) at cfa-48
  DW_CFA_advance_loc: 21 to 0000000000488434
  DW_CFA_restore: r3 (rbx)
  DW_CFA_advance_loc: 1 to 0000000000488435
  DW_CFA_restore: r15 (r15)
  DW_CFA_advance_loc: 2 to 0000000000488437
  DW_CFA_restore: r14 (r14)
  DW_CFA_advance_loc: 2 to 0000000000488439
  DW_CFA_restore: r13 (r13)
  DW_CFA_advance_loc: 2 to 000000000048843b
  DW_CFA_restore: r12 (r12)
  DW_CFA_advance_loc: 3 to 000000000048843e
  DW_CFA_restore: r6 (rbp)
  DW_CFA_advance_loc: 1 to 000000000048843f
  DW_CFA_offset: r3 (rbx) at cfa-56
  DW_CFA_offset: r6 (rbp) at cfa-16
  DW_CFA_offset: r12 (r12) at cfa-24
  DW_CFA_offset: r13 (r13) at cfa-32
  DW_CFA_offset: r14 (r14) at cfa-40
  DW_CFA_offset: r15 (r15) at cfa-48
  DW_CFA_advance_loc: 35 to 0000000000488462
  DW_CFA_restore: r3 (rbx)
  DW_CFA_advance_loc: 1 to 0000000000488463
  DW_CFA_restore: r15 (r15)
  DW_CFA_advance_loc: 2 to 0000000000488465
  DW_CFA_restore: r14 (r14)
  DW_CFA_advance_loc: 2 to 0000000000488467
  DW_CFA_restore: r13 (r13)
  DW_CFA_advance_loc: 2 to 0000000000488469
  DW_CFA_restore: r12 (r12)
  DW_CFA_advance_loc: 3 to 000000000048846c
  DW_CFA_restore: r6 (rbp)
  DW_CFA_advance_loc: 1 to 000000000048846d
  DW_CFA_offset: r3 (rbx) at cfa-56
  DW_CFA_offset: r6 (rbp) at cfa-16
  DW_CFA_offset: r12 (r12) at cfa-24
  DW_CFA_offset: r13 (r13) at cfa-32
  DW_CFA_offset: r14 (r14) at cfa-40
  DW_CFA_offset: r15 (r15) at cfa-48
  DW_CFA_advance_loc: 21 to 0000000000488482
  DW_CFA_restore: r3 (rbx)
  DW_CFA_advance_loc: 1 to 0000000000488483
  DW_CFA_restore: r15 (r15)
  DW_CFA_advance_loc: 2 to 0000000000488485
  DW_CFA_restore: r14 (r14)
  DW_CFA_advance_loc: 2 to 0000000000488487
  DW_CFA_restore: r13 (r13)
  DW_CFA_advance_loc: 2 to 0000000000488489
  DW_CFA_restore: r12 (r12)
  DW_CFA_advance_loc: 3 to 000000000048848c
  DW_CFA_restore: r6 (rbp)
  DW_CFA_advance_loc: 1 to 000000000048848d
  DW_CFA_offset: r3 (rbx) at cfa-56
  DW_CFA_offset: r6 (rbp) at cfa-16
  DW_CFA_offset: r12 (r12) at cfa-24
  DW_CFA_offset: r13 (r13) at cfa-32
  DW_CFA_offset: r14 (r14) at cfa-40
  DW_CFA_offset: r15 (r15) at cfa-48
  DW_CFA_advance_loc: 38 to 00000000004884b3
  DW_CFA_restore: r3 (rbx)
  DW_CFA_advance_loc: 1 to 00000000004884b4
  DW_CFA_restore: r15 (r15)
  DW_CFA_advance_loc: 2 to 00000000004884b6
  DW_CFA_restore: r14 (r14)
  DW_CFA_advance_loc: 2 to 00000000004884b8
  DW_CFA_restore: r13 (r13)
  DW_CFA_advance_loc: 2 to 00000000004884ba
  DW_CFA_restore: r12 (r12)
  DW_CFA_advance_loc: 3 to 00000000004884bd
  DW_CFA_restore: r6 (rbp)
  DW_CFA_advance_loc: 1 to 00000000004884be
  DW_CFA_offset: r3 (rbx) at cfa-56
  DW_CFA_offset: r6 (rbp) at cfa-16
  DW_CFA_offset: r12 (r12) at cfa-24
  DW_CFA_offset: r13 (r13) at cfa-32
  DW_CFA_offset: r14 (r14) at cfa-40
  DW_CFA_offset: r15 (r15) at cfa-48
  DW_CFA_advance_loc: 24 to 00000000004884d6
  DW_CFA_restore: r3 (rbx)
  DW_CFA_advance_loc: 1 to 00000000004884d7
  DW_CFA_restore: r15 (r15)
  DW_CFA_advance_loc: 2 to 00000000004884d9
  DW_CFA_restore: r14 (r14)
  DW_CFA_advance_loc: 2 to 00000000004884db
  DW_CFA_restore: r13 (r13)
  DW_CFA_advance_loc: 2 to 00000000004884dd
  DW_CFA_restore: r12 (r12)
  DW_CFA_advance_loc: 3 to 00000000004884e0
  DW_CFA_restore: r6 (rbp)
  DW_CFA_advance_loc: 1 to 00000000004884e1
  DW_CFA_offset: r3 (rbx) at cfa-56
  DW_CFA_offset: r6 (rbp) at cfa-16
  DW_CFA_offset: r12 (r12) at cfa-24
  DW_CFA_offset: r13 (r13) at cfa-32
  DW_CFA_offset: r14 (r14) at cfa-40
  DW_CFA_offset: r15 (r15) at cfa-48
  DW_CFA_advance_loc2: 282 to 00000000004885fb
  DW_CFA_restore: r3 (rbx)
  DW_CFA_advance_loc: 1 to 00000000004885fc
  DW_CFA_restore: r15 (r15)
  DW_CFA_advance_loc: 2 to 00000000004885fe
  DW_CFA_restore: r14 (r14)
  DW_CFA_advance_loc: 2 to 0000000000488600
  DW_CFA_restore: r13 (r13)
  DW_CFA_advance_loc: 2 to 0000000000488602
  DW_CFA_restore: r12 (r12)
  DW_CFA_advance_loc: 3 to 0000000000488605
  DW_CFA_restore: r6 (rbp)
  DW_CFA_advance_loc: 1 to 0000000000488606
  DW_CFA_offset: r3 (rbx) at cfa-56
  DW_CFA_offset: r6 (rbp) at cfa-16
  DW_CFA_offset: r12 (r12) at cfa-24
  DW_CFA_offset: r13 (r13) at cfa-32
  DW_CFA_offset: r14 (r14) at cfa-40
  DW_CFA_offset: r15 (r15) at cfa-48
  DW_CFA_advance_loc1: 165 to 00000000004886ab
  DW_CFA_restore: r3 (rbx)
  DW_CFA_advance_loc: 1 to 00000000004886ac
  DW_CFA_restore: r15 (r15)
  DW_CFA_advance_loc: 2 to 00000000004886ae
  DW_CFA_restore: r14 (r14)
  DW_CFA_advance_loc: 2 to 00000000004886b0
  DW_CFA_restore: r13 (r13)
  DW_CFA_advance_loc: 2 to 00000000004886b2
  DW_CFA_restore: r12 (r12)
  DW_CFA_advance_loc: 3 to 00000000004886b5
  DW_CFA_restore: r6 (rbp)
  DW_CFA_advance_loc: 1 to 00000000004886b6
  DW_CFA_offset: r3 (rbx) at cfa-56
  DW_CFA_offset: r6 (rbp) at cfa-16
  DW_CFA_offset: r12 (r12) at cfa-24
  DW_CFA_offset: r13 (r13) at cfa-32
  DW_CFA_offset: r14 (r14) at cfa-40
  DW_CFA_offset: r15 (r15) at cfa-48
  DW_CFA_advance_loc: 25 to 00000000004886cf
  DW_CFA_restore: r3 (rbx)
  DW_CFA_advance_loc: 1 to 00000000004886d0
  DW_CFA_restore: r15 (r15)
  DW_CFA_advance_loc: 2 to 00000000004886d2
  DW_CFA_restore: r14 (r14)
  DW_CFA_advance_loc: 2 to 00000000004886d4
  DW_CFA_restore: r13 (r13)
  DW_CFA_advance_loc: 2 to 00000000004886d6
  DW_CFA_restore: r12 (r12)
  DW_CFA_advance_loc: 3 to 00000000004886d9
  DW_CFA_restore: r6 (rbp)
  DW_CFA_advance_loc: 1 to 00000000004886da
  DW_CFA_offset: r3 (rbx) at cfa-56
  DW_CFA_offset: r6 (rbp) at cfa-16
  DW_CFA_offset: r12 (r12) at cfa-24
  DW_CFA_offset: r13 (r13) at cfa-32
  DW_CFA_offset: r14 (r14) at cfa-40
  DW_CFA_offset: r15 (r15) at cfa-48
  DW_CFA_advance_loc: 17 to 00000000004886eb
  DW_CFA_restore: r3 (rbx)
  DW_CFA_advance_loc: 1 to 00000000004886ec
  DW_CFA_restore: r15 (r15)
  DW_CFA_advance_loc: 2 to 00000000004886ee
  DW_CFA_restore: r14 (r14)
  DW_CFA_advance_loc: 2 to 00000000004886f0
  DW_CFA_restore: r13 (r13)
  DW_CFA_advance_loc: 2 to 00000000004886f2
  DW_CFA_restore: r12 (r12)
  DW_CFA_advance_loc: 3 to 00000000004886f5
  DW_CFA_restore: r6 (rbp)
  DW_CFA_nop
  DW_CFA_nop
  DW_CFA_nop
  DW_CFA_nop
  DW_CFA_nop
  DW_CFA_nop

00006480 0000000000000034 000063dc FDE cie=000000a8 pc=0000000000488700..0000000000488790
  DW_CFA_advance_loc: 1 to 0000000000488701
  DW_CFA_def_cfa_offset: 16
  DW_CFA_advance_loc: 3 to 0000000000488704
  DW_CFA_def_cfa: r6 (rbp) ofs 16
  DW_CFA_offset: r6 (rbp) at cfa-16
  DW_CFA_advance_loc: 3 to 0000000000488707
  DW_CFA_offset: r3 (rbx) at cfa-32
  DW_CFA_offset: r15 (r15) at cfa-24
  DW_CFA_advance_loc1: 92 to 0000000000488763
  DW_CFA_restore: r3 (rbx)
  DW_CFA_advance_loc: 1 to 0000000000488764
  DW_CFA_restore: r15 (r15)
  DW_CFA_advance_loc: 3 to 0000000000488767
  DW_CFA_restore: r6 (rbp)
  DW_CFA_advance_loc: 1 to 0000000000488768
  DW_CFA_offset: r3 (rbx) at cfa-32
  DW_CFA_offset: r6 (rbp) at cfa-16
  DW_CFA_offset: r15 (r15) at cfa-24
  DW_CFA_nop
  DW_CFA_nop
  DW_CFA_nop
  DW_CFA_nop

000064b8 0000000000000044 00006414 FDE cie=000000a8 pc=0000000000488790..0000000000488bf0
  DW_CFA_advance_loc: 1 to 0000000000488791
  DW_CFA_def_cfa_offset: 16
  DW_CFA_advance_loc: 3 to 0000000000488794
  DW_CFA_def_cfa: r6 (rbp) ofs 16
  DW_CFA_offset: r6 (rbp) at cfa-16
  DW_CFA_advance_loc: 16 to 00000000004887a4
  DW_CFA_offset: r3 (rbx) at cfa-56
  DW_CFA_offset: r12 (r12) at cfa-24
  DW_CFA_offset: r13 (r13) at cfa-32
  DW_CFA_offset: r14 (r14) at cfa-40
  DW_CFA_offset: r15 (r15) at cfa-48
  DW_CFA_advance_loc2: 912 to 0000000000488b34
  DW_CFA_restore: r3 (rbx)
  DW_CFA_advance_loc: 1 to 0000000000488b35
  DW_CFA_restore: r15 (r15)
  DW_CFA_advance_loc: 2 to 0000000000488b37
  DW_CFA_restore: r14 (r14)
  DW_CFA_advance_loc: 2 to 0000000000488b39
  DW_CFA_restore: r13 (r13)
  DW_CFA_advance_loc: 2 to 0000000000488b3b
  DW_CFA_restore: r12 (r12)
  DW_CFA_advance_loc: 3 to 0000000000488b3e
  DW_CFA_restore: r6 (rbp)
  DW_CFA_advance_loc: 1 to 0000000000488b3f
  DW_CFA_offset: r3 (rbx) at cfa-56
  DW_CFA_offset: r6 (rbp) at cfa-16
  DW_CFA_offset: r12 (r12) at cfa-24
  DW_CFA_offset: r13 (r13) at cfa-32
  DW_CFA_offset: r14 (r14) at cfa-40
  DW_CFA_offset: r15 (r15) at cfa-48
  DW_CFA_nop

00006500 0000000000000024 0000645c FDE cie=000000a8 pc=0000000000488bf0..0000000000488c10
  DW_CFA_advance_loc: 1 to 0000000000488bf1
  DW_CFA_def_cfa_offset: 16
  DW_CFA_advance_loc: 3 to 0000000000488bf4
  DW_CFA_def_cfa: r6 (rbp) ofs 16
  DW_CFA_offset: r6 (rbp) at cfa-16
  DW_CFA_advance_loc: 14 to 0000000000488c02
  DW_CFA_restore: r6 (rbp)
  DW_CFA_nop
  DW_CFA_nop
  DW_CFA_nop
  DW_CFA_nop
  DW_CFA_nop

00006528 0000000000000024 00006484 FDE cie=000000a8 pc=0000000000488c10..0000000000488e00
  DW_CFA_advance_loc: 1 to 0000000000488c11
  DW_CFA_def_cfa_offset: 16
  DW_CFA_advance_loc: 3 to 0000000000488c14
  DW_CFA_def_cfa: r6 (rbp) ofs 16
  DW_CFA_offset: r6 (rbp) at cfa-16
  DW_CFA_advance_loc2: 486 to 0000000000488dfa
  DW_CFA_restore: r6 (rbp)
  DW_CFA_nop
  DW_CFA_nop
  DW_CFA_nop

00006550 000000000000003c 000064ac FDE cie=000000a8 pc=0000000000488e00..0000000000488f10
  DW_CFA_advance_loc: 1 to 0000000000488e01
  DW_CFA_def_cfa_offset: 16
  DW_CFA_advance_loc: 3 to 0000000000488e04
  DW_CFA_def_cfa: r6 (rbp) ofs 16
  DW_CFA_offset: r6 (rbp) at cfa-16
  DW_CFA_advance_loc: 22 to 0000000000488e1a
  DW_CFA_offset: r3 (rbx) at cfa-48
  DW_CFA_offset: r12 (r12) at cfa-24
  DW_CFA_offset: r14 (r14) at cfa-32
  DW_CFA_offset: r15 (r15) at cfa-40
  DW_CFA_advance_loc1: 226 to 0000000000488efc
  DW_CFA_restore: r3 (rbx)
  DW_CFA_advance_loc: 1 to 0000000000488efd
  DW_CFA_restore: r15 (r15)
  DW_CFA_advance_loc: 2 to 0000000000488eff
  DW_CFA_restore: r14 (r14)
  DW_CFA_advance_loc: 2 to 0000000000488f01
  DW_CFA_restore: r12 (r12)
  DW_CFA_advance_loc: 3 to 0000000000488f04
  DW_CFA_restore: r6 (rbp)
  DW_CFA_advance_loc: 1 to 0000000000488f05
  DW_CFA_offset: r3 (rbx) at cfa-48
  DW_CFA_offset: r6 (rbp) at cfa-16
  DW_CFA_offset: r12 (r12) at cfa-24
  DW_CFA_offset: r14 (r14) at cfa-32
  DW_CFA_offset: r15 (r15) at cfa-40

00006590 0000000000000044 000064ec FDE cie=000000a8 pc=0000000000488f10..0000000000489050
  DW_CFA_advance_loc: 1 to 0000000000488f11
  DW_CFA_def_cfa_offset: 16
  DW_CFA_advance_loc: 3 to 0000000000488f14
  DW_CFA_def_cfa: r6 (rbp) ofs 16
  DW_CFA_offset: r6 (rbp) at cfa-16
  DW_CFA_advance_loc: 11 to 0000000000488f1f
  DW_CFA_offset: r12 (r12) at cfa-24
  DW_CFA_offset: r13 (r13) at cfa-32
  DW_CFA_advance_loc1: 199 to 0000000000488fe6
  DW_CFA_restore: r13 (r13)
  DW_CFA_advance_loc: 2 to 0000000000488fe8
  DW_CFA_restore: r12 (r12)
  DW_CFA_advance_loc: 3 to 0000000000488feb
  DW_CFA_restore: r6 (rbp)
  DW_CFA_advance_loc: 1 to 0000000000488fec
  DW_CFA_offset: r6 (rbp) at cfa-16
  DW_CFA_offset: r12 (r12) at cfa-24
  DW_CFA_offset: r13 (r13) at cfa-32
  DW_CFA_advance_loc: 22 to 0000000000489002
  DW_CFA_restore: r13 (r13)
  DW_CFA_advance_loc: 2 to 0000000000489004
  DW_CFA_restore: r12 (r12)
  DW_CFA_advance_loc: 3 to 0000000000489007
  DW_CFA_restore: r6 (rbp)
  DW_CFA_advance_loc: 1 to 0000000000489008
  DW_CFA_offset: r6 (rbp) at cfa-16
  DW_CFA_offset: r12 (r12) at cfa-24
  DW_CFA_offset: r13 (r13) at cfa-32
  DW_CFA_nop
  DW_CFA_nop
  DW_CFA_nop
  DW_CFA_nop
  DW_CFA_nop
  DW_CFA_nop
  DW_CFA_nop

000065d8 00000000000000cc 00006534 FDE cie=000000a8 pc=0000000000489050..000000000048b020
  DW_CFA_advance_loc: 1 to 0000000000489051
  DW_CFA_def_cfa_offset: 16
  DW_CFA_advance_loc: 3 to 0000000000489054
  DW_CFA_def_cfa: r6 (rbp) ofs 16
  DW_CFA_offset: r6 (rbp) at cfa-16
  DW_CFA_advance_loc: 26 to 000000000048906e
  DW_CFA_offset: r3 (rbx) at cfa-56
  DW_CFA_offset: r12 (r12) at cfa-24
  DW_CFA_offset: r13 (r13) at cfa-32
  DW_CFA_offset: r14 (r14) at cfa-40
  DW_CFA_offset: r15 (r15) at cfa-48
  DW_CFA_advance_loc2: 1847 to 00000000004897a5
  DW_CFA_restore: r3 (rbx)
  DW_CFA_advance_loc: 1 to 00000000004897a6
  DW_CFA_restore: r15 (r15)
  DW_CFA_advance_loc: 2 to 00000000004897a8
  DW_CFA_restore: r14 (r14)
  DW_CFA_advance_loc: 2 to 00000000004897aa
  DW_CFA_restore: r13 (r13)
  DW_CFA_advance_loc: 2 to 00000000004897ac
  DW_CFA_restore: r12 (r12)
  DW_CFA_advance_loc: 3 to 00000000004897af
  DW_CFA_restore: r6 (rbp)
  DW_CFA_advance_loc: 1 to 00000000004897b0
  DW_CFA_offset: r3 (rbx) at cfa-56
  DW_CFA_offset: r6 (rbp) at cfa-16
  DW_CFA_offset: r12 (r12) at cfa-24
  DW_CFA_offset: r13 (r13) at cfa-32
  DW_CFA_offset: r14 (r14) at cfa-40
  DW_CFA_offset: r15 (r15) at cfa-48
  DW_CFA_advance_loc2: 552 to 00000000004899d8
  DW_CFA_restore: r3 (rbx)
  DW_CFA_advance_loc: 1 to 00000000004899d9
  DW_CFA_restore: r15 (r15)
  DW_CFA_advance_loc: 2 to 00000000004899db
  DW_CFA_restore: r14 (r14)
  DW_CFA_advance_loc: 2 to 00000000004899dd
  DW_CFA_restore: r13 (r13)
  DW_CFA_advance_loc: 2 to 00000000004899df
  DW_CFA_restore: r12 (r12)
  DW_CFA_advance_loc: 3 to 00000000004899e2
  DW_CFA_restore: r6 (rbp)
  DW_CFA_advance_loc: 1 to 00000000004899e3
  DW_CFA_offset: r3 (rbx) at cfa-56
  DW_CFA_offset: r6 (rbp) at cfa-16
  DW_CFA_offset: r12 (r12) at cfa-24
  DW_CFA_offset: r13 (r13) at cfa-32
  DW_CFA_offset: r14 (r14) at cfa-40
  DW_CFA_offset: r15 (r15) at cfa-48
  DW_CFA_advance_loc2: 1191 to 0000000000489e8a
  DW_CFA_restore: r3 (rbx)
  DW_CFA_advance_loc: 1 to 0000000000489e8b
  DW_CFA_restore: r15 (r15)
  DW_CFA_advance_loc: 2 to 0000000000489e8d
  DW_CFA_restore: r14 (r14)
  DW_CFA_advance_loc: 2 to 0000000000489e8f
  DW_CFA_restore: r13 (r13)
  DW_CFA_advance_loc: 2 to 0000000000489e91
  DW_CFA_restore: r12 (r12)
  DW_CFA_advance_loc: 3 to 0000000000489e94
  DW_CFA_restore: r6 (rbp)
  DW_CFA_advance_loc: 1 to 0000000000489e95
  DW_CFA_offset: r3 (rbx) at cfa-56
  DW_CFA_offset: r6 (rbp) at cfa-16
  DW_CFA_offset: r12 (r12) at cfa-24
  DW_CFA_offset: r13 (r13) at cfa-32
  DW_CFA_offset: r14 (r14) at cfa-40
  DW_CFA_offset: r15 (r15) at cfa-48
  DW_CFA_advance_loc2: 322 to 0000000000489fd7
  DW_CFA_restore: r3 (rbx)
  DW_CFA_advance_loc: 1 to 0000000000489fd8
  DW_CFA_restore: r15 (r15)
  DW_CFA_advance_loc: 2 to 0000000000489fda
  DW_CFA_restore: r14 (r14)
  DW_CFA_advance_loc: 2 to 0000000000489fdc
  DW_CFA_restore: r13 (r13)
  DW_CFA_advance_loc: 2 to 0000000000489fde
  DW_CFA_restore: r12 (r12)
  DW_CFA_advance_loc: 3 to 0000000000489fe1
  DW_CFA_restore: r6 (rbp)
  DW_CFA_advance_loc: 1 to 0000000000489fe2
  DW_CFA_offset: r3 (rbx) at cfa-56
  DW_CFA_offset: r6 (rbp) at cfa-16
  DW_CFA_offset: r12 (r12) at cfa-24
  DW_CFA_offset: r13 (r13) at cfa-32
  DW_CFA_offset: r14 (r14) at cfa-40
  DW_CFA_offset: r15 (r15) at cfa-48
  DW_CFA_advance_loc2: 2588 to 000000000048a9fe
  DW_CFA_restore: r3 (rbx)
  DW_CFA_advance_loc: 1 to 000000000048a9ff
  DW_CFA_restore: r15 (r15)
  DW_CFA_advance_loc: 2 to 000000000048aa01
  DW_CFA_restore: r14 (r14)
  DW_CFA_advance_loc: 2 to 000000000048aa03
  DW_CFA_restore: r13 (r13)
  DW_CFA_advance_loc: 2 to 000000000048aa05
  DW_CFA_restore: r12 (r12)
  DW_CFA_advance_loc: 3 to 000000000048aa08
  DW_CFA_restore: r6 (rbp)
  DW_CFA_advance_loc: 1 to 000000000048aa09
  DW_CFA_offset: r3 (rbx) at cfa-56
  DW_CFA_offset: r6 (rbp) at cfa-16
  DW_CFA_offset: r12 (r12) at cfa-24
  DW_CFA_offset: r13 (r13) at cfa-32
  DW_CFA_offset: r14 (r14) at cfa-40
  DW_CFA_offset: r15 (r15) at cfa-48
  DW_CFA_advance_loc2: 736 to 000000000048ace9
  DW_CFA_restore: r3 (rbx)
  DW_CFA_advance_loc: 1 to 000000000048acea
  DW_CFA_restore: r15 (r15)
  DW_CFA_advance_loc: 2 to 000000000048acec
  DW_CFA_restore: r14 (r14)
  DW_CFA_advance_loc: 2 to 000000000048acee
  DW_CFA_restore: r13 (r13)
  DW_CFA_advance_loc: 2 to 000000000048acf0
  DW_CFA_restore: r12 (r12)
  DW_CFA_advance_loc: 3 to 000000000048acf3
  DW_CFA_restore: r6 (rbp)
  DW_CFA_advance_loc: 1 to 000000000048acf4
  DW_CFA_offset: r3 (rbx) at cfa-56
  DW_CFA_offset: r6 (rbp) at cfa-16
  DW_CFA_offset: r12 (r12) at cfa-24
  DW_CFA_offset: r13 (r13) at cfa-32
  DW_CFA_offset: r14 (r14) at cfa-40
  DW_CFA_offset: r15 (r15) at cfa-48
  DW_CFA_nop
  DW_CFA_nop

000066a8 000000000000087c 00006604 FDE cie=000000a8 pc=000000000048b020..000000000048e510
  DW_CFA_advance_loc: 1 to 000000000048b021
  DW_CFA_def_cfa_offset: 16
  DW_CFA_advance_loc: 3 to 000000000048b024
  DW_CFA_def_cfa: r6 (rbp) ofs 16
  DW_CFA_offset: r6 (rbp) at cfa-16
  DW_CFA_advance_loc: 16 to 000000000048b034
  DW_CFA_offset: r3 (rbx) at cfa-56
  DW_CFA_offset: r12 (r12) at cfa-24
  DW_CFA_offset: r13 (r13) at cfa-32
  DW_CFA_offset: r14 (r14) at cfa-40
  DW_CFA_offset: r15 (r15) at cfa-48
  DW_CFA_advance_loc2: 296 to 000000000048b15c
  DW_CFA_restore: r3 (rbx)
  DW_CFA_advance_loc: 1 to 000000000048b15d
  DW_CFA_restore: r15 (r15)
  DW_CFA_advance_loc: 2 to 000000000048b15f
  DW_CFA_restore: r14 (r14)
  DW_CFA_advance_loc: 2 to 000000000048b161
  DW_CFA_restore: r13 (r13)
  DW_CFA_advance_loc: 2 to 000000000048b163
  DW_CFA_restore: r12 (r12)
  DW_CFA_advance_loc: 3 to 000000000048b166
  DW_CFA_restore: r6 (rbp)
  DW_CFA_advance_loc: 1 to 000000000048b167
  DW_CFA_offset: r3 (rbx) at cfa-56
  DW_CFA_offset: r6 (rbp) at cfa-16
  DW_CFA_offset: r12 (r12) at cfa-24
  DW_CFA_offset: r13 (r13) at cfa-32
  DW_CFA_offset: r14 (r14) at cfa-40
  DW_CFA_offset: r15 (r15) at cfa-48
  DW_CFA_advance_loc1: 206 to 000000000048b235
  DW_CFA_restore: r3 (rbx)
  DW_CFA_advance_loc: 1 to 000000000048b236
  DW_CFA_restore: r15 (r15)
  DW_CFA_advance_loc: 2 to 000000000048b238
  DW_CFA_restore: r14 (r14)
  DW_CFA_advance_loc: 2 to 000000000048b23a
  DW_CFA_restore: r13 (r13)
  DW_CFA_advance_loc: 2 to 000000000048b23c
  DW_CFA_restore: r12 (r12)
  DW_CFA_advance_loc: 3 to 000000000048b23f
  DW_CFA_restore: r6 (rbp)
  DW_CFA_advance_loc: 1 to 000000000048b240
  DW_CFA_offset: r3 (rbx) at cfa-56
  DW_CFA_offset: r6 (rbp) at cfa-16
  DW_CFA_offset: r12 (r12) at cfa-24
  DW_CFA_offset: r13 (r13) at cfa-32
  DW_CFA_offset: r14 (r14) at cfa-40
  DW_CFA_offset: r15 (r15) at cfa-48
  DW_CFA_advance_loc: 47 to 000000000048b26f
  DW_CFA_restore: r3 (rbx)
  DW_CFA_advance_loc: 1 to 000000000048b270
  DW_CFA_restore: r15 (r15)
  DW_CFA_advance_loc: 2 to 000000000048b272
  DW_CFA_restore: r14 (r14)
  DW_CFA_advance_loc: 2 to 000000000048b274
  DW_CFA_restore: r13 (r13)
  DW_CFA_advance_loc: 2 to 000000000048b276
  DW_CFA_restore: r12 (r12)
  DW_CFA_advance_loc: 3 to 000000000048b279
  DW_CFA_restore: r6 (rbp)
  DW_CFA_advance_loc: 1 to 000000000048b27a
  DW_CFA_offset: r3 (rbx) at cfa-56
  DW_CFA_offset: r6 (rbp) at cfa-16
  DW_CFA_offset: r12 (r12) at cfa-24
  DW_CFA_offset: r13 (r13) at cfa-32
  DW_CFA_offset: r14 (r14) at cfa-40
  DW_CFA_offset: r15 (r15) at cfa-48
  DW_CFA_advance_loc1: 126 to 000000000048b2f8
  DW_CFA_restore: r3 (rbx)
  DW_CFA_advance_loc: 1 to 000000000048b2f9
  DW_CFA_restore: r15 (r15)
  DW_CFA_advance_loc: 2 to 000000000048b2fb
  DW_CFA_restore: r14 (r14)
  DW_CFA_advance_loc: 2 to 000000000048b2fd
  DW_CFA_restore: r13 (r13)
  DW_CFA_advance_loc: 2 to 000000000048b2ff
  DW_CFA_restore: r12 (r12)
  DW_CFA_advance_loc: 3 to 000000000048b302
  DW_CFA_restore: r6 (rbp)
  DW_CFA_advance_loc: 1 to 000000000048b303
  DW_CFA_offset: r3 (rbx) at cfa-56
  DW_CFA_offset: r6 (rbp) at cfa-16
  DW_CFA_offset: r12 (r12) at cfa-24
  DW_CFA_offset: r13 (r13) at cfa-32
  DW_CFA_offset: r14 (r14) at cfa-40
  DW_CFA_offset: r15 (r15) at cfa-48
  DW_CFA_advance_loc: 47 to 000000000048b332
  DW_CFA_restore: r3 (rbx)
  DW_CFA_advance_loc: 1 to 000000000048b333
  DW_CFA_restore: r15 (r15)
  DW_CFA_advance_loc: 2 to 000000000048b335
  DW_CFA_restore: r14 (r14)
  DW_CFA_advance_loc: 2 to 000000000048b337
  DW_CFA_restore: r13 (r13)
  DW_CFA_advance_loc: 2 to 000000000048b339
  DW_CFA_restore: r12 (r12)
  DW_CFA_advance_loc: 3 to 000000000048b33c
  DW_CFA_restore: r6 (rbp)
  DW_CFA_advance_loc: 1 to 000000000048b33d
  DW_CFA_offset: r3 (rbx) at cfa-56
  DW_CFA_offset: r6 (rbp) at cfa-16
  DW_CFA_offset: r12 (r12) at cfa-24
  DW_CFA_offset: r13 (r13) at cfa-32
  DW_CFA_offset: r14 (r14) at cfa-40
  DW_CFA_offset: r15 (r15) at cfa-48
  DW_CFA_advance_loc1: 145 to 000000000048b3ce
  DW_CFA_restore: r3 (rbx)
  DW_CFA_advance_loc: 1 to 000000000048b3cf
  DW_CFA_restore: r15 (r15)
  DW_CFA_advance_loc: 2 to 000000000048b3d1
  DW_CFA_restore: r14 (r14)
  DW_CFA_advance_loc: 2 to 000000000048b3d3
  DW_CFA_restore: r13 (r13)
  DW_CFA_advance_loc: 2 to 000000000048b3d5
  DW_CFA_restore: r12 (r12)
  DW_CFA_advance_loc: 3 to 000000000048b3d8
  DW_CFA_restore: r6 (rbp)
  DW_CFA_advance_loc: 1 to 000000000048b3d9
  DW_CFA_offset: r3 (rbx) at cfa-56
  DW_CFA_offset: r6 (rbp) at cfa-16
  DW_CFA_offset: r12 (r12) at cfa-24
  DW_CFA_offset: r13 (r13) at cfa-32
  DW_CFA_offset: r14 (r14) at cfa-40
  DW_CFA_offset: r15 (r15) at cfa-48
  DW_CFA_advance_loc1: 165 to 000000000048b47e
  DW_CFA_restore: r3 (rbx)
  DW_CFA_advance_loc: 1 to 000000000048b47f
  DW_CFA_restore: r15 (r15)
  DW_CFA_advance_loc: 2 to 000000000048b481
  DW_CFA_restore: r14 (r14)
  DW_CFA_advance_loc: 2 to 000000000048b483
  DW_CFA_restore: r13 (r13)
  DW_CFA_advance_loc: 2 to 000000000048b485
  DW_CFA_restore: r12 (r12)
  DW_CFA_advance_loc: 3 to 000000000048b488
  DW_CFA_restore: r6 (rbp)
  DW_CFA_advance_loc: 1 to 000000000048b489
  DW_CFA_offset: r3 (rbx) at cfa-56
  DW_CFA_offset: r6 (rbp) at cfa-16
  DW_CFA_offset: r12 (r12) at cfa-24
  DW_CFA_offset: r13 (r13) at cfa-32
  DW_CFA_offset: r14 (r14) at cfa-40
  DW_CFA_offset: r15 (r15) at cfa-48
  DW_CFA_advance_loc1: 75 to 000000000048b4d4
  DW_CFA_restore: r3 (rbx)
  DW_CFA_advance_loc: 1 to 000000000048b4d5
  DW_CFA_restore: r15 (r15)
  DW_CFA_advance_loc: 2 to 000000000048b4d7
  DW_CFA_restore: r14 (r14)
  DW_CFA_advance_loc: 2 to 000000000048b4d9
  DW_CFA_restore: r13 (r13)
  DW_CFA_advance_loc: 2 to 000000000048b4db
  DW_CFA_restore: r12 (r12)
  DW_CFA_advance_loc: 3 to 000000000048b4de
  DW_CFA_restore: r6 (rbp)
  DW_CFA_advance_loc: 1 to 000000000048b4df
  DW_CFA_offset: r3 (rbx) at cfa-56
  DW_CFA_offset: r6 (rbp) at cfa-16
  DW_CFA_offset: r12 (r12) at cfa-24
  DW_CFA_offset: r13 (r13) at cfa-32
  DW_CFA_offset: r14 (r14) at cfa-40
  DW_CFA_offset: r15 (r15) at cfa-48
  DW_CFA_advance_loc1: 122 to 000000000048b559
  DW_CFA_restore: r3 (rbx)
  DW_CFA_advance_loc: 1 to 000000000048b55a
  DW_CFA_restore: r15 (r15)
  DW_CFA_advance_loc: 2 to 000000000048b55c
  DW_CFA_restore: r14 (r14)
  DW_CFA_advance_loc: 2 to 000000000048b55e
  DW_CFA_restore: r13 (r13)
  DW_CFA_advance_loc: 2 to 000000000048b560
  DW_CFA_restore: r12 (r12)
  DW_CFA_advance_loc: 3 to 000000000048b563
  DW_CFA_restore: r6 (rbp)
  DW_CFA_advance_loc: 1 to 000000000048b564
  DW_CFA_offset: r3 (rbx) at cfa-56
  DW_CFA_offset: r6 (rbp) at cfa-16
  DW_CFA_offset: r12 (r12) at cfa-24
  DW_CFA_offset: r13 (r13) at cfa-32
  DW_CFA_offset: r14 (r14) at cfa-40
  DW_CFA_offset: r15 (r15) at cfa-48
  DW_CFA_advance_loc: 56 to 000000000048b59c
  DW_CFA_restore: r3 (rbx)
  DW_CFA_advance_loc: 1 to 000000000048b59d
  DW_CFA_restore: r15 (r15)
  DW_CFA_advance_loc: 2 to 000000000048b59f
  DW_CFA_restore: r14 (r14)
  DW_CFA_advance_loc: 2 to 000000000048b5a1
  DW_CFA_restore: r13 (r13)
  DW_CFA_advance_loc: 2 to 000000000048b5a3
  DW_CFA_restore: r12 (r12)
  DW_CFA_advance_loc: 3 to 000000000048b5a6
  DW_CFA_restore: r6 (rbp)
  DW_CFA_advance_loc: 1 to 000000000048b5a7
  DW_CFA_offset: r3 (rbx) at cfa-56
  DW_CFA_offset: r6 (rbp) at cfa-16
  DW_CFA_offset: r12 (r12) at cfa-24
  DW_CFA_offset: r13 (r13) at cfa-32
  DW_CFA_offset: r14 (r14) at cfa-40
  DW_CFA_offset: r15 (r15) at cfa-48
  DW_CFA_advance_loc: 56 to 000000000048b5df
  DW_CFA_restore: r3 (rbx)
  DW_CFA_advance_loc: 1 to 000000000048b5e0
  DW_CFA_restore: r15 (r15)
  DW_CFA_advance_loc: 2 to 000000000048b5e2
  DW_CFA_restore: r14 (r14)
  DW_CFA_advance_loc: 2 to 000000000048b5e4
  DW_CFA_restore: r13 (r13)
  DW_CFA_advance_loc: 2 to 000000000048b5e6
  DW_CFA_restore: r12 (r12)
  DW_CFA_advance_loc: 3 to 000000000048b5e9
  DW_CFA_restore: r6 (rbp)
  DW_CFA_advance_loc: 1 to 000000000048b5ea
  DW_CFA_offset: r3 (rbx) at cfa-56
  DW_CFA_offset: r6 (rbp) at cfa-16
  DW_CFA_offset: r12 (r12) at cfa-24
  DW_CFA_offset: r13 (r13) at cfa-32
  DW_CFA_offset: r14 (r14) at cfa-40
  DW_CFA_offset: r15 (r15) at cfa-48
  DW_CFA_advance_loc1: 75 to 000000000048b635
  DW_CFA_restore: r3 (rbx)
  DW_CFA_advance_loc: 1 to 000000000048b636
  DW_CFA_restore: r15 (r15)
  DW_CFA_advance_loc: 2 to 000000000048b638
  DW_CFA_restore: r14 (r14)
  DW_CFA_advance_loc: 2 to 000000000048b63a
  DW_CFA_restore: r13 (r13)
  DW_CFA_advance_loc: 2 to 000000000048b63c
  DW_CFA_restore: r12 (r12)
  DW_CFA_advance_loc: 3 to 000000000048b63f
  DW_CFA_restore: r6 (rbp)
  DW_CFA_advance_loc: 1 to 000000000048b640
  DW_CFA_offset: r3 (rbx) at cfa-56
  DW_CFA_offset: r6 (rbp) at cfa-16
  DW_CFA_offset: r12 (r12) at cfa-24
  DW_CFA_offset: r13 (r13) at cfa-32
  DW_CFA_offset: r14 (r14) at cfa-40
  DW_CFA_offset: r15 (r15) at cfa-48
  DW_CFA_advance_loc: 41 to 000000000048b669
  DW_CFA_restore: r3 (rbx)
  DW_CFA_advance_loc: 1 to 000000000048b66a
  DW_CFA_restore: r15 (r15)
  DW_CFA_advance_loc: 2 to 000000000048b66c
  DW_CFA_restore: r14 (r14)
  DW_CFA_advance_loc: 2 to 000000000048b66e
  DW_CFA_restore: r13 (r13)
  DW_CFA_advance_loc: 2 to 000000000048b670
  DW_CFA_restore: r12 (r12)
  DW_CFA_advance_loc: 3 to 000000000048b673
  DW_CFA_restore: r6 (rbp)
  DW_CFA_advance_loc: 1 to 000000000048b674
  DW_CFA_offset: r3 (rbx) at cfa-56
  DW_CFA_offset: r6 (rbp) at cfa-16
  DW_CFA_offset: r12 (r12) at cfa-24
  DW_CFA_offset: r13 (r13) at cfa-32
  DW_CFA_offset: r14 (r14) at cfa-40
  DW_CFA_offset: r15 (r15) at cfa-48
  DW_CFA_advance_loc1: 122 to 000000000048b6ee
  DW_CFA_restore: r3 (rbx)
  DW_CFA_advance_loc: 1 to 000000000048b6ef
  DW_CFA_restore: r15 (r15)
  DW_CFA_advance_loc: 2 to 000000000048b6f1
  DW_CFA_restore: r14 (r14)
  DW_CFA_advance_loc: 2 to 000000000048b6f3
  DW_CFA_restore: r13 (r13)
  DW_CFA_advance_loc: 2 to 000000000048b6f5
  DW_CFA_restore: r12 (r12)
  DW_CFA_advance_loc: 3 to 000000000048b6f8
  DW_CFA_restore: r6 (rbp)
  DW_CFA_advance_loc: 1 to 000000000048b6f9
  DW_CFA_offset: r3 (rbx) at cfa-56
  DW_CFA_offset: r6 (rbp) at cfa-16
  DW_CFA_offset: r12 (r12) at cfa-24
  DW_CFA_offset: r13 (r13) at cfa-32
  DW_CFA_offset: r14 (r14) at cfa-40
  DW_CFA_offset: r15 (r15) at cfa-48
  DW_CFA_advance_loc1: 106 to 000000000048b763
  DW_CFA_restore: r3 (rbx)
  DW_CFA_advance_loc: 1 to 000000000048b764
  DW_CFA_restore: r15 (r15)
  DW_CFA_advance_loc: 2 to 000000000048b766
  DW_CFA_restore: r14 (r14)
  DW_CFA_advance_loc: 2 to 000000000048b768
  DW_CFA_restore: r13 (r13)
  DW_CFA_advance_loc: 2 to 000000000048b76a
  DW_CFA_restore: r12 (r12)
  DW_CFA_advance_loc: 3 to 000000000048b76d
  DW_CFA_restore: r6 (rbp)
  DW_CFA_advance_loc: 1 to 000000000048b76e
  DW_CFA_offset: r3 (rbx) at cfa-56
  DW_CFA_offset: r6 (rbp) at cfa-16
  DW_CFA_offset: r12 (r12) at cfa-24
  DW_CFA_offset: r13 (r13) at cfa-32
  DW_CFA_offset: r14 (r14) at cfa-40
  DW_CFA_offset: r15 (r15) at cfa-48
  DW_CFA_advance_loc: 56 to 000000000048b7a6
  DW_CFA_restore: r3 (rbx)
  DW_CFA_advance_loc: 1 to 000000000048b7a7
  DW_CFA_restore: r15 (r15)
  DW_CFA_advance_loc: 2 to 000000000048b7a9
  DW_CFA_restore: r14 (r14)
  DW_CFA_advance_loc: 2 to 000000000048b7ab
  DW_CFA_restore: r13 (r13)
  DW_CFA_advance_loc: 2 to 000000000048b7ad
  DW_CFA_restore: r12 (r12)
  DW_CFA_advance_loc: 3 to 000000000048b7b0
  DW_CFA_restore: r6 (rbp)
  DW_CFA_advance_loc: 1 to 000000000048b7b1
  DW_CFA_offset: r3 (rbx) at cfa-56
  DW_CFA_offset: r6 (rbp) at cfa-16
  DW_CFA_offset: r12 (r12) at cfa-24
  DW_CFA_offset: r13 (r13) at cfa-32
  DW_CFA_offset: r14 (r14) at cfa-40
  DW_CFA_offset: r15 (r15) at cfa-48
  DW_CFA_advance_loc1: 130 to 000000000048b833
  DW_CFA_restore: r3 (rbx)
  DW_CFA_advance_loc: 1 to 000000000048b834
  DW_CFA_restore: r15 (r15)
  DW_CFA_advance_loc: 2 to 000000000048b836
  DW_CFA_restore: r14 (r14)
  DW_CFA_advance_loc: 2 to 000000000048b838
  DW_CFA_restore: r13 (r13)
  DW_CFA_advance_loc: 2 to 000000000048b83a
  DW_CFA_restore: r12 (r12)
  DW_CFA_advance_loc: 3 to 000000000048b83d
  DW_CFA_restore: r6 (rbp)
  DW_CFA_advance_loc: 1 to 000000000048b83e
  DW_CFA_offset: r3 (rbx) at cfa-56
  DW_CFA_offset: r6 (rbp) at cfa-16
  DW_CFA_offset: r12 (r12) at cfa-24
  DW_CFA_offset: r13 (r13) at cfa-32
  DW_CFA_offset: r14 (r14) at cfa-40
  DW_CFA_offset: r15 (r15) at cfa-48
  DW_CFA_advance_loc: 60 to 000000000048b87a
  DW_CFA_restore: r3 (rbx)
  DW_CFA_advance_loc: 1 to 000000000048b87b
  DW_CFA_restore: r15 (r15)
  DW_CFA_advance_loc: 2 to 000000000048b87d
  DW_CFA_restore: r14 (r14)
  DW_CFA_advance_loc: 2 to 000000000048b87f
  DW_CFA_restore: r13 (r13)
  DW_CFA_advance_loc: 2 to 000000000048b881
  DW_CFA_restore: r12 (r12)
  DW_CFA_advance_loc: 3 to 000000000048b884
  DW_CFA_restore: r6 (rbp)
  DW_CFA_advance_loc: 1 to 000000000048b885
  DW_CFA_offset: r3 (rbx) at cfa-56
  DW_CFA_offset: r6 (rbp) at cfa-16
  DW_CFA_offset: r12 (r12) at cfa-24
  DW_CFA_offset: r13 (r13) at cfa-32
  DW_CFA_offset: r14 (r14) at cfa-40
  DW_CFA_offset: r15 (r15) at cfa-48
  DW_CFA_advance_loc1: 111 to 000000000048b8f4
  DW_CFA_restore: r3 (rbx)
  DW_CFA_advance_loc: 1 to 000000000048b8f5
  DW_CFA_restore: r15 (r15)
  DW_CFA_advance_loc: 2 to 000000000048b8f7
  DW_CFA_restore: r14 (r14)
  DW_CFA_advance_loc: 2 to 000000000048b8f9
  DW_CFA_restore: r13 (r13)
  DW_CFA_advance_loc: 2 to 000000000048b8fb
  DW_CFA_restore: r12 (r12)
  DW_CFA_advance_loc: 3 to 000000000048b8fe
  DW_CFA_restore: r6 (rbp)
  DW_CFA_advance_loc: 1 to 000000000048b8ff
  DW_CFA_offset: r3 (rbx) at cfa-56
  DW_CFA_offset: r6 (rbp) at cfa-16
  DW_CFA_offset: r12 (r12) at cfa-24
  DW_CFA_offset: r13 (r13) at cfa-32
  DW_CFA_offset: r14 (r14) at cfa-40
  DW_CFA_offset: r15 (r15) at cfa-48
  DW_CFA_advance_loc1: 74 to 000000000048b949
  DW_CFA_restore: r3 (rbx)
  DW_CFA_advance_loc: 1 to 000000000048b94a
  DW_CFA_restore: r15 (r15)
  DW_CFA_advance_loc: 2 to 000000000048b94c
  DW_CFA_restore: r14 (r14)
  DW_CFA_advance_loc: 2 to 000000000048b94e
  DW_CFA_restore: r13 (r13)
  DW_CFA_advance_loc: 2 to 000000000048b950
  DW_CFA_restore: r12 (r12)
  DW_CFA_advance_loc: 3 to 000000000048b953
  DW_CFA_restore: r6 (rbp)
  DW_CFA_advance_loc: 1 to 000000000048b954
  DW_CFA_offset: r3 (rbx) at cfa-56
  DW_CFA_offset: r6 (rbp) at cfa-16
  DW_CFA_offset: r12 (r12) at cfa-24
  DW_CFA_offset: r13 (r13) at cfa-32
  DW_CFA_offset: r14 (r14) at cfa-40
  DW_CFA_offset: r15 (r15) at cfa-48
  DW_CFA_advance_loc: 31 to 000000000048b973
  DW_CFA_restore: r3 (rbx)
  DW_CFA_advance_loc: 1 to 000000000048b974
  DW_CFA_restore: r15 (r15)
  DW_CFA_advance_loc: 2 to 000000000048b976
  DW_CFA_restore: r14 (r14)
  DW_CFA_advance_loc: 2 to 000000000048b978
  DW_CFA_restore: r13 (r13)
  DW_CFA_advance_loc: 2 to 000000000048b97a
  DW_CFA_restore: r12 (r12)
  DW_CFA_advance_loc: 3 to 000000000048b97d
  DW_CFA_restore: r6 (rbp)
  DW_CFA_advance_loc: 1 to 000000000048b97e
  DW_CFA_offset: r3 (rbx) at cfa-56
  DW_CFA_offset: r6 (rbp) at cfa-16
  DW_CFA_offset: r12 (r12) at cfa-24
  DW_CFA_offset: r13 (r13) at cfa-32
  DW_CFA_offset: r14 (r14) at cfa-40
  DW_CFA_offset: r15 (r15) at cfa-48
  DW_CFA_advance_loc: 56 to 000000000048b9b6
  DW_CFA_restore: r3 (rbx)
  DW_CFA_advance_loc: 1 to 000000000048b9b7
  DW_CFA_restore: r15 (r15)
  DW_CFA_advance_loc: 2 to 000000000048b9b9
  DW_CFA_restore: r14 (r14)
  DW_CFA_advance_loc: 2 to 000000000048b9bb
  DW_CFA_restore: r13 (r13)
  DW_CFA_advance_loc: 2 to 000000000048b9bd
  DW_CFA_restore: r12 (r12)
  DW_CFA_advance_loc: 3 to 000000000048b9c0
  DW_CFA_restore: r6 (rbp)
  DW_CFA_advance_loc: 1 to 000000000048b9c1
  DW_CFA_offset: r3 (rbx) at cfa-56
  DW_CFA_offset: r6 (rbp) at cfa-16
  DW_CFA_offset: r12 (r12) at cfa-24
  DW_CFA_offset: r13 (r13) at cfa-32
  DW_CFA_offset: r14 (r14) at cfa-40
  DW_CFA_offset: r15 (r15) at cfa-48
  DW_CFA_advance_loc1: 205 to 000000000048ba8e
  DW_CFA_restore: r3 (rbx)
  DW_CFA_advance_loc: 1 to 000000000048ba8f
  DW_CFA_restore: r15 (r15)
  DW_CFA_advance_loc: 2 to 000000000048ba91
  DW_CFA_restore: r14 (r14)
  DW_CFA_advance_loc: 2 to 000000000048ba93
  DW_CFA_restore: r13 (r13)
  DW_CFA_advance_loc: 2 to 000000000048ba95
  DW_CFA_restore: r12 (r12)
  DW_CFA_advance_loc: 3 to 000000000048ba98
  DW_CFA_restore: r6 (rbp)
  DW_CFA_advance_loc: 1 to 000000000048ba99
  DW_CFA_offset: r3 (rbx) at cfa-56
  DW_CFA_offset: r6 (rbp) at cfa-16
  DW_CFA_offset: r12 (r12) at cfa-24
  DW_CFA_offset: r13 (r13) at cfa-32
  DW_CFA_offset: r14 (r14) at cfa-40
  DW_CFA_offset: r15 (r15) at cfa-48
  DW_CFA_advance_loc1: 66 to 000000000048badb
  DW_CFA_restore: r3 (rbx)
  DW_CFA_advance_loc: 1 to 000000000048badc
  DW_CFA_restore: r15 (r15)
  DW_CFA_advance_loc: 2 to 000000000048bade
  DW_CFA_restore: r14 (r14)
  DW_CFA_advance_loc: 2 to 000000000048bae0
  DW_CFA_restore: r13 (r13)
  DW_CFA_advance_loc: 2 to 000000000048bae2
  DW_CFA_restore: r12 (r12)
  DW_CFA_advance_loc: 3 to 000000000048bae5
  DW_CFA_restore: r6 (rbp)
  DW_CFA_advance_loc: 1 to 000000000048bae6
  DW_CFA_offset: r3 (rbx) at cfa-56
  DW_CFA_offset: r6 (rbp) at cfa-16
  DW_CFA_offset: r12 (r12) at cfa-24
  DW_CFA_offset: r13 (r13) at cfa-32
  DW_CFA_offset: r14 (r14) at cfa-40
  DW_CFA_offset: r15 (r15) at cfa-48
  DW_CFA_advance_loc1: 77 to 000000000048bb33
  DW_CFA_restore: r3 (rbx)
  DW_CFA_advance_loc: 1 to 000000000048bb34
  DW_CFA_restore: r15 (r15)
  DW_CFA_advance_loc: 2 to 000000000048bb36
  DW_CFA_restore: r14 (r14)
  DW_CFA_advance_loc: 2 to 000000000048bb38
  DW_CFA_restore: r13 (r13)
  DW_CFA_advance_loc: 2 to 000000000048bb3a
  DW_CFA_restore: r12 (r12)
  DW_CFA_advance_loc: 3 to 000000000048bb3d
  DW_CFA_restore: r6 (rbp)
  DW_CFA_advance_loc: 1 to 000000000048bb3e
  DW_CFA_offset: r3 (rbx) at cfa-56
  DW_CFA_offset: r6 (rbp) at cfa-16
  DW_CFA_offset: r12 (r12) at cfa-24
  DW_CFA_offset: r13 (r13) at cfa-32
  DW_CFA_offset: r14 (r14) at cfa-40
  DW_CFA_offset: r15 (r15) at cfa-48
  DW_CFA_advance_loc1: 87 to 000000000048bb95
  DW_CFA_restore: r3 (rbx)
  DW_CFA_advance_loc: 1 to 000000000048bb96
  DW_CFA_restore: r15 (r15)
  DW_CFA_advance_loc: 2 to 000000000048bb98
  DW_CFA_restore: r14 (r14)
  DW_CFA_advance_loc: 2 to 000000000048bb9a
  DW_CFA_restore: r13 (r13)
  DW_CFA_advance_loc: 2 to 000000000048bb9c
  DW_CFA_restore: r12 (r12)
  DW_CFA_advance_loc: 3 to 000000000048bb9f
  DW_CFA_restore: r6 (rbp)
  DW_CFA_advance_loc: 1 to 000000000048bba0
  DW_CFA_offset: r3 (rbx) at cfa-56
  DW_CFA_offset: r6 (rbp) at cfa-16
  DW_CFA_offset: r12 (r12) at cfa-24
  DW_CFA_offset: r13 (r13) at cfa-32
  DW_CFA_offset: r14 (r14) at cfa-40
  DW_CFA_offset: r15 (r15) at cfa-48
  DW_CFA_advance_loc1: 147 to 000000000048bc33
  DW_CFA_restore: r3 (rbx)
  DW_CFA_advance_loc: 1 to 000000000048bc34
  DW_CFA_restore: r15 (r15)
  DW_CFA_advance_loc: 2 to 000000000048bc36
  DW_CFA_restore: r14 (r14)
  DW_CFA_advance_loc: 2 to 000000000048bc38
  DW_CFA_restore: r13 (r13)
  DW_CFA_advance_loc: 2 to 000000000048bc3a
  DW_CFA_restore: r12 (r12)
  DW_CFA_advance_loc: 3 to 000000000048bc3d
  DW_CFA_restore: r6 (rbp)
  DW_CFA_advance_loc: 1 to 000000000048bc3e
  DW_CFA_offset: r3 (rbx) at cfa-56
  DW_CFA_offset: r6 (rbp) at cfa-16
  DW_CFA_offset: r12 (r12) at cfa-24
  DW_CFA_offset: r13 (r13) at cfa-32
  DW_CFA_offset: r14 (r14) at cfa-40
  DW_CFA_offset: r15 (r15) at cfa-48
  DW_CFA_advance_loc1: 169 to 000000000048bce7
  DW_CFA_restore: r3 (rbx)
  DW_CFA_advance_loc: 1 to 000000000048bce8
  DW_CFA_restore: r15 (r15)
  DW_CFA_advance_loc: 2 to 000000000048bcea
  DW_CFA_restore: r14 (r14)
  DW_CFA_advance_loc: 2 to 000000000048bcec
  DW_CFA_restore: r13 (r13)
  DW_CFA_advance_loc: 2 to 000000000048bcee
  DW_CFA_restore: r12 (r12)
  DW_CFA_advance_loc: 3 to 000000000048bcf1
  DW_CFA_restore: r6 (rbp)
  DW_CFA_advance_loc: 1 to 000000000048bcf2
  DW_CFA_offset: r3 (rbx) at cfa-56
  DW_CFA_offset: r6 (rbp) at cfa-16
  DW_CFA_offset: r12 (r12) at cfa-24
  DW_CFA_offset: r13 (r13) at cfa-32
  DW_CFA_offset: r14 (r14) at cfa-40
  DW_CFA_offset: r15 (r15) at cfa-48
  DW_CFA_advance_loc1: 96 to 000000000048bd52
  DW_CFA_restore: r3 (rbx)
  DW_CFA_advance_loc: 1 to 000000000048bd53
  DW_CFA_restore: r15 (r15)
  DW_CFA_advance_loc: 2 to 000000000048bd55
  DW_CFA_restore: r14 (r14)
  DW_CFA_advance_loc: 2 to 000000000048bd57
  DW_CFA_restore: r13 (r13)
  DW_CFA_advance_loc: 2 to 000000000048bd59
  DW_CFA_restore: r12 (r12)
  DW_CFA_advance_loc: 3 to 000000000048bd5c
  DW_CFA_restore: r6 (rbp)
  DW_CFA_advance_loc: 1 to 000000000048bd5d
  DW_CFA_offset: r3 (rbx) at cfa-56
  DW_CFA_offset: r6 (rbp) at cfa-16
  DW_CFA_offset: r12 (r12) at cfa-24
  DW_CFA_offset: r13 (r13) at cfa-32
  DW_CFA_offset: r14 (r14) at cfa-40
  DW_CFA_offset: r15 (r15) at cfa-48
  DW_CFA_advance_loc2: 285 to 000000000048be7a
  DW_CFA_restore: r3 (rbx)
  DW_CFA_advance_loc: 1 to 000000000048be7b
  DW_CFA_restore: r15 (r15)
  DW_CFA_advance_loc: 2 to 000000000048be7d
  DW_CFA_restore: r14 (r14)
  DW_CFA_advance_loc: 2 to 000000000048be7f
  DW_CFA_restore: r13 (r13)
  DW_CFA_advance_loc: 2 to 000000000048be81
  DW_CFA_restore: r12 (r12)
  DW_CFA_advance_loc: 3 to 000000000048be84
  DW_CFA_restore: r6 (rbp)
  DW_CFA_advance_loc: 1 to 000000000048be85
  DW_CFA_offset: r3 (rbx) at cfa-56
  DW_CFA_offset: r6 (rbp) at cfa-16
  DW_CFA_offset: r12 (r12) at cfa-24
  DW_CFA_offset: r13 (r13) at cfa-32
  DW_CFA_offset: r14 (r14) at cfa-40
  DW_CFA_offset: r15 (r15) at cfa-48
  DW_CFA_advance_loc1: 87 to 000000000048bedc
  DW_CFA_restore: r3 (rbx)
  DW_CFA_advance_loc: 1 to 000000000048bedd
  DW_CFA_restore: r15 (r15)
  DW_CFA_advance_loc: 2 to 000000000048bedf
  DW_CFA_restore: r14 (r14)
  DW_CFA_advance_loc: 2 to 000000000048bee1
  DW_CFA_restore: r13 (r13)
  DW_CFA_advance_loc: 2 to 000000000048bee3
  DW_CFA_restore: r12 (r12)
  DW_CFA_advance_loc: 3 to 000000000048bee6
  DW_CFA_restore: r6 (rbp)
  DW_CFA_advance_loc: 1 to 000000000048bee7
  DW_CFA_offset: r3 (rbx) at cfa-56
  DW_CFA_offset: r6 (rbp) at cfa-16
  DW_CFA_offset: r12 (r12) at cfa-24
  DW_CFA_offset: r13 (r13) at cfa-32
  DW_CFA_offset: r14 (r14) at cfa-40
  DW_CFA_offset: r15 (r15) at cfa-48
  DW_CFA_advance_loc1: 81 to 000000000048bf38
  DW_CFA_restore: r3 (rbx)
  DW_CFA_advance_loc: 1 to 000000000048bf39
  DW_CFA_restore: r15 (r15)
  DW_CFA_advance_loc: 2 to 000000000048bf3b
  DW_CFA_restore: r14 (r14)
  DW_CFA_advance_loc: 2 to 000000000048bf3d
  DW_CFA_restore: r13 (r13)
  DW_CFA_advance_loc: 2 to 000000000048bf3f
  DW_CFA_restore: r12 (r12)
  DW_CFA_advance_loc: 3 to 000000000048bf42
  DW_CFA_restore: r6 (rbp)
  DW_CFA_advance_loc: 1 to 000000000048bf43
  DW_CFA_offset: r3 (rbx) at cfa-56
  DW_CFA_offset: r6 (rbp) at cfa-16
  DW_CFA_offset: r12 (r12) at cfa-24
  DW_CFA_offset: r13 (r13) at cfa-32
  DW_CFA_offset: r14 (r14) at cfa-40
  DW_CFA_offset: r15 (r15) at cfa-48
  DW_CFA_advance_loc1: 80 to 000000000048bf93
  DW_CFA_restore: r3 (rbx)
  DW_CFA_advance_loc: 1 to 000000000048bf94
  DW_CFA_restore: r15 (r15)
  DW_CFA_advance_loc: 2 to 000000000048bf96
  DW_CFA_restore: r14 (r14)
  DW_CFA_advance_loc: 2 to 000000000048bf98
  DW_CFA_restore: r13 (r13)
  DW_CFA_advance_loc: 2 to 000000000048bf9a
  DW_CFA_restore: r12 (r12)
  DW_CFA_advance_loc: 3 to 000000000048bf9d
  DW_CFA_restore: r6 (rbp)
  DW_CFA_advance_loc: 1 to 000000000048bf9e
  DW_CFA_offset: r3 (rbx) at cfa-56
  DW_CFA_offset: r6 (rbp) at cfa-16
  DW_CFA_offset: r12 (r12) at cfa-24
  DW_CFA_offset: r13 (r13) at cfa-32
  DW_CFA_offset: r14 (r14) at cfa-40
  DW_CFA_offset: r15 (r15) at cfa-48
  DW_CFA_advance_loc1: 95 to 000000000048bffd
  DW_CFA_restore: r3 (rbx)
  DW_CFA_advance_loc: 1 to 000000000048bffe
  DW_CFA_restore: r15 (r15)
  DW_CFA_advance_loc: 2 to 000000000048c000
  DW_CFA_restore: r14 (r14)
  DW_CFA_advance_loc: 2 to 000000000048c002
  DW_CFA_restore: r13 (r13)
  DW_CFA_advance_loc: 2 to 000000000048c004
  DW_CFA_restore: r12 (r12)
  DW_CFA_advance_loc: 3 to 000000000048c007
  DW_CFA_restore: r6 (rbp)
  DW_CFA_advance_loc: 1 to 000000000048c008
  DW_CFA_offset: r3 (rbx) at cfa-56
  DW_CFA_offset: r6 (rbp) at cfa-16
  DW_CFA_offset: r12 (r12) at cfa-24
  DW_CFA_offset: r13 (r13) at cfa-32
  DW_CFA_offset: r14 (r14) at cfa-40
  DW_CFA_offset: r15 (r15) at cfa-48
  DW_CFA_advance_loc: 47 to 000000000048c037
  DW_CFA_restore: r3 (rbx)
  DW_CFA_advance_loc: 1 to 000000000048c038
  DW_CFA_restore: r15 (r15)
  DW_CFA_advance_loc: 2 to 000000000048c03a
  DW_CFA_restore: r14 (r14)
  DW_CFA_advance_loc: 2 to 000000000048c03c
  DW_CFA_restore: r13 (r13)
  DW_CFA_advance_loc: 2 to 000000000048c03e
  DW_CFA_restore: r12 (r12)
  DW_CFA_advance_loc: 3 to 000000000048c041
  DW_CFA_restore: r6 (rbp)
  DW_CFA_advance_loc: 1 to 000000000048c042
  DW_CFA_offset: r3 (rbx) at cfa-56
  DW_CFA_offset: r6 (rbp) at cfa-16
  DW_CFA_offset: r12 (r12) at cfa-24
  DW_CFA_offset: r13 (r13) at cfa-32
  DW_CFA_offset: r14 (r14) at cfa-40
  DW_CFA_offset: r15 (r15) at cfa-48
  DW_CFA_advance_loc1: 149 to 000000000048c0d7
  DW_CFA_restore: r3 (rbx)
  DW_CFA_advance_loc: 1 to 000000000048c0d8
  DW_CFA_restore: r15 (r15)
  DW_CFA_advance_loc: 2 to 000000000048c0da
  DW_CFA_restore: r14 (r14)
  DW_CFA_advance_loc: 2 to 000000000048c0dc
  DW_CFA_restore: r13 (r13)
  DW_CFA_advance_loc: 2 to 000000000048c0de
  DW_CFA_restore: r12 (r12)
  DW_CFA_advance_loc: 3 to 000000000048c0e1
  DW_CFA_restore: r6 (rbp)
  DW_CFA_advance_loc: 1 to 000000000048c0e2
  DW_CFA_offset: r3 (rbx) at cfa-56
  DW_CFA_offset: r6 (rbp) at cfa-16
  DW_CFA_offset: r12 (r12) at cfa-24
  DW_CFA_offset: r13 (r13) at cfa-32
  DW_CFA_offset: r14 (r14) at cfa-40
  DW_CFA_offset: r15 (r15) at cfa-48
  DW_CFA_advance_loc1: 104 to 000000000048c14a
  DW_CFA_restore: r3 (rbx)
  DW_CFA_advance_loc: 1 to 000000000048c14b
  DW_CFA_restore: r15 (r15)
  DW_CFA_advance_loc: 2 to 000000000048c14d
  DW_CFA_restore: r14 (r14)
  DW_CFA_advance_loc: 2 to 000000000048c14f
  DW_CFA_restore: r13 (r13)
  DW_CFA_advance_loc: 2 to 000000000048c151
  DW_CFA_restore: r12 (r12)
  DW_CFA_advance_loc: 3 to 000000000048c154
  DW_CFA_restore: r6 (rbp)
  DW_CFA_advance_loc: 1 to 000000000048c155
  DW_CFA_offset: r3 (rbx) at cfa-56
  DW_CFA_offset: r6 (rbp) at cfa-16
  DW_CFA_offset: r12 (r12) at cfa-24
  DW_CFA_offset: r13 (r13) at cfa-32
  DW_CFA_offset: r14 (r14) at cfa-40
  DW_CFA_offset: r15 (r15) at cfa-48
  DW_CFA_advance_loc1: 149 to 000000000048c1ea
  DW_CFA_restore: r3 (rbx)
  DW_CFA_advance_loc: 1 to 000000000048c1eb
  DW_CFA_restore: r15 (r15)
  DW_CFA_advance_loc: 2 to 000000000048c1ed
  DW_CFA_restore: r14 (r14)
  DW_CFA_advance_loc: 2 to 000000000048c1ef
  DW_CFA_restore: r13 (r13)
  DW_CFA_advance_loc: 2 to 000000000048c1f1
  DW_CFA_restore: r12 (r12)
  DW_CFA_advance_loc: 3 to 000000000048c1f4
  DW_CFA_restore: r6 (rbp)
  DW_CFA_advance_loc: 1 to 000000000048c1f5
  DW_CFA_offset: r3 (rbx) at cfa-56
  DW_CFA_offset: r6 (rbp) at cfa-16
  DW_CFA_offset: r12 (r12) at cfa-24
  DW_CFA_offset: r13 (r13) at cfa-32
  DW_CFA_offset: r14 (r14) at cfa-40
  DW_CFA_offset: r15 (r15) at cfa-48
  DW_CFA_advance_loc1: 70 to 000000000048c23b
  DW_CFA_restore: r3 (rbx)
  DW_CFA_advance_loc: 1 to 000000000048c23c
  DW_CFA_restore: r15 (r15)
  DW_CFA_advance_loc: 2 to 000000000048c23e
  DW_CFA_restore: r14 (r14)
  DW_CFA_advance_loc: 2 to 000000000048c240
  DW_CFA_restore: r13 (r13)
  DW_CFA_advance_loc: 2 to 000000000048c242
  DW_CFA_restore: r12 (r12)
  DW_CFA_advance_loc: 3 to 000000000048c245
  DW_CFA_restore: r6 (rbp)
  DW_CFA_advance_loc: 1 to 000000000048c246
  DW_CFA_offset: r3 (rbx) at cfa-56
  DW_CFA_offset: r6 (rbp) at cfa-16
  DW_CFA_offset: r12 (r12) at cfa-24
  DW_CFA_offset: r13 (r13) at cfa-32
  DW_CFA_offset: r14 (r14) at cfa-40
  DW_CFA_offset: r15 (r15) at cfa-48
  DW_CFA_advance_loc1: 70 to 000000000048c28c
  DW_CFA_restore: r3 (rbx)
  DW_CFA_advance_loc: 1 to 000000000048c28d
  DW_CFA_restore: r15 (r15)
  DW_CFA_advance_loc: 2 to 000000000048c28f
  DW_CFA_restore: r14 (r14)
  DW_CFA_advance_loc: 2 to 000000000048c291
  DW_CFA_restore: r13 (r13)
  DW_CFA_advance_loc: 2 to 000000000048c293
  DW_CFA_restore: r12 (r12)
  DW_CFA_advance_loc: 3 to 000000000048c296
  DW_CFA_restore: r6 (rbp)
  DW_CFA_advance_loc: 1 to 000000000048c297
  DW_CFA_offset: r3 (rbx) at cfa-56
  DW_CFA_offset: r6 (rbp) at cfa-16
  DW_CFA_offset: r12 (r12) at cfa-24
  DW_CFA_offset: r13 (r13) at cfa-32
  DW_CFA_offset: r14 (r14) at cfa-40
  DW_CFA_offset: r15 (r15) at cfa-48
  DW_CFA_advance_loc1: 70 to 000000000048c2dd
  DW_CFA_restore: r3 (rbx)
  DW_CFA_advance_loc: 1 to 000000000048c2de
  DW_CFA_restore: r15 (r15)
  DW_CFA_advance_loc: 2 to 000000000048c2e0
  DW_CFA_restore: r14 (r14)
  DW_CFA_advance_loc: 2 to 000000000048c2e2
  DW_CFA_restore: r13 (r13)
  DW_CFA_advance_loc: 2 to 000000000048c2e4
  DW_CFA_restore: r12 (r12)
  DW_CFA_advance_loc: 3 to 000000000048c2e7
  DW_CFA_restore: r6 (rbp)
  DW_CFA_advance_loc: 1 to 000000000048c2e8
  DW_CFA_offset: r3 (rbx) at cfa-56
  DW_CFA_offset: r6 (rbp) at cfa-16
  DW_CFA_offset: r12 (r12) at cfa-24
  DW_CFA_offset: r13 (r13) at cfa-32
  DW_CFA_offset: r14 (r14) at cfa-40
  DW_CFA_offset: r15 (r15) at cfa-48
  DW_CFA_advance_loc2: 516 to 000000000048c4ec
  DW_CFA_restore: r3 (rbx)
  DW_CFA_advance_loc: 1 to 000000000048c4ed
  DW_CFA_restore: r15 (r15)
  DW_CFA_advance_loc: 2 to 000000000048c4ef
  DW_CFA_restore: r14 (r14)
  DW_CFA_advance_loc: 2 to 000000000048c4f1
  DW_CFA_restore: r13 (r13)
  DW_CFA_advance_loc: 2 to 000000000048c4f3
  DW_CFA_restore: r12 (r12)
  DW_CFA_advance_loc: 3 to 000000000048c4f6
  DW_CFA_restore: r6 (rbp)
  DW_CFA_advance_loc: 1 to 000000000048c4f7
  DW_CFA_offset: r3 (rbx) at cfa-56
  DW_CFA_offset: r6 (rbp) at cfa-16
  DW_CFA_offset: r12 (r12) at cfa-24
  DW_CFA_offset: r13 (r13) at cfa-32
  DW_CFA_offset: r14 (r14) at cfa-40
  DW_CFA_offset: r15 (r15) at cfa-48
  DW_CFA_advance_loc2: 573 to 000000000048c734
  DW_CFA_restore: r3 (rbx)
  DW_CFA_advance_loc: 1 to 000000000048c735
  DW_CFA_restore: r15 (r15)
  DW_CFA_advance_loc: 2 to 000000000048c737
  DW_CFA_restore: r14 (r14)
  DW_CFA_advance_loc: 2 to 000000000048c739
  DW_CFA_restore: r13 (r13)
  DW_CFA_advance_loc: 2 to 000000000048c73b
  DW_CFA_restore: r12 (r12)
  DW_CFA_advance_loc: 3 to 000000000048c73e
  DW_CFA_restore: r6 (rbp)
  DW_CFA_advance_loc: 1 to 000000000048c73f
  DW_CFA_offset: r3 (rbx) at cfa-56
  DW_CFA_offset: r6 (rbp) at cfa-16
  DW_CFA_offset: r12 (r12) at cfa-24
  DW_CFA_offset: r13 (r13) at cfa-32
  DW_CFA_offset: r14 (r14) at cfa-40
  DW_CFA_offset: r15 (r15) at cfa-48
  DW_CFA_advance_loc1: 178 to 000000000048c7f1
  DW_CFA_restore: r3 (rbx)
  DW_CFA_advance_loc: 1 to 000000000048c7f2
  DW_CFA_restore: r15 (r15)
  DW_CFA_advance_loc: 2 to 000000000048c7f4
  DW_CFA_restore: r14 (r14)
  DW_CFA_advance_loc: 2 to 000000000048c7f6
  DW_CFA_restore: r13 (r13)
  DW_CFA_advance_loc: 2 to 000000000048c7f8
  DW_CFA_restore: r12 (r12)
  DW_CFA_advance_loc: 3 to 000000000048c7fb
  DW_CFA_restore: r6 (rbp)
  DW_CFA_advance_loc: 1 to 000000000048c7fc
  DW_CFA_offset: r3 (rbx) at cfa-56
  DW_CFA_offset: r6 (rbp) at cfa-16
  DW_CFA_offset: r12 (r12) at cfa-24
  DW_CFA_offset: r13 (r13) at cfa-32
  DW_CFA_offset: r14 (r14) at cfa-40
  DW_CFA_offset: r15 (r15) at cfa-48
  DW_CFA_advance_loc2: 657 to 000000000048ca8d
  DW_CFA_restore: r3 (rbx)
  DW_CFA_advance_loc: 1 to 000000000048ca8e
  DW_CFA_restore: r15 (r15)
  DW_CFA_advance_loc: 2 to 000000000048ca90
  DW_CFA_restore: r14 (r14)
  DW_CFA_advance_loc: 2 to 000000000048ca92
  DW_CFA_restore: r13 (r13)
  DW_CFA_advance_loc: 2 to 000000000048ca94
  DW_CFA_restore: r12 (r12)
  DW_CFA_advance_loc: 3 to 000000000048ca97
  DW_CFA_restore: r6 (rbp)
  DW_CFA_advance_loc: 1 to 000000000048ca98
  DW_CFA_offset: r3 (rbx) at cfa-56
  DW_CFA_offset: r6 (rbp) at cfa-16
  DW_CFA_offset: r12 (r12) at cfa-24
  DW_CFA_offset: r13 (r13) at cfa-32
  DW_CFA_offset: r14 (r14) at cfa-40
  DW_CFA_offset: r15 (r15) at cfa-48
  DW_CFA_advance_loc1: 67 to 000000000048cadb
  DW_CFA_restore: r3 (rbx)
  DW_CFA_advance_loc: 1 to 000000000048cadc
  DW_CFA_restore: r15 (r15)
  DW_CFA_advance_loc: 2 to 000000000048cade
  DW_CFA_restore: r14 (r14)
  DW_CFA_advance_loc: 2 to 000000000048cae0
  DW_CFA_restore: r13 (r13)
  DW_CFA_advance_loc: 2 to 000000000048cae2
  DW_CFA_restore: r12 (r12)
  DW_CFA_advance_loc: 3 to 000000000048cae5
  DW_CFA_restore: r6 (rbp)
  DW_CFA_advance_loc: 1 to 000000000048cae6
  DW_CFA_offset: r3 (rbx) at cfa-56
  DW_CFA_offset: r6 (rbp) at cfa-16
  DW_CFA_offset: r12 (r12) at cfa-24
  DW_CFA_offset: r13 (r13) at cfa-32
  DW_CFA_offset: r14 (r14) at cfa-40
  DW_CFA_offset: r15 (r15) at cfa-48
  DW_CFA_advance_loc2: 1340 to 000000000048d022
  DW_CFA_restore: r3 (rbx)
  DW_CFA_advance_loc: 1 to 000000000048d023
  DW_CFA_restore: r15 (r15)
  DW_CFA_advance_loc: 2 to 000000000048d025
  DW_CFA_restore: r14 (r14)
  DW_CFA_advance_loc: 2 to 000000000048d027
  DW_CFA_restore: r13 (r13)
  DW_CFA_advance_loc: 2 to 000000000048d029
  DW_CFA_restore: r12 (r12)
  DW_CFA_advance_loc: 3 to 000000000048d02c
  DW_CFA_restore: r6 (rbp)
  DW_CFA_advance_loc: 1 to 000000000048d02d
  DW_CFA_offset: r3 (rbx) at cfa-56
  DW_CFA_offset: r6 (rbp) at cfa-16
  DW_CFA_offset: r12 (r12) at cfa-24
  DW_CFA_offset: r13 (r13) at cfa-32
  DW_CFA_offset: r14 (r14) at cfa-40
  DW_CFA_offset: r15 (r15) at cfa-48
  DW_CFA_advance_loc1: 102 to 000000000048d093
  DW_CFA_restore: r3 (rbx)
  DW_CFA_advance_loc: 1 to 000000000048d094
  DW_CFA_restore: r15 (r15)
  DW_CFA_advance_loc: 2 to 000000000048d096
  DW_CFA_restore: r14 (r14)
  DW_CFA_advance_loc: 2 to 000000000048d098
  DW_CFA_restore: r13 (r13)
  DW_CFA_advance_loc: 2 to 000000000048d09a
  DW_CFA_restore: r12 (r12)
  DW_CFA_advance_loc: 3 to 000000000048d09d
  DW_CFA_restore: r6 (rbp)
  DW_CFA_advance_loc: 1 to 000000000048d09e
  DW_CFA_offset: r3 (rbx) at cfa-56
  DW_CFA_offset: r6 (rbp) at cfa-16
  DW_CFA_offset: r12 (r12) at cfa-24
  DW_CFA_offset: r13 (r13) at cfa-32
  DW_CFA_offset: r14 (r14) at cfa-40
  DW_CFA_offset: r15 (r15) at cfa-48
  DW_CFA_advance_loc: 26 to 000000000048d0b8
  DW_CFA_restore: r3 (rbx)
  DW_CFA_advance_loc: 1 to 000000000048d0b9
  DW_CFA_restore: r15 (r15)
  DW_CFA_advance_loc: 2 to 000000000048d0bb
  DW_CFA_restore: r14 (r14)
  DW_CFA_advance_loc: 2 to 000000000048d0bd
  DW_CFA_restore: r13 (r13)
  DW_CFA_advance_loc: 2 to 000000000048d0bf
  DW_CFA_restore: r12 (r12)
  DW_CFA_advance_loc: 3 to 000000000048d0c2
  DW_CFA_restore: r6 (rbp)
  DW_CFA_advance_loc: 1 to 000000000048d0c3
  DW_CFA_offset: r3 (rbx) at cfa-56
  DW_CFA_offset: r6 (rbp) at cfa-16
  DW_CFA_offset: r12 (r12) at cfa-24
  DW_CFA_offset: r13 (r13) at cfa-32
  DW_CFA_offset: r14 (r14) at cfa-40
  DW_CFA_offset: r15 (r15) at cfa-48
  DW_CFA_advance_loc2: 750 to 000000000048d3b1
  DW_CFA_restore: r3 (rbx)
  DW_CFA_advance_loc: 1 to 000000000048d3b2
  DW_CFA_restore: r15 (r15)
  DW_CFA_advance_loc: 2 to 000000000048d3b4
  DW_CFA_restore: r14 (r14)
  DW_CFA_advance_loc: 2 to 000000000048d3b6
  DW_CFA_restore: r13 (r13)
  DW_CFA_advance_loc: 2 to 000000000048d3b8
  DW_CFA_restore: r12 (r12)
  DW_CFA_advance_loc: 3 to 000000000048d3bb
  DW_CFA_restore: r6 (rbp)
  DW_CFA_advance_loc: 1 to 000000000048d3bc
  DW_CFA_offset: r3 (rbx) at cfa-56
  DW_CFA_offset: r6 (rbp) at cfa-16
  DW_CFA_offset: r12 (r12) at cfa-24
  DW_CFA_offset: r13 (r13) at cfa-32
  DW_CFA_offset: r14 (r14) at cfa-40
  DW_CFA_offset: r15 (r15) at cfa-48
  DW_CFA_advance_loc: 55 to 000000000048d3f3
  DW_CFA_restore: r3 (rbx)
  DW_CFA_advance_loc: 1 to 000000000048d3f4
  DW_CFA_restore: r15 (r15)
  DW_CFA_advance_loc: 2 to 000000000048d3f6
  DW_CFA_restore: r14 (r14)
  DW_CFA_advance_loc: 2 to 000000000048d3f8
  DW_CFA_restore: r13 (r13)
  DW_CFA_advance_loc: 2 to 000000000048d3fa
  DW_CFA_restore: r12 (r12)
  DW_CFA_advance_loc: 3 to 000000000048d3fd
  DW_CFA_restore: r6 (rbp)
  DW_CFA_advance_loc: 1 to 000000000048d3fe
  DW_CFA_offset: r3 (rbx) at cfa-56
  DW_CFA_offset: r6 (rbp) at cfa-16
  DW_CFA_offset: r12 (r12) at cfa-24
  DW_CFA_offset: r13 (r13) at cfa-32
  DW_CFA_offset: r14 (r14) at cfa-40
  DW_CFA_offset: r15 (r15) at cfa-48
  DW_CFA_advance_loc1: 160 to 000000000048d49e
  DW_CFA_restore: r3 (rbx)
  DW_CFA_advance_loc: 1 to 000000000048d49f
  DW_CFA_restore: r15 (r15)
  DW_CFA_advance_loc: 2 to 000000000048d4a1
  DW_CFA_restore: r14 (r14)
  DW_CFA_advance_loc: 2 to 000000000048d4a3
  DW_CFA_restore: r13 (r13)
  DW_CFA_advance_loc: 2 to 000000000048d4a5
  DW_CFA_restore: r12 (r12)
  DW_CFA_advance_loc: 3 to 000000000048d4a8
  DW_CFA_restore: r6 (rbp)
  DW_CFA_advance_loc: 1 to 000000000048d4a9
  DW_CFA_offset: r3 (rbx) at cfa-56
  DW_CFA_offset: r6 (rbp) at cfa-16
  DW_CFA_offset: r12 (r12) at cfa-24
  DW_CFA_offset: r13 (r13) at cfa-32
  DW_CFA_offset: r14 (r14) at cfa-40
  DW_CFA_offset: r15 (r15) at cfa-48
  DW_CFA_advance_loc: 26 to 000000000048d4c3
  DW_CFA_restore: r3 (rbx)
  DW_CFA_advance_loc: 1 to 000000000048d4c4
  DW_CFA_restore: r15 (r15)
  DW_CFA_advance_loc: 2 to 000000000048d4c6
  DW_CFA_restore: r14 (r14)
  DW_CFA_advance_loc: 2 to 000000000048d4c8
  DW_CFA_restore: r13 (r13)
  DW_CFA_advance_loc: 2 to 000000000048d4ca
  DW_CFA_restore: r12 (r12)
  DW_CFA_advance_loc: 3 to 000000000048d4cd
  DW_CFA_restore: r6 (rbp)
  DW_CFA_advance_loc: 1 to 000000000048d4ce
  DW_CFA_offset: r3 (rbx) at cfa-56
  DW_CFA_offset: r6 (rbp) at cfa-16
  DW_CFA_offset: r12 (r12) at cfa-24
  DW_CFA_offset: r13 (r13) at cfa-32
  DW_CFA_offset: r14 (r14) at cfa-40
  DW_CFA_offset: r15 (r15) at cfa-48
  DW_CFA_advance_loc: 26 to 000000000048d4e8
  DW_CFA_restore: r3 (rbx)
  DW_CFA_advance_loc: 1 to 000000000048d4e9
  DW_CFA_restore: r15 (r15)
  DW_CFA_advance_loc: 2 to 000000000048d4eb
  DW_CFA_restore: r14 (r14)
  DW_CFA_advance_loc: 2 to 000000000048d4ed
  DW_CFA_restore: r13 (r13)
  DW_CFA_advance_loc: 2 to 000000000048d4ef
  DW_CFA_restore: r12 (r12)
  DW_CFA_advance_loc: 3 to 000000000048d4f2
  DW_CFA_restore: r6 (rbp)
  DW_CFA_advance_loc: 1 to 000000000048d4f3
  DW_CFA_offset: r3 (rbx) at cfa-56
  DW_CFA_offset: r6 (rbp) at cfa-16
  DW_CFA_offset: r12 (r12) at cfa-24
  DW_CFA_offset: r13 (r13) at cfa-32
  DW_CFA_offset: r14 (r14) at cfa-40
  DW_CFA_offset: r15 (r15) at cfa-48
  DW_CFA_advance_loc: 26 to 000000000048d50d
  DW_CFA_restore: r3 (rbx)
  DW_CFA_advance_loc: 1 to 000000000048d50e
  DW_CFA_restore: r15 (r15)
  DW_CFA_advance_loc: 2 to 000000000048d510
  DW_CFA_restore: r14 (r14)
  DW_CFA_advance_loc: 2 to 000000000048d512
  DW_CFA_restore: r13 (r13)
  DW_CFA_advance_loc: 2 to 000000000048d514
  DW_CFA_restore: r12 (r12)
  DW_CFA_advance_loc: 3 to 000000000048d517
  DW_CFA_restore: r6 (rbp)
  DW_CFA_advance_loc: 1 to 000000000048d518
  DW_CFA_offset: r3 (rbx) at cfa-56
  DW_CFA_offset: r6 (rbp) at cfa-16
  DW_CFA_offset: r12 (r12) at cfa-24
  DW_CFA_offset: r13 (r13) at cfa-32
  DW_CFA_offset: r14 (r14) at cfa-40
  DW_CFA_offset: r15 (r15) at cfa-48
  DW_CFA_advance_loc: 45 to 000000000048d545
  DW_CFA_restore: r3 (rbx)
  DW_CFA_advance_loc: 1 to 000000000048d546
  DW_CFA_restore: r15 (r15)
  DW_CFA_advance_loc: 2 to 000000000048d548
  DW_CFA_restore: r14 (r14)
  DW_CFA_advance_loc: 2 to 000000000048d54a
  DW_CFA_restore: r13 (r13)
  DW_CFA_advance_loc: 2 to 000000000048d54c
  DW_CFA_restore: r12 (r12)
  DW_CFA_advance_loc: 3 to 000000000048d54f
  DW_CFA_restore: r6 (rbp)
  DW_CFA_advance_loc: 1 to 000000000048d550
  DW_CFA_offset: r3 (rbx) at cfa-56
  DW_CFA_offset: r6 (rbp) at cfa-16
  DW_CFA_offset: r12 (r12) at cfa-24
  DW_CFA_offset: r13 (r13) at cfa-32
  DW_CFA_offset: r14 (r14) at cfa-40
  DW_CFA_offset: r15 (r15) at cfa-48
  DW_CFA_advance_loc: 31 to 000000000048d56f
  DW_CFA_restore: r3 (rbx)
  DW_CFA_advance_loc: 1 to 000000000048d570
  DW_CFA_restore: r15 (r15)
  DW_CFA_advance_loc: 2 to 000000000048d572
  DW_CFA_restore: r14 (r14)
  DW_CFA_advance_loc: 2 to 000000000048d574
  DW_CFA_restore: r13 (r13)
  DW_CFA_advance_loc: 2 to 000000000048d576
  DW_CFA_restore: r12 (r12)
  DW_CFA_advance_loc: 3 to 000000000048d579
  DW_CFA_restore: r6 (rbp)
  DW_CFA_advance_loc: 1 to 000000000048d57a
  DW_CFA_offset: r3 (rbx) at cfa-56
  DW_CFA_offset: r6 (rbp) at cfa-16
  DW_CFA_offset: r12 (r12) at cfa-24
  DW_CFA_offset: r13 (r13) at cfa-32
  DW_CFA_offset: r14 (r14) at cfa-40
  DW_CFA_offset: r15 (r15) at cfa-48
  DW_CFA_advance_loc: 31 to 000000000048d599
  DW_CFA_restore: r3 (rbx)
  DW_CFA_advance_loc: 1 to 000000000048d59a
  DW_CFA_restore: r15 (r15)
  DW_CFA_advance_loc: 2 to 000000000048d59c
  DW_CFA_restore: r14 (r14)
  DW_CFA_advance_loc: 2 to 000000000048d59e
  DW_CFA_restore: r13 (r13)
  DW_CFA_advance_loc: 2 to 000000000048d5a0
  DW_CFA_restore: r12 (r12)
  DW_CFA_advance_loc: 3 to 000000000048d5a3
  DW_CFA_restore: r6 (rbp)
  DW_CFA_advance_loc: 1 to 000000000048d5a4
  DW_CFA_offset: r3 (rbx) at cfa-56
  DW_CFA_offset: r6 (rbp) at cfa-16
  DW_CFA_offset: r12 (r12) at cfa-24
  DW_CFA_offset: r13 (r13) at cfa-32
  DW_CFA_offset: r14 (r14) at cfa-40
  DW_CFA_offset: r15 (r15) at cfa-48
  DW_CFA_advance_loc: 31 to 000000000048d5c3
  DW_CFA_restore: r3 (rbx)
  DW_CFA_advance_loc: 1 to 000000000048d5c4
  DW_CFA_restore: r15 (r15)
  DW_CFA_advance_loc: 2 to 000000000048d5c6
  DW_CFA_restore: r14 (r14)
  DW_CFA_advance_loc: 2 to 000000000048d5c8
  DW_CFA_restore: r13 (r13)
  DW_CFA_advance_loc: 2 to 000000000048d5ca
  DW_CFA_restore: r12 (r12)
  DW_CFA_advance_loc: 3 to 000000000048d5cd
  DW_CFA_restore: r6 (rbp)
  DW_CFA_advance_loc: 1 to 000000000048d5ce
  DW_CFA_offset: r3 (rbx) at cfa-56
  DW_CFA_offset: r6 (rbp) at cfa-16
  DW_CFA_offset: r12 (r12) at cfa-24
  DW_CFA_offset: r13 (r13) at cfa-32
  DW_CFA_offset: r14 (r14) at cfa-40
  DW_CFA_offset: r15 (r15) at cfa-48
  DW_CFA_advance_loc: 31 to 000000000048d5ed
  DW_CFA_restore: r3 (rbx)
  DW_CFA_advance_loc: 1 to 000000000048d5ee
  DW_CFA_restore: r15 (r15)
  DW_CFA_advance_loc: 2 to 000000000048d5f0
  DW_CFA_restore: r14 (r14)
  DW_CFA_advance_loc: 2 to 000000000048d5f2
  DW_CFA_restore: r13 (r13)
  DW_CFA_advance_loc: 2 to 000000000048d5f4
  DW_CFA_restore: r12 (r12)
  DW_CFA_advance_loc: 3 to 000000000048d5f7
  DW_CFA_restore: r6 (rbp)
  DW_CFA_advance_loc: 1 to 000000000048d5f8
  DW_CFA_offset: r3 (rbx) at cfa-56
  DW_CFA_offset: r6 (rbp) at cfa-16
  DW_CFA_offset: r12 (r12) at cfa-24
  DW_CFA_offset: r13 (r13) at cfa-32
  DW_CFA_offset: r14 (r14) at cfa-40
  DW_CFA_offset: r15 (r15) at cfa-48
  DW_CFA_advance_loc: 31 to 000000000048d617
  DW_CFA_restore: r3 (rbx)
  DW_CFA_advance_loc: 1 to 000000000048d618
  DW_CFA_restore: r15 (r15)
  DW_CFA_advance_loc: 2 to 000000000048d61a
  DW_CFA_restore: r14 (r14)
  DW_CFA_advance_loc: 2 to 000000000048d61c
  DW_CFA_restore: r13 (r13)
  DW_CFA_advance_loc: 2 to 000000000048d61e
  DW_CFA_restore: r12 (r12)
  DW_CFA_advance_loc: 3 to 000000000048d621
  DW_CFA_restore: r6 (rbp)
  DW_CFA_advance_loc: 1 to 000000000048d622
  DW_CFA_offset: r3 (rbx) at cfa-56
  DW_CFA_offset: r6 (rbp) at cfa-16
  DW_CFA_offset: r12 (r12) at cfa-24
  DW_CFA_offset: r13 (r13) at cfa-32
  DW_CFA_offset: r14 (r14) at cfa-40
  DW_CFA_offset: r15 (r15) at cfa-48
  DW_CFA_advance_loc: 47 to 000000000048d651
  DW_CFA_restore: r3 (rbx)
  DW_CFA_advance_loc: 1 to 000000000048d652
  DW_CFA_restore: r15 (r15)
  DW_CFA_advance_loc: 2 to 000000000048d654
  DW_CFA_restore: r14 (r14)
  DW_CFA_advance_loc: 2 to 000000000048d656
  DW_CFA_restore: r13 (r13)
  DW_CFA_advance_loc: 2 to 000000000048d658
  DW_CFA_restore: r12 (r12)
  DW_CFA_advance_loc: 3 to 000000000048d65b
  DW_CFA_restore: r6 (rbp)
  DW_CFA_advance_loc: 1 to 000000000048d65c
  DW_CFA_offset: r3 (rbx) at cfa-56
  DW_CFA_offset: r6 (rbp) at cfa-16
  DW_CFA_offset: r12 (r12) at cfa-24
  DW_CFA_offset: r13 (r13) at cfa-32
  DW_CFA_offset: r14 (r14) at cfa-40
  DW_CFA_offset: r15 (r15) at cfa-48
  DW_CFA_advance_loc: 43 to 000000000048d687
  DW_CFA_restore: r3 (rbx)
  DW_CFA_advance_loc: 1 to 000000000048d688
  DW_CFA_restore: r15 (r15)
  DW_CFA_advance_loc: 2 to 000000000048d68a
  DW_CFA_restore: r14 (r14)
  DW_CFA_advance_loc: 2 to 000000000048d68c
  DW_CFA_restore: r13 (r13)
  DW_CFA_advance_loc: 2 to 000000000048d68e
  DW_CFA_restore: r12 (r12)
  DW_CFA_advance_loc: 3 to 000000000048d691
  DW_CFA_restore: r6 (rbp)
  DW_CFA_advance_loc: 1 to 000000000048d692
  DW_CFA_offset: r3 (rbx) at cfa-56
  DW_CFA_offset: r6 (rbp) at cfa-16
  DW_CFA_offset: r12 (r12) at cfa-24
  DW_CFA_offset: r13 (r13) at cfa-32
  DW_CFA_offset: r14 (r14) at cfa-40
  DW_CFA_offset: r15 (r15) at cfa-48
  DW_CFA_advance_loc: 27 to 000000000048d6ad
  DW_CFA_restore: r3 (rbx)
  DW_CFA_advance_loc: 1 to 000000000048d6ae
  DW_CFA_restore: r15 (r15)
  DW_CFA_advance_loc: 2 to 000000000048d6b0
  DW_CFA_restore: r14 (r14)
  DW_CFA_advance_loc: 2 to 000000000048d6b2
  DW_CFA_restore: r13 (r13)
  DW_CFA_advance_loc: 2 to 000000000048d6b4
  DW_CFA_restore: r12 (r12)
  DW_CFA_advance_loc: 3 to 000000000048d6b7
  DW_CFA_restore: r6 (rbp)
  DW_CFA_advance_loc: 1 to 000000000048d6b8
  DW_CFA_offset: r3 (rbx) at cfa-56
  DW_CFA_offset: r6 (rbp) at cfa-16
  DW_CFA_offset: r12 (r12) at cfa-24
  DW_CFA_offset: r13 (r13) at cfa-32
  DW_CFA_offset: r14 (r14) at cfa-40
  DW_CFA_offset: r15 (r15) at cfa-48
  DW_CFA_advance_loc: 27 to 000000000048d6d3
  DW_CFA_restore: r3 (rbx)
  DW_CFA_advance_loc: 1 to 000000000048d6d4
  DW_CFA_restore: r15 (r15)
  DW_CFA_advance_loc: 2 to 000000000048d6d6
  DW_CFA_restore: r14 (r14)
  DW_CFA_advance_loc: 2 to 000000000048d6d8
  DW_CFA_restore: r13 (r13)
  DW_CFA_advance_loc: 2 to 000000000048d6da
  DW_CFA_restore: r12 (r12)
  DW_CFA_advance_loc: 3 to 000000000048d6dd
  DW_CFA_restore: r6 (rbp)
  DW_CFA_advance_loc: 1 to 000000000048d6de
  DW_CFA_offset: r3 (rbx) at cfa-56
  DW_CFA_offset: r6 (rbp) at cfa-16
  DW_CFA_offset: r12 (r12) at cfa-24
  DW_CFA_offset: r13 (r13) at cfa-32
  DW_CFA_offset: r14 (r14) at cfa-40
  DW_CFA_offset: r15 (r15) at cfa-48
  DW_CFA_advance_loc: 22 to 000000000048d6f4
  DW_CFA_restore: r3 (rbx)
  DW_CFA_advance_loc: 1 to 000000000048d6f5
  DW_CFA_restore: r15 (r15)
  DW_CFA_advance_loc: 2 to 000000000048d6f7
  DW_CFA_restore: r14 (r14)
  DW_CFA_advance_loc: 2 to 000000000048d6f9
  DW_CFA_restore: r13 (r13)
  DW_CFA_advance_loc: 2 to 000000000048d6fb
  DW_CFA_restore: r12 (r12)
  DW_CFA_advance_loc: 3 to 000000000048d6fe
  DW_CFA_restore: r6 (rbp)
  DW_CFA_advance_loc: 1 to 000000000048d6ff
  DW_CFA_offset: r3 (rbx) at cfa-56
  DW_CFA_offset: r6 (rbp) at cfa-16
  DW_CFA_offset: r12 (r12) at cfa-24
  DW_CFA_offset: r13 (r13) at cfa-32
  DW_CFA_offset: r14 (r14) at cfa-40
  DW_CFA_offset: r15 (r15) at cfa-48
  DW_CFA_advance_loc: 48 to 000000000048d72f
  DW_CFA_restore: r3 (rbx)
  DW_CFA_advance_loc: 1 to 000000000048d730
  DW_CFA_restore: r15 (r15)
  DW_CFA_advance_loc: 2 to 000000000048d732
  DW_CFA_restore: r14 (r14)
  DW_CFA_advance_loc: 2 to 000000000048d734
  DW_CFA_restore: r13 (r13)
  DW_CFA_advance_loc: 2 to 000000000048d736
  DW_CFA_restore: r12 (r12)
  DW_CFA_advance_loc: 3 to 000000000048d739
  DW_CFA_restore: r6 (rbp)
  DW_CFA_advance_loc: 1 to 000000000048d73a
  DW_CFA_offset: r3 (rbx) at cfa-56
  DW_CFA_offset: r6 (rbp) at cfa-16
  DW_CFA_offset: r12 (r12) at cfa-24
  DW_CFA_offset: r13 (r13) at cfa-32
  DW_CFA_offset: r14 (r14) at cfa-40
  DW_CFA_offset: r15 (r15) at cfa-48
  DW_CFA_advance_loc: 27 to 000000000048d755
  DW_CFA_restore: r3 (rbx)
  DW_CFA_advance_loc: 1 to 000000000048d756
  DW_CFA_restore: r15 (r15)
  DW_CFA_advance_loc: 2 to 000000000048d758
  DW_CFA_restore: r14 (r14)
  DW_CFA_advance_loc: 2 to 000000000048d75a
  DW_CFA_restore: r13 (r13)
  DW_CFA_advance_loc: 2 to 000000000048d75c
  DW_CFA_restore: r12 (r12)
  DW_CFA_advance_loc: 3 to 000000000048d75f
  DW_CFA_restore: r6 (rbp)
  DW_CFA_advance_loc: 1 to 000000000048d760
  DW_CFA_offset: r3 (rbx) at cfa-56
  DW_CFA_offset: r6 (rbp) at cfa-16
  DW_CFA_offset: r12 (r12) at cfa-24
  DW_CFA_offset: r13 (r13) at cfa-32
  DW_CFA_offset: r14 (r14) at cfa-40
  DW_CFA_offset: r15 (r15) at cfa-48
  DW_CFA_advance_loc: 27 to 000000000048d77b
  DW_CFA_restore: r3 (rbx)
  DW_CFA_advance_loc: 1 to 000000000048d77c
  DW_CFA_restore: r15 (r15)
  DW_CFA_advance_loc: 2 to 000000000048d77e
  DW_CFA_restore: r14 (r14)
  DW_CFA_advance_loc: 2 to 000000000048d780
  DW_CFA_restore: r13 (r13)
  DW_CFA_advance_loc: 2 to 000000000048d782
  DW_CFA_restore: r12 (r12)
  DW_CFA_advance_loc: 3 to 000000000048d785
  DW_CFA_restore: r6 (rbp)
  DW_CFA_advance_loc: 1 to 000000000048d786
  DW_CFA_offset: r3 (rbx) at cfa-56
  DW_CFA_offset: r6 (rbp) at cfa-16
  DW_CFA_offset: r12 (r12) at cfa-24
  DW_CFA_offset: r13 (r13) at cfa-32
  DW_CFA_offset: r14 (r14) at cfa-40
  DW_CFA_offset: r15 (r15) at cfa-48
  DW_CFA_advance_loc1: 166 to 000000000048d82c
  DW_CFA_restore: r3 (rbx)
  DW_CFA_advance_loc: 1 to 000000000048d82d
  DW_CFA_restore: r15 (r15)
  DW_CFA_advance_loc: 2 to 000000000048d82f
  DW_CFA_restore: r14 (r14)
  DW_CFA_advance_loc: 2 to 000000000048d831
  DW_CFA_restore: r13 (r13)
  DW_CFA_advance_loc: 2 to 000000000048d833
  DW_CFA_restore: r12 (r12)
  DW_CFA_advance_loc: 3 to 000000000048d836
  DW_CFA_restore: r6 (rbp)
  DW_CFA_advance_loc: 1 to 000000000048d837
  DW_CFA_offset: r3 (rbx) at cfa-56
  DW_CFA_offset: r6 (rbp) at cfa-16
  DW_CFA_offset: r12 (r12) at cfa-24
  DW_CFA_offset: r13 (r13) at cfa-32
  DW_CFA_offset: r14 (r14) at cfa-40
  DW_CFA_offset: r15 (r15) at cfa-48
  DW_CFA_advance_loc2: 343 to 000000000048d98e
  DW_CFA_restore: r3 (rbx)
  DW_CFA_advance_loc: 1 to 000000000048d98f
  DW_CFA_restore: r15 (r15)
  DW_CFA_advance_loc: 2 to 000000000048d991
  DW_CFA_restore: r14 (r14)
  DW_CFA_advance_loc: 2 to 000000000048d993
  DW_CFA_restore: r13 (r13)
  DW_CFA_advance_loc: 2 to 000000000048d995
  DW_CFA_restore: r12 (r12)
  DW_CFA_advance_loc: 3 to 000000000048d998
  DW_CFA_restore: r6 (rbp)
  DW_CFA_advance_loc: 1 to 000000000048d999
  DW_CFA_offset: r3 (rbx) at cfa-56
  DW_CFA_offset: r6 (rbp) at cfa-16
  DW_CFA_offset: r12 (r12) at cfa-24
  DW_CFA_offset: r13 (r13) at cfa-32
  DW_CFA_offset: r14 (r14) at cfa-40
  DW_CFA_offset: r15 (r15) at cfa-48
  DW_CFA_advance_loc2: 1434 to 000000000048df33
  DW_CFA_restore: r3 (rbx)
  DW_CFA_advance_loc: 1 to 000000000048df34
  DW_CFA_restore: r15 (r15)
  DW_CFA_advance_loc: 2 to 000000000048df36
  DW_CFA_restore: r14 (r14)
  DW_CFA_advance_loc: 2 to 000000000048df38
  DW_CFA_restore: r13 (r13)
  DW_CFA_advance_loc: 2 to 000000000048df3a
  DW_CFA_restore: r12 (r12)
  DW_CFA_advance_loc: 3 to 000000000048df3d
  DW_CFA_restore: r6 (rbp)
  DW_CFA_advance_loc: 1 to 000000000048df3e
  DW_CFA_offset: r3 (rbx) at cfa-56
  DW_CFA_offset: r6 (rbp) at cfa-16
  DW_CFA_offset: r12 (r12) at cfa-24
  DW_CFA_offset: r13 (r13) at cfa-32
  DW_CFA_offset: r14 (r14) at cfa-40
  DW_CFA_offset: r15 (r15) at cfa-48
  DW_CFA_advance_loc1: 76 to 000000000048df8a
  DW_CFA_restore: r3 (rbx)
  DW_CFA_advance_loc: 1 to 000000000048df8b
  DW_CFA_restore: r15 (r15)
  DW_CFA_advance_loc: 2 to 000000000048df8d
  DW_CFA_restore: r14 (r14)
  DW_CFA_advance_loc: 2 to 000000000048df8f
  DW_CFA_restore: r13 (r13)
  DW_CFA_advance_loc: 2 to 000000000048df91
  DW_CFA_restore: r12 (r12)
  DW_CFA_advance_loc: 3 to 000000000048df94
  DW_CFA_restore: r6 (rbp)
  DW_CFA_advance_loc: 1 to 000000000048df95
  DW_CFA_offset: r3 (rbx) at cfa-56
  DW_CFA_offset: r6 (rbp) at cfa-16
  DW_CFA_offset: r12 (r12) at cfa-24
  DW_CFA_offset: r13 (r13) at cfa-32
  DW_CFA_offset: r14 (r14) at cfa-40
  DW_CFA_offset: r15 (r15) at cfa-48
  DW_CFA_advance_loc1: 186 to 000000000048e04f
  DW_CFA_restore: r3 (rbx)
  DW_CFA_advance_loc: 1 to 000000000048e050
  DW_CFA_restore: r15 (r15)
  DW_CFA_advance_loc: 2 to 000000000048e052
  DW_CFA_restore: r14 (r14)
  DW_CFA_advance_loc: 2 to 000000000048e054
  DW_CFA_restore: r13 (r13)
  DW_CFA_advance_loc: 2 to 000000000048e056
  DW_CFA_restore: r12 (r12)
  DW_CFA_advance_loc: 3 to 000000000048e059
  DW_CFA_restore: r6 (rbp)
  DW_CFA_advance_loc: 1 to 000000000048e05a
  DW_CFA_offset: r3 (rbx) at cfa-56
  DW_CFA_offset: r6 (rbp) at cfa-16
  DW_CFA_offset: r12 (r12) at cfa-24
  DW_CFA_offset: r13 (r13) at cfa-32
  DW_CFA_offset: r14 (r14) at cfa-40
  DW_CFA_offset: r15 (r15) at cfa-48
  DW_CFA_advance_loc1: 73 to 000000000048e0a3
  DW_CFA_restore: r3 (rbx)
  DW_CFA_advance_loc: 1 to 000000000048e0a4
  DW_CFA_restore: r15 (r15)
  DW_CFA_advance_loc: 2 to 000000000048e0a6
  DW_CFA_restore: r14 (r14)
  DW_CFA_advance_loc: 2 to 000000000048e0a8
  DW_CFA_restore: r13 (r13)
  DW_CFA_advance_loc: 2 to 000000000048e0aa
  DW_CFA_restore: r12 (r12)
  DW_CFA_advance_loc: 3 to 000000000048e0ad
  DW_CFA_restore: r6 (rbp)
  DW_CFA_advance_loc: 1 to 000000000048e0ae
  DW_CFA_offset: r3 (rbx) at cfa-56
  DW_CFA_offset: r6 (rbp) at cfa-16
  DW_CFA_offset: r12 (r12) at cfa-24
  DW_CFA_offset: r13 (r13) at cfa-32
  DW_CFA_offset: r14 (r14) at cfa-40
  DW_CFA_offset: r15 (r15) at cfa-48
  DW_CFA_advance_loc1: 114 to 000000000048e120
  DW_CFA_restore: r3 (rbx)
  DW_CFA_advance_loc: 1 to 000000000048e121
  DW_CFA_restore: r15 (r15)
  DW_CFA_advance_loc: 2 to 000000000048e123
  DW_CFA_restore: r14 (r14)
  DW_CFA_advance_loc: 2 to 000000000048e125
  DW_CFA_restore: r13 (r13)
  DW_CFA_advance_loc: 2 to 000000000048e127
  DW_CFA_restore: r12 (r12)
  DW_CFA_advance_loc: 3 to 000000000048e12a
  DW_CFA_restore: r6 (rbp)
  DW_CFA_advance_loc: 1 to 000000000048e12b
  DW_CFA_offset: r3 (rbx) at cfa-56
  DW_CFA_offset: r6 (rbp) at cfa-16
  DW_CFA_offset: r12 (r12) at cfa-24
  DW_CFA_offset: r13 (r13) at cfa-32
  DW_CFA_offset: r14 (r14) at cfa-40
  DW_CFA_offset: r15 (r15) at cfa-48
  DW_CFA_advance_loc1: 127 to 000000000048e1aa
  DW_CFA_restore: r3 (rbx)
  DW_CFA_advance_loc: 1 to 000000000048e1ab
  DW_CFA_restore: r15 (r15)
  DW_CFA_advance_loc: 2 to 000000000048e1ad
  DW_CFA_restore: r14 (r14)
  DW_CFA_advance_loc: 2 to 000000000048e1af
  DW_CFA_restore: r13 (r13)
  DW_CFA_advance_loc: 2 to 000000000048e1b1
  DW_CFA_restore: r12 (r12)
  DW_CFA_advance_loc: 3 to 000000000048e1b4
  DW_CFA_restore: r6 (rbp)
  DW_CFA_advance_loc: 1 to 000000000048e1b5
  DW_CFA_offset: r3 (rbx) at cfa-56
  DW_CFA_offset: r6 (rbp) at cfa-16
  DW_CFA_offset: r12 (r12) at cfa-24
  DW_CFA_offset: r13 (r13) at cfa-32
  DW_CFA_offset: r14 (r14) at cfa-40
  DW_CFA_offset: r15 (r15) at cfa-48
  DW_CFA_advance_loc: 31 to 000000000048e1d4
  DW_CFA_restore: r3 (rbx)
  DW_CFA_advance_loc: 1 to 000000000048e1d5
  DW_CFA_restore: r15 (r15)
  DW_CFA_advance_loc: 2 to 000000000048e1d7
  DW_CFA_restore: r14 (r14)
  DW_CFA_advance_loc: 2 to 000000000048e1d9
  DW_CFA_restore: r13 (r13)
  DW_CFA_advance_loc: 2 to 000000000048e1db
  DW_CFA_restore: r12 (r12)
  DW_CFA_advance_loc: 3 to 000000000048e1de
  DW_CFA_restore: r6 (rbp)
  DW_CFA_advance_loc: 1 to 000000000048e1df
  DW_CFA_offset: r3 (rbx) at cfa-56
  DW_CFA_offset: r6 (rbp) at cfa-16
  DW_CFA_offset: r12 (r12) at cfa-24
  DW_CFA_offset: r13 (r13) at cfa-32
  DW_CFA_offset: r14 (r14) at cfa-40
  DW_CFA_offset: r15 (r15) at cfa-48
  DW_CFA_advance_loc: 47 to 000000000048e20e
  DW_CFA_restore: r3 (rbx)
  DW_CFA_advance_loc: 1 to 000000000048e20f
  DW_CFA_restore: r15 (r15)
  DW_CFA_advance_loc: 2 to 000000000048e211
  DW_CFA_restore: r14 (r14)
  DW_CFA_advance_loc: 2 to 000000000048e213
  DW_CFA_restore: r13 (r13)
  DW_CFA_advance_loc: 2 to 000000000048e215
  DW_CFA_restore: r12 (r12)
  DW_CFA_advance_loc: 3 to 000000000048e218
  DW_CFA_restore: r6 (rbp)
  DW_CFA_advance_loc: 1 to 000000000048e219
  DW_CFA_offset: r3 (rbx) at cfa-56
  DW_CFA_offset: r6 (rbp) at cfa-16
  DW_CFA_offset: r12 (r12) at cfa-24
  DW_CFA_offset: r13 (r13) at cfa-32
  DW_CFA_offset: r14 (r14) at cfa-40
  DW_CFA_offset: r15 (r15) at cfa-48
  DW_CFA_advance_loc: 47 to 000000000048e248
  DW_CFA_restore: r3 (rbx)
  DW_CFA_advance_loc: 1 to 000000000048e249
  DW_CFA_restore: r15 (r15)
  DW_CFA_advance_loc: 2 to 000000000048e24b
  DW_CFA_restore: r14 (r14)
  DW_CFA_advance_loc: 2 to 000000000048e24d
  DW_CFA_restore: r13 (r13)
  DW_CFA_advance_loc: 2 to 000000000048e24f
  DW_CFA_restore: r12 (r12)
  DW_CFA_advance_loc: 3 to 000000000048e252
  DW_CFA_restore: r6 (rbp)
  DW_CFA_advance_loc: 1 to 000000000048e253
  DW_CFA_offset: r3 (rbx) at cfa-56
  DW_CFA_offset: r6 (rbp) at cfa-16
  DW_CFA_offset: r12 (r12) at cfa-24
  DW_CFA_offset: r13 (r13) at cfa-32
  DW_CFA_offset: r14 (r14) at cfa-40
  DW_CFA_offset: r15 (r15) at cfa-48
  DW_CFA_advance_loc: 31 to 000000000048e272
  DW_CFA_restore: r3 (rbx)
  DW_CFA_advance_loc: 1 to 000000000048e273
  DW_CFA_restore: r15 (r15)
  DW_CFA_advance_loc: 2 to 000000000048e275
  DW_CFA_restore: r14 (r14)
  DW_CFA_advance_loc: 2 to 000000000048e277
  DW_CFA_restore: r13 (r13)
  DW_CFA_advance_loc: 2 to 000000000048e279
  DW_CFA_restore: r12 (r12)
  DW_CFA_advance_loc: 3 to 000000000048e27c
  DW_CFA_restore: r6 (rbp)
  DW_CFA_advance_loc: 1 to 000000000048e27d
  DW_CFA_offset: r3 (rbx) at cfa-56
  DW_CFA_offset: r6 (rbp) at cfa-16
  DW_CFA_offset: r12 (r12) at cfa-24
  DW_CFA_offset: r13 (r13) at cfa-32
  DW_CFA_offset: r14 (r14) at cfa-40
  DW_CFA_offset: r15 (r15) at cfa-48
  DW_CFA_advance_loc: 47 to 000000000048e2ac
  DW_CFA_restore: r3 (rbx)
  DW_CFA_advance_loc: 1 to 000000000048e2ad
  DW_CFA_restore: r15 (r15)
  DW_CFA_advance_loc: 2 to 000000000048e2af
  DW_CFA_restore: r14 (r14)
  DW_CFA_advance_loc: 2 to 000000000048e2b1
  DW_CFA_restore: r13 (r13)
  DW_CFA_advance_loc: 2 to 000000000048e2b3
  DW_CFA_restore: r12 (r12)
  DW_CFA_advance_loc: 3 to 000000000048e2b6
  DW_CFA_restore: r6 (rbp)
  DW_CFA_advance_loc: 1 to 000000000048e2b7
  DW_CFA_offset: r3 (rbx) at cfa-56
  DW_CFA_offset: r6 (rbp) at cfa-16
  DW_CFA_offset: r12 (r12) at cfa-24
  DW_CFA_offset: r13 (r13) at cfa-32
  DW_CFA_offset: r14 (r14) at cfa-40
  DW_CFA_offset: r15 (r15) at cfa-48
  DW_CFA_advance_loc: 31 to 000000000048e2d6
  DW_CFA_restore: r3 (rbx)
  DW_CFA_advance_loc: 1 to 000000000048e2d7
  DW_CFA_restore: r15 (r15)
  DW_CFA_advance_loc: 2 to 000000000048e2d9
  DW_CFA_restore: r14 (r14)
  DW_CFA_advance_loc: 2 to 000000000048e2db
  DW_CFA_restore: r13 (r13)
  DW_CFA_advance_loc: 2 to 000000000048e2dd
  DW_CFA_restore: r12 (r12)
  DW_CFA_advance_loc: 3 to 000000000048e2e0
  DW_CFA_restore: r6 (rbp)
  DW_CFA_advance_loc: 1 to 000000000048e2e1
  DW_CFA_offset: r3 (rbx) at cfa-56
  DW_CFA_offset: r6 (rbp) at cfa-16
  DW_CFA_offset: r12 (r12) at cfa-24
  DW_CFA_offset: r13 (r13) at cfa-32
  DW_CFA_offset: r14 (r14) at cfa-40
  DW_CFA_offset: r15 (r15) at cfa-48

00006f28 0000000000000024 00006e84 FDE cie=000000a8 pc=000000000048e510..000000000048e520
  DW_CFA_advance_loc: 1 to 000000000048e511
  DW_CFA_def_cfa_offset: 16
  DW_CFA_advance_loc: 3 to 000000000048e514
  DW_CFA_def_cfa: r6 (rbp) ofs 16
  DW_CFA_offset: r6 (rbp) at cfa-16
  DW_CFA_advance_loc: 6 to 000000000048e51a
  DW_CFA_restore: r6 (rbp)
  DW_CFA_nop
  DW_CFA_nop
  DW_CFA_nop
  DW_CFA_nop
  DW_CFA_nop

00006f50 0000000000000024 00006eac FDE cie=000000a8 pc=000000000048e520..000000000048e530
  DW_CFA_advance_loc: 1 to 000000000048e521
  DW_CFA_def_cfa_offset: 16
  DW_CFA_advance_loc: 3 to 000000000048e524
  DW_CFA_def_cfa: r6 (rbp) ofs 16
  DW_CFA_offset: r6 (rbp) at cfa-16
  DW_CFA_advance_loc: 9 to 000000000048e52d
  DW_CFA_restore: r6 (rbp)
  DW_CFA_nop
  DW_CFA_nop
  DW_CFA_nop
  DW_CFA_nop
  DW_CFA_nop

00006f78 0000000000000024 00006ed4 FDE cie=000000a8 pc=000000000048e530..000000000048e550
  DW_CFA_advance_loc: 1 to 000000000048e531
  DW_CFA_def_cfa_offset: 16
  DW_CFA_advance_loc: 3 to 000000000048e534
  DW_CFA_def_cfa: r6 (rbp) ofs 16
  DW_CFA_offset: r6 (rbp) at cfa-16
  DW_CFA_advance_loc: 18 to 000000000048e546
  DW_CFA_restore: r6 (rbp)
  DW_CFA_nop
  DW_CFA_nop
  DW_CFA_nop
  DW_CFA_nop
  DW_CFA_nop

00006fa0 0000000000000024 00006efc FDE cie=000000a8 pc=000000000048e550..000000000048e560
  DW_CFA_advance_loc: 1 to 000000000048e551
  DW_CFA_def_cfa_offset: 16
  DW_CFA_advance_loc: 3 to 000000000048e554
  DW_CFA_def_cfa: r6 (rbp) ofs 16
  DW_CFA_offset: r6 (rbp) at cfa-16
  DW_CFA_advance_loc: 9 to 000000000048e55d
  DW_CFA_restore: r6 (rbp)
  DW_CFA_nop
  DW_CFA_nop
  DW_CFA_nop
  DW_CFA_nop
  DW_CFA_nop

00006fc8 0000000000000024 00006f24 FDE cie=000000a8 pc=000000000048e560..000000000048e570
  DW_CFA_advance_loc: 1 to 000000000048e561
  DW_CFA_def_cfa_offset: 16
  DW_CFA_advance_loc: 3 to 000000000048e564
  DW_CFA_def_cfa: r6 (rbp) ofs 16
  DW_CFA_offset: r6 (rbp) at cfa-16
  DW_CFA_advance_loc: 9 to 000000000048e56d
  DW_CFA_restore: r6 (rbp)
  DW_CFA_nop
  DW_CFA_nop
  DW_CFA_nop
  DW_CFA_nop
  DW_CFA_nop

00006ff0 0000000000000024 00006f4c FDE cie=000000a8 pc=000000000048e570..000000000048e5a0
  DW_CFA_advance_loc: 1 to 000000000048e571
  DW_CFA_def_cfa_offset: 16
  DW_CFA_advance_loc: 3 to 000000000048e574
  DW_CFA_def_cfa: r6 (rbp) ofs 16
  DW_CFA_offset: r6 (rbp) at cfa-16
  DW_CFA_advance_loc: 35 to 000000000048e597
  DW_CFA_restore: r6 (rbp)
  DW_CFA_nop
  DW_CFA_nop
  DW_CFA_nop
  DW_CFA_nop
  DW_CFA_nop

00007018 0000000000000024 00006f74 FDE cie=000000a8 pc=000000000048e5a0..000000000048e5b0
  DW_CFA_advance_loc: 1 to 000000000048e5a1
  DW_CFA_def_cfa_offset: 16
  DW_CFA_advance_loc: 3 to 000000000048e5a4
  DW_CFA_def_cfa: r6 (rbp) ofs 16
  DW_CFA_offset: r6 (rbp) at cfa-16
  DW_CFA_advance_loc: 9 to 000000000048e5ad
  DW_CFA_restore: r6 (rbp)
  DW_CFA_nop
  DW_CFA_nop
  DW_CFA_nop
  DW_CFA_nop
  DW_CFA_nop

00007040 0000000000000024 00006f9c FDE cie=000000a8 pc=000000000048e5b0..000000000048e5c0
  DW_CFA_advance_loc: 1 to 000000000048e5b1
  DW_CFA_def_cfa_offset: 16
  DW_CFA_advance_loc: 3 to 000000000048e5b4
  DW_CFA_def_cfa: r6 (rbp) ofs 16
  DW_CFA_offset: r6 (rbp) at cfa-16
  DW_CFA_advance_loc: 9 to 000000000048e5bd
  DW_CFA_restore: r6 (rbp)
  DW_CFA_nop
  DW_CFA_nop
